0 C000           JMPa 4C       absolute   A:0 X:0 Y:0 P:24 SP:FD
5 C5F5            LDX A2      immediate   A:0 X:0 Y:0 P:24 SP:FD
8 C5F7            STX 86       zeropage   A:0 X:0 Y:0 P:26 SP:FD
12 C5F9            STX 86       zeropage   A:0 X:0 Y:0 P:26 SP:FD
16 C5FB            STX 86       zeropage   A:0 X:0 Y:0 P:26 SP:FD
20 C5FD            JSR 20       absolute   A:0 X:0 Y:0 P:26 SP:FD
25 C72D            NOP EA        implied   A:0 X:0 Y:0 P:26 SP:FB
28 C72E            SEC 38        implied   A:0 X:0 Y:0 P:26 SP:FB
31 C72F            BCS B0      immediate   A:0 X:0 Y:0 P:27 SP:FB
34 C735            NOP EA        implied   A:0 X:0 Y:0 P:27 SP:FB
37 C736            CLC 18        implied   A:0 X:0 Y:0 P:27 SP:FB
40 C737            BCS B0      immediate   A:0 X:0 Y:0 P:26 SP:FB
43 C739           JMPa 4C       absolute   A:0 X:0 Y:0 P:26 SP:FB
48 C740            NOP EA        implied   A:0 X:0 Y:0 P:26 SP:FB
51 C741            SEC 38        implied   A:0 X:0 Y:0 P:26 SP:FB
54 C742            BCC 90      immediate   A:0 X:0 Y:0 P:27 SP:FB
57 C744           JMPa 4C       absolute   A:0 X:0 Y:0 P:27 SP:FB
62 C74B            NOP EA        implied   A:0 X:0 Y:0 P:27 SP:FB
65 C74C            CLC 18        implied   A:0 X:0 Y:0 P:27 SP:FB
68 C74D            BCC 90      immediate   A:0 X:0 Y:0 P:26 SP:FB
71 C753            NOP EA        implied   A:0 X:0 Y:0 P:26 SP:FB
74 C754            LDA A9      immediate   A:0 X:0 Y:0 P:26 SP:FB
77 C756            BEQ F0      immediate   A:0 X:0 Y:0 P:26 SP:FB
80 C75C            NOP EA        implied   A:0 X:0 Y:0 P:26 SP:FB
83 C75D            LDA A9      immediate   A:0 X:0 Y:0 P:26 SP:FB
86 C75F            BEQ F0      immediate   A:40 X:0 Y:0 P:24 SP:FB
89 C761           JMPa 4C       absolute   A:40 X:0 Y:0 P:24 SP:FB
94 C768            NOP EA        implied   A:40 X:0 Y:0 P:24 SP:FB
97 C769            LDA A9      immediate   A:40 X:0 Y:0 P:24 SP:FB
100 C76B            BNE D0      immediate   A:40 X:0 Y:0 P:24 SP:FB
103 C771            NOP EA        implied   A:40 X:0 Y:0 P:24 SP:FB
106 C772            LDA A9      immediate   A:40 X:0 Y:0 P:24 SP:FB
109 C774            BNE D0      immediate   A:0 X:0 Y:0 P:26 SP:FB
112 C776           JMPa 4C       absolute   A:0 X:0 Y:0 P:26 SP:FB
117 C77D            NOP EA        implied   A:0 X:0 Y:0 P:26 SP:FB
120 C77E            LDA A9      immediate   A:0 X:0 Y:0 P:26 SP:FB
123 C780            STA 85       zeropage   A:FF X:0 Y:0 P:A4 SP:FB
127 C782            BIT 24       zeropage   A:FF X:0 Y:0 P:A4 SP:FB
131 C784            BVS 70      immediate   A:FF X:0 Y:0 P:E4 SP:FB
134 C78A            NOP EA        implied   A:FF X:0 Y:0 P:E4 SP:FB
137 C78B            BIT 24       zeropage   A:FF X:0 Y:0 P:E4 SP:FB
141 C78D            BVC 50      immediate   A:FF X:0 Y:0 P:E4 SP:FB
144 C78F           JMPa 4C       absolute   A:FF X:0 Y:0 P:E4 SP:FB
149 C796            NOP EA        implied   A:FF X:0 Y:0 P:E4 SP:FB
152 C797            LDA A9      immediate   A:FF X:0 Y:0 P:E4 SP:FB
155 C799            STA 85       zeropage   A:0 X:0 Y:0 P:66 SP:FB
159 C79B            BIT 24       zeropage   A:0 X:0 Y:0 P:66 SP:FB
163 C79D            BVC 50      immediate   A:0 X:0 Y:0 P:26 SP:FB
166 C7A3            NOP EA        implied   A:0 X:0 Y:0 P:26 SP:FB
169 C7A4            BIT 24       zeropage   A:0 X:0 Y:0 P:26 SP:FB
173 C7A6            BVS 70      immediate   A:0 X:0 Y:0 P:26 SP:FB
176 C7A8           JMPa 4C       absolute   A:0 X:0 Y:0 P:26 SP:FB
181 C7AF            NOP EA        implied   A:0 X:0 Y:0 P:26 SP:FB
184 C7B0            LDA A9      immediate   A:0 X:0 Y:0 P:26 SP:FB
187 C7B2            BPL 10      immediate   A:0 X:0 Y:0 P:26 SP:FB
190 C7B8            NOP EA        implied   A:0 X:0 Y:0 P:26 SP:FB
193 C7B9            LDA A9      immediate   A:0 X:0 Y:0 P:26 SP:FB
196 C7BB            BPL 10      immediate   A:80 X:0 Y:0 P:A4 SP:FB
199 C7BD           JMPa 4C       absolute   A:80 X:0 Y:0 P:A4 SP:FB
204 C7D9            NOP EA        implied   A:80 X:0 Y:0 P:A4 SP:FB
207 C7DA            RTS 60        implied   A:80 X:0 Y:0 P:A4 SP:FB
214 C600            JSR 20       absolute   A:80 X:0 Y:0 P:A4 SP:FD
219 C7DB            NOP EA        implied   A:80 X:0 Y:0 P:A4 SP:FB
222 C7DC            LDA A9      immediate   A:80 X:0 Y:0 P:A4 SP:FB
225 C7DE            STA 85       zeropage   A:FF X:0 Y:0 P:A4 SP:FB
229 C7E0            BIT 24       zeropage   A:FF X:0 Y:0 P:A4 SP:FB
233 C7E2            LDA A9      immediate   A:FF X:0 Y:0 P:E4 SP:FB
236 C7E4            SEC 38        implied   A:0 X:0 Y:0 P:66 SP:FB
239 C7E5            SEI 78        implied   A:0 X:0 Y:0 P:67 SP:FB
242 C7E6            SED F8        implied   A:0 X:0 Y:0 P:67 SP:FB
245 C7E7            PHP 8        implied   A:0 X:0 Y:0 P:6F SP:FB
249 C7E8            PLA 68        implied   A:0 X:0 Y:0 P:6F SP:FA
254 C7E9            AND 29      immediate   A:7F X:0 Y:0 P:6D SP:FB
257 C7EB            CMP C9      immediate   A:6F X:0 Y:0 P:6D SP:FB
260 C7ED            BEQ F0      immediate   A:6F X:0 Y:0 P:6F SP:FB
263 C7F3            NOP EA        implied   A:6F X:0 Y:0 P:6F SP:FB
266 C7F4            LDA A9      immediate   A:6F X:0 Y:0 P:6F SP:FB
269 C7F6            STA 85       zeropage   A:40 X:0 Y:0 P:6D SP:FB
273 C7F8            BIT 24       zeropage   A:40 X:0 Y:0 P:6D SP:FB
277 C7FA            CLD D8        implied   A:40 X:0 Y:0 P:6D SP:FB
280 C7FB            LDA A9      immediate   A:40 X:0 Y:0 P:65 SP:FB
283 C7FD            CLC 18        implied   A:10 X:0 Y:0 P:65 SP:FB
286 C7FE            PHP 8        implied   A:10 X:0 Y:0 P:64 SP:FB
290 C7FF            PLA 68        implied   A:10 X:0 Y:0 P:64 SP:FA
295 C800            AND 29      immediate   A:74 X:0 Y:0 P:64 SP:FB
298 C802            CMP C9      immediate   A:64 X:0 Y:0 P:64 SP:FB
301 C804            BEQ F0      immediate   A:64 X:0 Y:0 P:67 SP:FB
304 C80A            NOP EA        implied   A:64 X:0 Y:0 P:67 SP:FB
307 C80B            LDA A9      immediate   A:64 X:0 Y:0 P:67 SP:FB
310 C80D            STA 85       zeropage   A:80 X:0 Y:0 P:E5 SP:FB
314 C80F            BIT 24       zeropage   A:80 X:0 Y:0 P:E5 SP:FB
318 C811            SED F8        implied   A:80 X:0 Y:0 P:A5 SP:FB
321 C812            LDA A9      immediate   A:80 X:0 Y:0 P:AD SP:FB
324 C814            SEC 38        implied   A:0 X:0 Y:0 P:2F SP:FB
327 C815            PHP 8        implied   A:0 X:0 Y:0 P:2F SP:FB
331 C816            PLA 68        implied   A:0 X:0 Y:0 P:2F SP:FA
336 C817            AND 29      immediate   A:3F X:0 Y:0 P:2D SP:FB
339 C819            CMP C9      immediate   A:2F X:0 Y:0 P:2D SP:FB
342 C81B            BEQ F0      immediate   A:2F X:0 Y:0 P:2F SP:FB
345 C821            NOP EA        implied   A:2F X:0 Y:0 P:2F SP:FB
348 C822            LDA A9      immediate   A:2F X:0 Y:0 P:2F SP:FB
351 C824            PHA 48        implied   A:FF X:0 Y:0 P:AD SP:FB
355 C825            PLP 28        implied   A:FF X:0 Y:0 P:AD SP:FA
360 C826            BNE D0      immediate   A:FF X:0 Y:0 P:FF SP:FB
363 C828            BPL 10      immediate   A:FF X:0 Y:0 P:FF SP:FB
366 C82A            BVC 50      immediate   A:FF X:0 Y:0 P:FF SP:FB
369 C82C            BCC 90      immediate   A:FF X:0 Y:0 P:FF SP:FB
372 C82E           JMPa 4C       absolute   A:FF X:0 Y:0 P:FF SP:FB
377 C835            NOP EA        implied   A:FF X:0 Y:0 P:FF SP:FB
380 C836            LDA A9      immediate   A:FF X:0 Y:0 P:FF SP:FB
383 C838            PHA 48        implied   A:4 X:0 Y:0 P:7D SP:FB
387 C839            PLP 28        implied   A:4 X:0 Y:0 P:7D SP:FA
392 C83A            BEQ F0      immediate   A:4 X:0 Y:0 P:4 SP:FB
395 C83C            BMI 30      immediate   A:4 X:0 Y:0 P:4 SP:FB
398 C83E            BVS 70      immediate   A:4 X:0 Y:0 P:4 SP:FB
401 C840            BCS B0      immediate   A:4 X:0 Y:0 P:4 SP:FB
404 C842           JMPa 4C       absolute   A:4 X:0 Y:0 P:4 SP:FB
409 C849            NOP EA        implied   A:4 X:0 Y:0 P:4 SP:FB
412 C84A            SED F8        implied   A:4 X:0 Y:0 P:4 SP:FB
415 C84B            LDA A9      immediate   A:4 X:0 Y:0 P:C SP:FB
418 C84D            STA 85       zeropage   A:FF X:0 Y:0 P:8C SP:FB
422 C84F            BIT 24       zeropage   A:FF X:0 Y:0 P:8C SP:FB
426 C851            CLC 18        implied   A:FF X:0 Y:0 P:CC SP:FB
429 C852            LDA A9      immediate   A:FF X:0 Y:0 P:CC SP:FB
432 C854            PHA 48        implied   A:0 X:0 Y:0 P:4E SP:FB
436 C855            LDA A9      immediate   A:0 X:0 Y:0 P:4E SP:FA
439 C857            PLA 68        implied   A:FF X:0 Y:0 P:CC SP:FA
444 C858            BNE D0      immediate   A:0 X:0 Y:0 P:4E SP:FB
447 C85A            BMI 30      immediate   A:0 X:0 Y:0 P:4E SP:FB
450 C85C            BVC 50      immediate   A:0 X:0 Y:0 P:4E SP:FB
453 C85E            BCS B0      immediate   A:0 X:0 Y:0 P:4E SP:FB
456 C860           JMPa 4C       absolute   A:0 X:0 Y:0 P:4E SP:FB
461 C867            NOP EA        implied   A:0 X:0 Y:0 P:4E SP:FB
464 C868            LDA A9      immediate   A:0 X:0 Y:0 P:4E SP:FB
467 C86A            STA 85       zeropage   A:0 X:0 Y:0 P:4E SP:FB
471 C86C            BIT 24       zeropage   A:0 X:0 Y:0 P:4E SP:FB
475 C86E            SEC 38        implied   A:0 X:0 Y:0 P:E SP:FB
478 C86F            LDA A9      immediate   A:0 X:0 Y:0 P:F SP:FB
481 C871            PHA 48        implied   A:FF X:0 Y:0 P:8D SP:FB
485 C872            LDA A9      immediate   A:FF X:0 Y:0 P:8D SP:FA
488 C874            PLA 68        implied   A:0 X:0 Y:0 P:F SP:FA
493 C875            BEQ F0      immediate   A:FF X:0 Y:0 P:8D SP:FB
496 C877            BPL 10      immediate   A:FF X:0 Y:0 P:8D SP:FB
499 C879            BVS 70      immediate   A:FF X:0 Y:0 P:8D SP:FB
502 C87B            BCC 90      immediate   A:FF X:0 Y:0 P:8D SP:FB
505 C87D           JMPa 4C       absolute   A:FF X:0 Y:0 P:8D SP:FB
510 C884            RTS 60        implied   A:FF X:0 Y:0 P:8D SP:FB
517 C603            JSR 20       absolute   A:FF X:0 Y:0 P:8D SP:FD
522 C885            NOP EA        implied   A:FF X:0 Y:0 P:8D SP:FB
525 C886            CLC 18        implied   A:FF X:0 Y:0 P:8D SP:FB
528 C887            LDA A9      immediate   A:FF X:0 Y:0 P:8C SP:FB
531 C889            STA 85       zeropage   A:FF X:0 Y:0 P:8C SP:FB
535 C88B            BIT 24       zeropage   A:FF X:0 Y:0 P:8C SP:FB
539 C88D            LDA A9      immediate   A:FF X:0 Y:0 P:CC SP:FB
542 C88F            ORA 9      immediate   A:55 X:0 Y:0 P:4C SP:FB
545 C891            BCS B0      immediate   A:FF X:0 Y:0 P:CC SP:FB
548 C893            BPL 10      immediate   A:FF X:0 Y:0 P:CC SP:FB
551 C895            CMP C9      immediate   A:FF X:0 Y:0 P:CC SP:FB
554 C897            BNE D0      immediate   A:FF X:0 Y:0 P:4F SP:FB
557 C899            BVC 50      immediate   A:FF X:0 Y:0 P:4F SP:FB
560 C89B           JMPa 4C       absolute   A:FF X:0 Y:0 P:4F SP:FB
565 C8A2            NOP EA        implied   A:FF X:0 Y:0 P:4F SP:FB
568 C8A3            SEC 38        implied   A:FF X:0 Y:0 P:4F SP:FB
571 C8A4            CLV B8        implied   A:FF X:0 Y:0 P:4F SP:FB
574 C8A5            LDA A9      immediate   A:FF X:0 Y:0 P:F SP:FB
577 C8A7            ORA 9      immediate   A:0 X:0 Y:0 P:F SP:FB
580 C8A9            BNE D0      immediate   A:0 X:0 Y:0 P:F SP:FB
583 C8AB            BVS 70      immediate   A:0 X:0 Y:0 P:F SP:FB
586 C8AD            BCC 90      immediate   A:0 X:0 Y:0 P:F SP:FB
589 C8AF            BMI 30      immediate   A:0 X:0 Y:0 P:F SP:FB
592 C8B1           JMPa 4C       absolute   A:0 X:0 Y:0 P:F SP:FB
597 C8B8            NOP EA        implied   A:0 X:0 Y:0 P:F SP:FB
600 C8B9            CLC 18        implied   A:0 X:0 Y:0 P:F SP:FB
603 C8BA            BIT 24       zeropage   A:0 X:0 Y:0 P:E SP:FB
607 C8BC            LDA A9      immediate   A:0 X:0 Y:0 P:CE SP:FB
610 C8BE            AND 29      immediate   A:55 X:0 Y:0 P:4C SP:FB
613 C8C0            BNE D0      immediate   A:0 X:0 Y:0 P:4E SP:FB
616 C8C2            BVC 50      immediate   A:0 X:0 Y:0 P:4E SP:FB
619 C8C4            BCS B0      immediate   A:0 X:0 Y:0 P:4E SP:FB
622 C8C6            BMI 30      immediate   A:0 X:0 Y:0 P:4E SP:FB
625 C8C8           JMPa 4C       absolute   A:0 X:0 Y:0 P:4E SP:FB
630 C8CF            NOP EA        implied   A:0 X:0 Y:0 P:4E SP:FB
633 C8D0            SEC 38        implied   A:0 X:0 Y:0 P:4E SP:FB
636 C8D1            CLV B8        implied   A:0 X:0 Y:0 P:4F SP:FB
639 C8D2            LDA A9      immediate   A:0 X:0 Y:0 P:F SP:FB
642 C8D4            AND 29      immediate   A:F8 X:0 Y:0 P:8D SP:FB
645 C8D6            BCC 90      immediate   A:E8 X:0 Y:0 P:8D SP:FB
648 C8D8            BPL 10      immediate   A:E8 X:0 Y:0 P:8D SP:FB
651 C8DA            CMP C9      immediate   A:E8 X:0 Y:0 P:8D SP:FB
654 C8DC            BNE D0      immediate   A:E8 X:0 Y:0 P:F SP:FB
657 C8DE            BVS 70      immediate   A:E8 X:0 Y:0 P:F SP:FB
660 C8E0           JMPa 4C       absolute   A:E8 X:0 Y:0 P:F SP:FB
665 C8E7            NOP EA        implied   A:E8 X:0 Y:0 P:F SP:FB
668 C8E8            CLC 18        implied   A:E8 X:0 Y:0 P:F SP:FB
671 C8E9            BIT 24       zeropage   A:E8 X:0 Y:0 P:E SP:FB
675 C8EB            LDA A9      immediate   A:E8 X:0 Y:0 P:CC SP:FB
678 C8ED            EOR 49      immediate   A:5F X:0 Y:0 P:4C SP:FB
681 C8EF            BCS B0      immediate   A:F5 X:0 Y:0 P:CC SP:FB
684 C8F1            BPL 10      immediate   A:F5 X:0 Y:0 P:CC SP:FB
687 C8F3            CMP C9      immediate   A:F5 X:0 Y:0 P:CC SP:FB
690 C8F5            BNE D0      immediate   A:F5 X:0 Y:0 P:4F SP:FB
693 C8F7            BVC 50      immediate   A:F5 X:0 Y:0 P:4F SP:FB
696 C8F9           JMPa 4C       absolute   A:F5 X:0 Y:0 P:4F SP:FB
701 C900            NOP EA        implied   A:F5 X:0 Y:0 P:4F SP:FB
704 C901            SEC 38        implied   A:F5 X:0 Y:0 P:4F SP:FB
707 C902            CLV B8        implied   A:F5 X:0 Y:0 P:4F SP:FB
710 C903            LDA A9      immediate   A:F5 X:0 Y:0 P:F SP:FB
713 C905            EOR 49      immediate   A:70 X:0 Y:0 P:D SP:FB
716 C907            BNE D0      immediate   A:0 X:0 Y:0 P:F SP:FB
719 C909            BVS 70      immediate   A:0 X:0 Y:0 P:F SP:FB
722 C90B            BCC 90      immediate   A:0 X:0 Y:0 P:F SP:FB
725 C90D            BMI 30      immediate   A:0 X:0 Y:0 P:F SP:FB
728 C90F           JMPa 4C       absolute   A:0 X:0 Y:0 P:F SP:FB
733 C916            NOP EA        implied   A:0 X:0 Y:0 P:F SP:FB
736 C917            CLC 18        implied   A:0 X:0 Y:0 P:F SP:FB
739 C918            BIT 24       zeropage   A:0 X:0 Y:0 P:E SP:FB
743 C91A            LDA A9      immediate   A:0 X:0 Y:0 P:CE SP:FB
746 C91C            ADC 69      immediate   A:0 X:0 Y:0 P:4E SP:FB
749 C91E            BMI 30      immediate   A:69 X:0 Y:0 P:C SP:FB
752 C920            BCS B0      immediate   A:69 X:0 Y:0 P:C SP:FB
755 C922            CMP C9      immediate   A:69 X:0 Y:0 P:C SP:FB
758 C924            BNE D0      immediate   A:69 X:0 Y:0 P:F SP:FB
761 C926            BVS 70      immediate   A:69 X:0 Y:0 P:F SP:FB
764 C928           JMPa 4C       absolute   A:69 X:0 Y:0 P:F SP:FB
769 C92F            NOP EA        implied   A:69 X:0 Y:0 P:F SP:FB
772 C930            SEC 38        implied   A:69 X:0 Y:0 P:F SP:FB
775 C931            SED F8        implied   A:69 X:0 Y:0 P:F SP:FB
778 C932            BIT 24       zeropage   A:69 X:0 Y:0 P:F SP:FB
782 C934            LDA A9      immediate   A:69 X:0 Y:0 P:CD SP:FB
785 C936            ADC 69      immediate   A:1 X:0 Y:0 P:4D SP:FB
788 C938            BMI 30      immediate   A:6B X:0 Y:0 P:C SP:FB
791 C93A            BCS B0      immediate   A:6B X:0 Y:0 P:C SP:FB
794 C93C            CMP C9      immediate   A:6B X:0 Y:0 P:C SP:FB
797 C93E            BNE D0      immediate   A:6B X:0 Y:0 P:F SP:FB
800 C940            BVS 70      immediate   A:6B X:0 Y:0 P:F SP:FB
803 C942           JMPa 4C       absolute   A:6B X:0 Y:0 P:F SP:FB
808 C949            NOP EA        implied   A:6B X:0 Y:0 P:F SP:FB
811 C94A            CLD D8        implied   A:6B X:0 Y:0 P:F SP:FB
814 C94B            SEC 38        implied   A:6B X:0 Y:0 P:7 SP:FB
817 C94C            CLV B8        implied   A:6B X:0 Y:0 P:7 SP:FB
820 C94D            LDA A9      immediate   A:6B X:0 Y:0 P:7 SP:FB
823 C94F            ADC 69      immediate   A:7F X:0 Y:0 P:5 SP:FB
826 C951            BPL 10      immediate   A:FF X:0 Y:0 P:C4 SP:FB
829 C953            BCS B0      immediate   A:FF X:0 Y:0 P:C4 SP:FB
832 C955            CMP C9      immediate   A:FF X:0 Y:0 P:C4 SP:FB
835 C957            BNE D0      immediate   A:FF X:0 Y:0 P:47 SP:FB
838 C959            BVC 50      immediate   A:FF X:0 Y:0 P:47 SP:FB
841 C95B           JMPa 4C       absolute   A:FF X:0 Y:0 P:47 SP:FB
846 C962            NOP EA        implied   A:FF X:0 Y:0 P:47 SP:FB
849 C963            CLC 18        implied   A:FF X:0 Y:0 P:47 SP:FB
852 C964            BIT 24       zeropage   A:FF X:0 Y:0 P:46 SP:FB
856 C966            LDA A9      immediate   A:FF X:0 Y:0 P:C4 SP:FB
859 C968            ADC 69      immediate   A:7F X:0 Y:0 P:44 SP:FB
862 C96A            BPL 10      immediate   A:FF X:0 Y:0 P:84 SP:FB
865 C96C            BCS B0      immediate   A:FF X:0 Y:0 P:84 SP:FB
868 C96E            CMP C9      immediate   A:FF X:0 Y:0 P:84 SP:FB
871 C970            BNE D0      immediate   A:FF X:0 Y:0 P:7 SP:FB
874 C972            BVS 70      immediate   A:FF X:0 Y:0 P:7 SP:FB
877 C974           JMPa 4C       absolute   A:FF X:0 Y:0 P:7 SP:FB
882 C97B            NOP EA        implied   A:FF X:0 Y:0 P:7 SP:FB
885 C97C            SEC 38        implied   A:FF X:0 Y:0 P:7 SP:FB
888 C97D            CLV B8        implied   A:FF X:0 Y:0 P:7 SP:FB
891 C97E            LDA A9      immediate   A:FF X:0 Y:0 P:7 SP:FB
894 C980            ADC 69      immediate   A:7F X:0 Y:0 P:5 SP:FB
897 C982            BNE D0      immediate   A:0 X:0 Y:0 P:7 SP:FB
900 C984            BMI 30      immediate   A:0 X:0 Y:0 P:7 SP:FB
903 C986            BVS 70      immediate   A:0 X:0 Y:0 P:7 SP:FB
906 C988            BCC 90      immediate   A:0 X:0 Y:0 P:7 SP:FB
909 C98A           JMPa 4C       absolute   A:0 X:0 Y:0 P:7 SP:FB
914 C991            NOP EA        implied   A:0 X:0 Y:0 P:7 SP:FB
917 C992            SEC 38        implied   A:0 X:0 Y:0 P:7 SP:FB
920 C993            CLV B8        implied   A:0 X:0 Y:0 P:7 SP:FB
923 C994            LDA A9      immediate   A:0 X:0 Y:0 P:7 SP:FB
926 C996            BEQ F0      immediate   A:9F X:0 Y:0 P:85 SP:FB
929 C998            BPL 10      immediate   A:9F X:0 Y:0 P:85 SP:FB
932 C99A            BVS 70      immediate   A:9F X:0 Y:0 P:85 SP:FB
935 C99C            BCC 90      immediate   A:9F X:0 Y:0 P:85 SP:FB
938 C99E           JMPa 4C       absolute   A:9F X:0 Y:0 P:85 SP:FB
943 C9A5            NOP EA        implied   A:9F X:0 Y:0 P:85 SP:FB
946 C9A6            CLC 18        implied   A:9F X:0 Y:0 P:85 SP:FB
949 C9A7            BIT 24       zeropage   A:9F X:0 Y:0 P:84 SP:FB
953 C9A9            LDA A9      immediate   A:9F X:0 Y:0 P:C4 SP:FB
956 C9AB            BNE D0      immediate   A:0 X:0 Y:0 P:46 SP:FB
959 C9AD            BMI 30      immediate   A:0 X:0 Y:0 P:46 SP:FB
962 C9AF            BVC 50      immediate   A:0 X:0 Y:0 P:46 SP:FB
965 C9B1            BCS B0      immediate   A:0 X:0 Y:0 P:46 SP:FB
968 C9B3           JMPa 4C       absolute   A:0 X:0 Y:0 P:46 SP:FB
973 C9BA            NOP EA        implied   A:0 X:0 Y:0 P:46 SP:FB
976 C9BB            BIT 24       zeropage   A:0 X:0 Y:0 P:46 SP:FB
980 C9BD            LDA A9      immediate   A:0 X:0 Y:0 P:C6 SP:FB
983 C9BF            CMP C9      immediate   A:40 X:0 Y:0 P:44 SP:FB
986 C9C1            BMI 30      immediate   A:40 X:0 Y:0 P:47 SP:FB
989 C9C3            BCC 90      immediate   A:40 X:0 Y:0 P:47 SP:FB
992 C9C5            BNE D0      immediate   A:40 X:0 Y:0 P:47 SP:FB
995 C9C7            BVC 50      immediate   A:40 X:0 Y:0 P:47 SP:FB
998 C9C9           JMPa 4C       absolute   A:40 X:0 Y:0 P:47 SP:FB
1003 C9D0            NOP EA        implied   A:40 X:0 Y:0 P:47 SP:FB
1006 C9D1            CLV B8        implied   A:40 X:0 Y:0 P:47 SP:FB
1009 C9D2            CMP C9      immediate   A:40 X:0 Y:0 P:7 SP:FB
1012 C9D4            BEQ F0      immediate   A:40 X:0 Y:0 P:5 SP:FB
1015 C9D6            BMI 30      immediate   A:40 X:0 Y:0 P:5 SP:FB
1018 C9D8            BCC 90      immediate   A:40 X:0 Y:0 P:5 SP:FB
1021 C9DA            BVS 70      immediate   A:40 X:0 Y:0 P:5 SP:FB
1024 C9DC           JMPa 4C       absolute   A:40 X:0 Y:0 P:5 SP:FB
1029 C9E3            NOP EA        implied   A:40 X:0 Y:0 P:5 SP:FB
1032 C9E4            CMP C9      immediate   A:40 X:0 Y:0 P:5 SP:FB
1035 C9E6            BEQ F0      immediate   A:40 X:0 Y:0 P:84 SP:FB
1038 C9E8            BPL 10      immediate   A:40 X:0 Y:0 P:84 SP:FB
1041 C9EA            BPL 10      immediate   A:40 X:0 Y:0 P:84 SP:FB
1044 C9EC           JMPa 4C       absolute   A:40 X:0 Y:0 P:84 SP:FB
1049 C9F3            NOP EA        implied   A:40 X:0 Y:0 P:84 SP:FB
1052 C9F4            LDA A9      immediate   A:40 X:0 Y:0 P:84 SP:FB
1055 C9F6            CMP C9      immediate   A:80 X:0 Y:0 P:84 SP:FB
1058 C9F8            BEQ F0      immediate   A:80 X:0 Y:0 P:85 SP:FB
1061 C9FA            BPL 10      immediate   A:80 X:0 Y:0 P:85 SP:FB
1064 C9FC            BCC 90      immediate   A:80 X:0 Y:0 P:85 SP:FB
1067 C9FE           JMPa 4C       absolute   A:80 X:0 Y:0 P:85 SP:FB
1072 CA05            NOP EA        implied   A:80 X:0 Y:0 P:85 SP:FB
1075 CA06            CMP C9      immediate   A:80 X:0 Y:0 P:85 SP:FB
1078 CA08            BNE D0      immediate   A:80 X:0 Y:0 P:7 SP:FB
1081 CA0A            BMI 30      immediate   A:80 X:0 Y:0 P:7 SP:FB
1084 CA0C            BCC 90      immediate   A:80 X:0 Y:0 P:7 SP:FB
1087 CA0E           JMPa 4C       absolute   A:80 X:0 Y:0 P:7 SP:FB
1092 CA15            NOP EA        implied   A:80 X:0 Y:0 P:7 SP:FB
1095 CA16            CMP C9      immediate   A:80 X:0 Y:0 P:7 SP:FB
1098 CA18            BCS B0      immediate   A:80 X:0 Y:0 P:84 SP:FB
1101 CA1A            BEQ F0      immediate   A:80 X:0 Y:0 P:84 SP:FB
1104 CA1C            BPL 10      immediate   A:80 X:0 Y:0 P:84 SP:FB
1107 CA1E           JMPa 4C       absolute   A:80 X:0 Y:0 P:84 SP:FB
1112 CA25            NOP EA        implied   A:80 X:0 Y:0 P:84 SP:FB
1115 CA26            CMP C9      immediate   A:80 X:0 Y:0 P:84 SP:FB
1118 CA28            BCC 90      immediate   A:80 X:0 Y:0 P:5 SP:FB
1121 CA2A            BEQ F0      immediate   A:80 X:0 Y:0 P:5 SP:FB
1124 CA2C            BMI 30      immediate   A:80 X:0 Y:0 P:5 SP:FB
1127 CA2E           JMPa 4C       absolute   A:80 X:0 Y:0 P:5 SP:FB
1132 CA35            NOP EA        implied   A:80 X:0 Y:0 P:5 SP:FB
1135 CA36            BIT 24       zeropage   A:80 X:0 Y:0 P:5 SP:FB
1139 CA38            LDY A0      immediate   A:80 X:0 Y:0 P:C5 SP:FB
1142 CA3A            CPY C0      immediate   A:80 X:0 Y:40 P:45 SP:FB
1145 CA3C            BNE D0      immediate   A:80 X:0 Y:40 P:47 SP:FB
1148 CA3E            BMI 30      immediate   A:80 X:0 Y:40 P:47 SP:FB
1151 CA40            BCC 90      immediate   A:80 X:0 Y:40 P:47 SP:FB
1154 CA42            BVC 50      immediate   A:80 X:0 Y:40 P:47 SP:FB
1157 CA44           JMPa 4C       absolute   A:80 X:0 Y:40 P:47 SP:FB
1162 CA4B            NOP EA        implied   A:80 X:0 Y:40 P:47 SP:FB
1165 CA4C            CLV B8        implied   A:80 X:0 Y:40 P:47 SP:FB
1168 CA4D            CPY C0      immediate   A:80 X:0 Y:40 P:7 SP:FB
1171 CA4F            BEQ F0      immediate   A:80 X:0 Y:40 P:5 SP:FB
1174 CA51            BMI 30      immediate   A:80 X:0 Y:40 P:5 SP:FB
1177 CA53            BCC 90      immediate   A:80 X:0 Y:40 P:5 SP:FB
1180 CA55            BVS 70      immediate   A:80 X:0 Y:40 P:5 SP:FB
1183 CA57           JMPa 4C       absolute   A:80 X:0 Y:40 P:5 SP:FB
1188 CA5E            NOP EA        implied   A:80 X:0 Y:40 P:5 SP:FB
1191 CA5F            CPY C0      immediate   A:80 X:0 Y:40 P:5 SP:FB
1194 CA61            BEQ F0      immediate   A:80 X:0 Y:40 P:84 SP:FB
1197 CA63            BPL 10      immediate   A:80 X:0 Y:40 P:84 SP:FB
1200 CA65            BPL 10      immediate   A:80 X:0 Y:40 P:84 SP:FB
1203 CA67           JMPa 4C       absolute   A:80 X:0 Y:40 P:84 SP:FB
1208 CA6E            NOP EA        implied   A:80 X:0 Y:40 P:84 SP:FB
1211 CA6F            LDY A0      immediate   A:80 X:0 Y:40 P:84 SP:FB
1214 CA71            CPY C0      immediate   A:80 X:0 Y:80 P:84 SP:FB
1217 CA73            BEQ F0      immediate   A:80 X:0 Y:80 P:85 SP:FB
1220 CA75            BPL 10      immediate   A:80 X:0 Y:80 P:85 SP:FB
1223 CA77            BCC 90      immediate   A:80 X:0 Y:80 P:85 SP:FB
1226 CA79           JMPa 4C       absolute   A:80 X:0 Y:80 P:85 SP:FB
1231 CA80            NOP EA        implied   A:80 X:0 Y:80 P:85 SP:FB
1234 CA81            CPY C0      immediate   A:80 X:0 Y:80 P:85 SP:FB
1237 CA83            BNE D0      immediate   A:80 X:0 Y:80 P:7 SP:FB
1240 CA85            BMI 30      immediate   A:80 X:0 Y:80 P:7 SP:FB
1243 CA87            BCC 90      immediate   A:80 X:0 Y:80 P:7 SP:FB
1246 CA89           JMPa 4C       absolute   A:80 X:0 Y:80 P:7 SP:FB
1251 CA90            NOP EA        implied   A:80 X:0 Y:80 P:7 SP:FB
1254 CA91            CPY C0      immediate   A:80 X:0 Y:80 P:7 SP:FB
1257 CA93            BCS B0      immediate   A:80 X:0 Y:80 P:84 SP:FB
1260 CA95            BEQ F0      immediate   A:80 X:0 Y:80 P:84 SP:FB
1263 CA97            BPL 10      immediate   A:80 X:0 Y:80 P:84 SP:FB
1266 CA99           JMPa 4C       absolute   A:80 X:0 Y:80 P:84 SP:FB
1271 CAA0            NOP EA        implied   A:80 X:0 Y:80 P:84 SP:FB
1274 CAA1            CPY C0      immediate   A:80 X:0 Y:80 P:84 SP:FB
1277 CAA3            BCC 90      immediate   A:80 X:0 Y:80 P:5 SP:FB
1280 CAA5            BEQ F0      immediate   A:80 X:0 Y:80 P:5 SP:FB
1283 CAA7            BMI 30      immediate   A:80 X:0 Y:80 P:5 SP:FB
1286 CAA9           JMPa 4C       absolute   A:80 X:0 Y:80 P:5 SP:FB
1291 CAB0            NOP EA        implied   A:80 X:0 Y:80 P:5 SP:FB
1294 CAB1            BIT 24       zeropage   A:80 X:0 Y:80 P:5 SP:FB
1298 CAB3            LDX A2      immediate   A:80 X:0 Y:80 P:C5 SP:FB
1301 CAB5            CPX E0      immediate   A:80 X:40 Y:80 P:45 SP:FB
1304 CAB7            BNE D0      immediate   A:80 X:40 Y:80 P:47 SP:FB
1307 CAB9            BMI 30      immediate   A:80 X:40 Y:80 P:47 SP:FB
1310 CABB            BCC 90      immediate   A:80 X:40 Y:80 P:47 SP:FB
1313 CABD            BVC 50      immediate   A:80 X:40 Y:80 P:47 SP:FB
1316 CABF           JMPa 4C       absolute   A:80 X:40 Y:80 P:47 SP:FB
1321 CAC6            NOP EA        implied   A:80 X:40 Y:80 P:47 SP:FB
1324 CAC7            CLV B8        implied   A:80 X:40 Y:80 P:47 SP:FB
1327 CAC8            CPX E0      immediate   A:80 X:40 Y:80 P:7 SP:FB
1330 CACA            BEQ F0      immediate   A:80 X:40 Y:80 P:5 SP:FB
1333 CACC            BMI 30      immediate   A:80 X:40 Y:80 P:5 SP:FB
1336 CACE            BCC 90      immediate   A:80 X:40 Y:80 P:5 SP:FB
1339 CAD0            BVS 70      immediate   A:80 X:40 Y:80 P:5 SP:FB
1342 CAD2           JMPa 4C       absolute   A:80 X:40 Y:80 P:5 SP:FB
1347 CAD9            NOP EA        implied   A:80 X:40 Y:80 P:5 SP:FB
1350 CADA            CPX E0      immediate   A:80 X:40 Y:80 P:5 SP:FB
1353 CADC            BEQ F0      immediate   A:80 X:40 Y:80 P:84 SP:FB
1356 CADE            BPL 10      immediate   A:80 X:40 Y:80 P:84 SP:FB
1359 CAE0            BPL 10      immediate   A:80 X:40 Y:80 P:84 SP:FB
1362 CAE2           JMPa 4C       absolute   A:80 X:40 Y:80 P:84 SP:FB
1367 CAE9            NOP EA        implied   A:80 X:40 Y:80 P:84 SP:FB
1370 CAEA            LDX A2      immediate   A:80 X:40 Y:80 P:84 SP:FB
1373 CAEC            CPX E0      immediate   A:80 X:80 Y:80 P:84 SP:FB
1376 CAEE            BEQ F0      immediate   A:80 X:80 Y:80 P:85 SP:FB
1379 CAF0            BPL 10      immediate   A:80 X:80 Y:80 P:85 SP:FB
1382 CAF2            BCC 90      immediate   A:80 X:80 Y:80 P:85 SP:FB
1385 CAF4           JMPa 4C       absolute   A:80 X:80 Y:80 P:85 SP:FB
1390 CAFB            NOP EA        implied   A:80 X:80 Y:80 P:85 SP:FB
1393 CAFC            CPX E0      immediate   A:80 X:80 Y:80 P:85 SP:FB
1396 CAFE            BNE D0      immediate   A:80 X:80 Y:80 P:7 SP:FB
1399 CB00            BMI 30      immediate   A:80 X:80 Y:80 P:7 SP:FB
1402 CB02            BCC 90      immediate   A:80 X:80 Y:80 P:7 SP:FB
1405 CB04           JMPa 4C       absolute   A:80 X:80 Y:80 P:7 SP:FB
1410 CB0B            NOP EA        implied   A:80 X:80 Y:80 P:7 SP:FB
1413 CB0C            CPX E0      immediate   A:80 X:80 Y:80 P:7 SP:FB
1416 CB0E            BCS B0      immediate   A:80 X:80 Y:80 P:84 SP:FB
1419 CB10            BEQ F0      immediate   A:80 X:80 Y:80 P:84 SP:FB
1422 CB12            BPL 10      immediate   A:80 X:80 Y:80 P:84 SP:FB
1425 CB14           JMPa 4C       absolute   A:80 X:80 Y:80 P:84 SP:FB
1430 CB1B            NOP EA        implied   A:80 X:80 Y:80 P:84 SP:FB
1433 CB1C            CPX E0      immediate   A:80 X:80 Y:80 P:84 SP:FB
1436 CB1E            BCC 90      immediate   A:80 X:80 Y:80 P:5 SP:FB
1439 CB20            BEQ F0      immediate   A:80 X:80 Y:80 P:5 SP:FB
1442 CB22            BMI 30      immediate   A:80 X:80 Y:80 P:5 SP:FB
1445 CB24           JMPa 4C       absolute   A:80 X:80 Y:80 P:5 SP:FB
1450 CB2B            NOP EA        implied   A:80 X:80 Y:80 P:5 SP:FB
1453 CB2C            SEC 38        implied   A:80 X:80 Y:80 P:5 SP:FB
1456 CB2D            CLV B8        implied   A:80 X:80 Y:80 P:5 SP:FB
1459 CB2E            LDX A2      immediate   A:80 X:80 Y:80 P:5 SP:FB
1462 CB30            BEQ F0      immediate   A:80 X:9F Y:80 P:85 SP:FB
1465 CB32            BPL 10      immediate   A:80 X:9F Y:80 P:85 SP:FB
1468 CB34            BVS 70      immediate   A:80 X:9F Y:80 P:85 SP:FB
1471 CB36            BCC 90      immediate   A:80 X:9F Y:80 P:85 SP:FB
1474 CB38           JMPa 4C       absolute   A:80 X:9F Y:80 P:85 SP:FB
1479 CB3F            NOP EA        implied   A:80 X:9F Y:80 P:85 SP:FB
1482 CB40            CLC 18        implied   A:80 X:9F Y:80 P:85 SP:FB
1485 CB41            BIT 24       zeropage   A:80 X:9F Y:80 P:84 SP:FB
1489 CB43            LDX A2      immediate   A:80 X:9F Y:80 P:C4 SP:FB
1492 CB45            BNE D0      immediate   A:80 X:0 Y:80 P:46 SP:FB
1495 CB47            BMI 30      immediate   A:80 X:0 Y:80 P:46 SP:FB
1498 CB49            BVC 50      immediate   A:80 X:0 Y:80 P:46 SP:FB
1501 CB4B            BCS B0      immediate   A:80 X:0 Y:80 P:46 SP:FB
1504 CB4D           JMPa 4C       absolute   A:80 X:0 Y:80 P:46 SP:FB
1509 CB54            NOP EA        implied   A:80 X:0 Y:80 P:46 SP:FB
1512 CB55            SEC 38        implied   A:80 X:0 Y:80 P:46 SP:FB
1515 CB56            CLV B8        implied   A:80 X:0 Y:80 P:47 SP:FB
1518 CB57            LDY A0      immediate   A:80 X:0 Y:80 P:7 SP:FB
1521 CB59            BEQ F0      immediate   A:80 X:0 Y:9F P:85 SP:FB
1524 CB5B            BPL 10      immediate   A:80 X:0 Y:9F P:85 SP:FB
1527 CB5D            BVS 70      immediate   A:80 X:0 Y:9F P:85 SP:FB
1530 CB5F            BCC 90      immediate   A:80 X:0 Y:9F P:85 SP:FB
1533 CB61           JMPa 4C       absolute   A:80 X:0 Y:9F P:85 SP:FB
1538 CB68            NOP EA        implied   A:80 X:0 Y:9F P:85 SP:FB
1541 CB69            CLC 18        implied   A:80 X:0 Y:9F P:85 SP:FB
1544 CB6A            BIT 24       zeropage   A:80 X:0 Y:9F P:84 SP:FB
1548 CB6C            LDY A0      immediate   A:80 X:0 Y:9F P:C4 SP:FB
1551 CB6E            BNE D0      immediate   A:80 X:0 Y:0 P:46 SP:FB
1554 CB70            BMI 30      immediate   A:80 X:0 Y:0 P:46 SP:FB
1557 CB72            BVC 50      immediate   A:80 X:0 Y:0 P:46 SP:FB
1560 CB74            BCS B0      immediate   A:80 X:0 Y:0 P:46 SP:FB
1563 CB76           JMPa 4C       absolute   A:80 X:0 Y:0 P:46 SP:FB
1568 CB7D            NOP EA        implied   A:80 X:0 Y:0 P:46 SP:FB
1571 CB7E            LDA A9      immediate   A:80 X:0 Y:0 P:46 SP:FB
1574 CB80            LDX A2      immediate   A:55 X:0 Y:0 P:44 SP:FB
1577 CB82            LDY A0      immediate   A:55 X:AA Y:0 P:C4 SP:FB
1580 CB84            CMP C9      immediate   A:55 X:AA Y:33 P:44 SP:FB
1583 CB86            BNE D0      immediate   A:55 X:AA Y:33 P:47 SP:FB
1586 CB88            CPX E0      immediate   A:55 X:AA Y:33 P:47 SP:FB
1589 CB8A            BNE D0      immediate   A:55 X:AA Y:33 P:47 SP:FB
1592 CB8C            CPY C0      immediate   A:55 X:AA Y:33 P:47 SP:FB
1595 CB8E            BNE D0      immediate   A:55 X:AA Y:33 P:47 SP:FB
1598 CB90            CMP C9      immediate   A:55 X:AA Y:33 P:47 SP:FB
1601 CB92            BNE D0      immediate   A:55 X:AA Y:33 P:47 SP:FB
1604 CB94            CPX E0      immediate   A:55 X:AA Y:33 P:47 SP:FB
1607 CB96            BNE D0      immediate   A:55 X:AA Y:33 P:47 SP:FB
1610 CB98            CPY C0      immediate   A:55 X:AA Y:33 P:47 SP:FB
1613 CB9A            BNE D0      immediate   A:55 X:AA Y:33 P:47 SP:FB
1616 CB9C            CMP C9      immediate   A:55 X:AA Y:33 P:47 SP:FB
1619 CB9E            BEQ F0      immediate   A:55 X:AA Y:33 P:C4 SP:FB
1622 CBA0            CPX E0      immediate   A:55 X:AA Y:33 P:C4 SP:FB
1625 CBA2            BEQ F0      immediate   A:55 X:AA Y:33 P:C4 SP:FB
1628 CBA4            CPY C0      immediate   A:55 X:AA Y:33 P:C4 SP:FB
1631 CBA6            BEQ F0      immediate   A:55 X:AA Y:33 P:C4 SP:FB
1634 CBA8           JMPa 4C       absolute   A:55 X:AA Y:33 P:C4 SP:FB
1639 CBAF            LDY A0      immediate   A:55 X:AA Y:33 P:C4 SP:FB
1642 CBB1            JSR 20       absolute   A:55 X:AA Y:71 P:44 SP:FB
1647 F931            BIT 24       zeropage   A:55 X:AA Y:71 P:44 SP:F9
1651 F933            LDA A9      immediate   A:55 X:AA Y:71 P:C4 SP:F9
1654 F935            SEC 38        implied   A:40 X:AA Y:71 P:44 SP:F9
1657 F936            RTS 60        implied   A:40 X:AA Y:71 P:45 SP:F9
1664 CBB4            SBC E9      immediate   A:40 X:AA Y:71 P:45 SP:FB
1667 CBB6            JSR 20       absolute   A:0 X:AA Y:71 P:7 SP:FB
1672 F937            BMI 30      immediate   A:0 X:AA Y:71 P:7 SP:F9
1675 F939            BCC 90      immediate   A:0 X:AA Y:71 P:7 SP:F9
1678 F93B            BNE D0      immediate   A:0 X:AA Y:71 P:7 SP:F9
1681 F93D            BVS 70      immediate   A:0 X:AA Y:71 P:7 SP:F9
1684 F93F            CMP C9      immediate   A:0 X:AA Y:71 P:7 SP:F9
1687 F941            BNE D0      immediate   A:0 X:AA Y:71 P:7 SP:F9
1690 F943            RTS 60        implied   A:0 X:AA Y:71 P:7 SP:F9
1697 CBB9            INY C8        implied   A:0 X:AA Y:71 P:7 SP:FB
1700 CBBA            JSR 20       absolute   A:0 X:AA Y:72 P:5 SP:FB
1705 F947            CLV B8        implied   A:0 X:AA Y:72 P:5 SP:F9
1708 F948            SEC 38        implied   A:0 X:AA Y:72 P:5 SP:F9
1711 F949            LDA A9      immediate   A:0 X:AA Y:72 P:5 SP:F9
1714 F94B            RTS 60        implied   A:40 X:AA Y:72 P:5 SP:F9
1721 CBBD            SBC E9      immediate   A:40 X:AA Y:72 P:5 SP:FB
1724 CBBF            JSR 20       absolute   A:1 X:AA Y:72 P:5 SP:FB
1729 F94C            BEQ F0      immediate   A:1 X:AA Y:72 P:5 SP:F9
1732 F94E            BMI 30      immediate   A:1 X:AA Y:72 P:5 SP:F9
1735 F950            BCC 90      immediate   A:1 X:AA Y:72 P:5 SP:F9
1738 F952            BVS 70      immediate   A:1 X:AA Y:72 P:5 SP:F9
1741 F954            CMP C9      immediate   A:1 X:AA Y:72 P:5 SP:F9
1744 F956            BNE D0      immediate   A:1 X:AA Y:72 P:7 SP:F9
1747 F958            RTS 60        implied   A:1 X:AA Y:72 P:7 SP:F9
1754 CBC2            INY C8        implied   A:1 X:AA Y:72 P:7 SP:FB
1757 CBC3            JSR 20       absolute   A:1 X:AA Y:73 P:5 SP:FB
1762 F95C            LDA A9      immediate   A:1 X:AA Y:73 P:5 SP:F9
1765 F95E            SEC 38        implied   A:40 X:AA Y:73 P:5 SP:F9
1768 F95F            BIT 24       zeropage   A:40 X:AA Y:73 P:5 SP:F9
1772 F961            RTS 60        implied   A:40 X:AA Y:73 P:C5 SP:F9
1779 CBC6            SBC E9      immediate   A:40 X:AA Y:73 P:C5 SP:FB
1782 CBC8            JSR 20       absolute   A:FF X:AA Y:73 P:84 SP:FB
1787 F962            BCS B0      immediate   A:FF X:AA Y:73 P:84 SP:F9
1790 F964            BEQ F0      immediate   A:FF X:AA Y:73 P:84 SP:F9
1793 F966            BPL 10      immediate   A:FF X:AA Y:73 P:84 SP:F9
1796 F968            BVS 70      immediate   A:FF X:AA Y:73 P:84 SP:F9
1799 F96A            CMP C9      immediate   A:FF X:AA Y:73 P:84 SP:F9
1802 F96C            BNE D0      immediate   A:FF X:AA Y:73 P:7 SP:F9
1805 F96E            RTS 60        implied   A:FF X:AA Y:73 P:7 SP:F9
1812 CBCB            INY C8        implied   A:FF X:AA Y:73 P:7 SP:FB
1815 CBCC            JSR 20       absolute   A:FF X:AA Y:74 P:5 SP:FB
1820 F972            CLC 18        implied   A:FF X:AA Y:74 P:5 SP:F9
1823 F973            LDA A9      immediate   A:FF X:AA Y:74 P:4 SP:F9
1826 F975            RTS 60        implied   A:80 X:AA Y:74 P:84 SP:F9
1833 CBCF            SBC E9      immediate   A:80 X:AA Y:74 P:84 SP:FB
1836 CBD1            JSR 20       absolute   A:7F X:AA Y:74 P:45 SP:FB
1841 F976            BCC 90      immediate   A:7F X:AA Y:74 P:45 SP:F9
1844 F978            CMP C9      immediate   A:7F X:AA Y:74 P:45 SP:F9
1847 F97A            BNE D0      immediate   A:7F X:AA Y:74 P:47 SP:F9
1850 F97C            RTS 60        implied   A:7F X:AA Y:74 P:47 SP:F9
1857 CBD4            INY C8        implied   A:7F X:AA Y:74 P:47 SP:FB
1860 CBD5            JSR 20       absolute   A:7F X:AA Y:75 P:45 SP:FB
1865 F980            SEC 38        implied   A:7F X:AA Y:75 P:45 SP:F9
1868 F981            LDA A9      immediate   A:7F X:AA Y:75 P:45 SP:F9
1871 F983            RTS 60        implied   A:81 X:AA Y:75 P:C5 SP:F9
1878 CBD8            SBC E9      immediate   A:81 X:AA Y:75 P:C5 SP:FB
1881 CBDA            JSR 20       absolute   A:2 X:AA Y:75 P:45 SP:FB
1886 F984            BVC 50      immediate   A:2 X:AA Y:75 P:45 SP:F9
1889 F986            BCC 90      immediate   A:2 X:AA Y:75 P:45 SP:F9
1892 F988            CMP C9      immediate   A:2 X:AA Y:75 P:45 SP:F9
1895 F98A            BNE D0      immediate   A:2 X:AA Y:75 P:47 SP:F9
1898 F98C            RTS 60        implied   A:2 X:AA Y:75 P:47 SP:F9
1905 CBDD            RTS 60        implied   A:2 X:AA Y:75 P:47 SP:FB
1912 C606            JSR 20       absolute   A:2 X:AA Y:75 P:47 SP:FD
1917 CBDE            NOP EA        implied   A:2 X:AA Y:75 P:47 SP:FB
1920 CBDF            LDA A9      immediate   A:2 X:AA Y:75 P:47 SP:FB
1923 CBE1            STA 85       zeropage   A:FF X:AA Y:75 P:C5 SP:FB
1927 CBE3            LDA A9      immediate   A:FF X:AA Y:75 P:C5 SP:FB
1930 CBE5            LDX A2      immediate   A:44 X:AA Y:75 P:45 SP:FB
1933 CBE7            LDY A0      immediate   A:44 X:55 Y:75 P:45 SP:FB
1936 CBE9            INX E8        implied   A:44 X:55 Y:66 P:45 SP:FB
1939 CBEA            DEY 88        implied   A:44 X:56 Y:66 P:45 SP:FB
1942 CBEB            CPX E0      immediate   A:44 X:56 Y:65 P:45 SP:FB
1945 CBED            BNE D0      immediate   A:44 X:56 Y:65 P:47 SP:FB
1948 CBEF            CPY C0      immediate   A:44 X:56 Y:65 P:47 SP:FB
1951 CBF1            BNE D0      immediate   A:44 X:56 Y:65 P:47 SP:FB
1954 CBF3            INX E8        implied   A:44 X:56 Y:65 P:47 SP:FB
1957 CBF4            INX E8        implied   A:44 X:57 Y:65 P:45 SP:FB
1960 CBF5            DEY 88        implied   A:44 X:58 Y:65 P:45 SP:FB
1963 CBF6            DEY 88        implied   A:44 X:58 Y:64 P:45 SP:FB
1966 CBF7            CPX E0      immediate   A:44 X:58 Y:63 P:45 SP:FB
1969 CBF9            BNE D0      immediate   A:44 X:58 Y:63 P:47 SP:FB
1972 CBFB            CPY C0      immediate   A:44 X:58 Y:63 P:47 SP:FB
1975 CBFD            BNE D0      immediate   A:44 X:58 Y:63 P:47 SP:FB
1978 CBFF            DEX CA        implied   A:44 X:58 Y:63 P:47 SP:FB
1981 CC00            INY C8        implied   A:44 X:57 Y:63 P:45 SP:FB
1984 CC01            CPX E0      immediate   A:44 X:57 Y:64 P:45 SP:FB
1987 CC03            BNE D0      immediate   A:44 X:57 Y:64 P:47 SP:FB
1990 CC05            CPY C0      immediate   A:44 X:57 Y:64 P:47 SP:FB
1993 CC07            BNE D0      immediate   A:44 X:57 Y:64 P:47 SP:FB
1996 CC09            CMP C9      immediate   A:44 X:57 Y:64 P:47 SP:FB
1999 CC0B            BNE D0      immediate   A:44 X:57 Y:64 P:47 SP:FB
2002 CC0D           JMPa 4C       absolute   A:44 X:57 Y:64 P:47 SP:FB
2007 CC14            NOP EA        implied   A:44 X:57 Y:64 P:47 SP:FB
2010 CC15            SEC 38        implied   A:44 X:57 Y:64 P:47 SP:FB
2013 CC16            LDX A2      immediate   A:44 X:57 Y:64 P:47 SP:FB
2016 CC18            LDA A9      immediate   A:44 X:69 Y:64 P:45 SP:FB
2019 CC1A            BIT 24       zeropage   A:96 X:69 Y:64 P:C5 SP:FB
2023 CC1C            LDY A0      immediate   A:96 X:69 Y:64 P:C5 SP:FB
2026 CC1E            INY C8        implied   A:96 X:69 Y:FF P:C5 SP:FB
2029 CC1F            BNE D0      immediate   A:96 X:69 Y:0 P:47 SP:FB
2032 CC21            BMI 30      immediate   A:96 X:69 Y:0 P:47 SP:FB
2035 CC23            BCC 90      immediate   A:96 X:69 Y:0 P:47 SP:FB
2038 CC25            BVC 50      immediate   A:96 X:69 Y:0 P:47 SP:FB
2041 CC27            CPY C0      immediate   A:96 X:69 Y:0 P:47 SP:FB
2044 CC29            BNE D0      immediate   A:96 X:69 Y:0 P:47 SP:FB
2047 CC2B            INY C8        implied   A:96 X:69 Y:0 P:47 SP:FB
2050 CC2C            BEQ F0      immediate   A:96 X:69 Y:1 P:45 SP:FB
2053 CC2E            BMI 30      immediate   A:96 X:69 Y:1 P:45 SP:FB
2056 CC30            BCC 90      immediate   A:96 X:69 Y:1 P:45 SP:FB
2059 CC32            BVC 50      immediate   A:96 X:69 Y:1 P:45 SP:FB
2062 CC34            CLC 18        implied   A:96 X:69 Y:1 P:45 SP:FB
2065 CC35            CLV B8        implied   A:96 X:69 Y:1 P:44 SP:FB
2068 CC36            LDY A0      immediate   A:96 X:69 Y:1 P:4 SP:FB
2071 CC38            DEY 88        implied   A:96 X:69 Y:0 P:6 SP:FB
2074 CC39            BEQ F0      immediate   A:96 X:69 Y:FF P:84 SP:FB
2077 CC3B            BPL 10      immediate   A:96 X:69 Y:FF P:84 SP:FB
2080 CC3D            BCS B0      immediate   A:96 X:69 Y:FF P:84 SP:FB
2083 CC3F            BVS 70      immediate   A:96 X:69 Y:FF P:84 SP:FB
2086 CC41            CPY C0      immediate   A:96 X:69 Y:FF P:84 SP:FB
2089 CC43            BNE D0      immediate   A:96 X:69 Y:FF P:7 SP:FB
2092 CC45            CLC 18        implied   A:96 X:69 Y:FF P:7 SP:FB
2095 CC46            DEY 88        implied   A:96 X:69 Y:FF P:6 SP:FB
2098 CC47            BEQ F0      immediate   A:96 X:69 Y:FE P:84 SP:FB
2101 CC49            BPL 10      immediate   A:96 X:69 Y:FE P:84 SP:FB
2104 CC4B            BCS B0      immediate   A:96 X:69 Y:FE P:84 SP:FB
2107 CC4D            BVS 70      immediate   A:96 X:69 Y:FE P:84 SP:FB
2110 CC4F            CPY C0      immediate   A:96 X:69 Y:FE P:84 SP:FB
2113 CC51            BNE D0      immediate   A:96 X:69 Y:FE P:7 SP:FB
2116 CC53            CMP C9      immediate   A:96 X:69 Y:FE P:7 SP:FB
2119 CC55            BNE D0      immediate   A:96 X:69 Y:FE P:7 SP:FB
2122 CC57            CPX E0      immediate   A:96 X:69 Y:FE P:7 SP:FB
2125 CC59            BNE D0      immediate   A:96 X:69 Y:FE P:7 SP:FB
2128 CC5B           JMPa 4C       absolute   A:96 X:69 Y:FE P:7 SP:FB
2133 CC62            NOP EA        implied   A:96 X:69 Y:FE P:7 SP:FB
2136 CC63            SEC 38        implied   A:96 X:69 Y:FE P:7 SP:FB
2139 CC64            LDY A0      immediate   A:96 X:69 Y:FE P:7 SP:FB
2142 CC66            LDA A9      immediate   A:96 X:69 Y:69 P:5 SP:FB
2145 CC68            BIT 24       zeropage   A:96 X:69 Y:69 P:85 SP:FB
2149 CC6A            LDX A2      immediate   A:96 X:69 Y:69 P:C5 SP:FB
2152 CC6C            INX E8        implied   A:96 X:FF Y:69 P:C5 SP:FB
2155 CC6D            BNE D0      immediate   A:96 X:0 Y:69 P:47 SP:FB
2158 CC6F            BMI 30      immediate   A:96 X:0 Y:69 P:47 SP:FB
2161 CC71            BCC 90      immediate   A:96 X:0 Y:69 P:47 SP:FB
2164 CC73            BVC 50      immediate   A:96 X:0 Y:69 P:47 SP:FB
2167 CC75            CPX E0      immediate   A:96 X:0 Y:69 P:47 SP:FB
2170 CC77            BNE D0      immediate   A:96 X:0 Y:69 P:47 SP:FB
2173 CC79            INX E8        implied   A:96 X:0 Y:69 P:47 SP:FB
2176 CC7A            BEQ F0      immediate   A:96 X:1 Y:69 P:45 SP:FB
2179 CC7C            BMI 30      immediate   A:96 X:1 Y:69 P:45 SP:FB
2182 CC7E            BCC 90      immediate   A:96 X:1 Y:69 P:45 SP:FB
2185 CC80            BVC 50      immediate   A:96 X:1 Y:69 P:45 SP:FB
2188 CC82            CLC 18        implied   A:96 X:1 Y:69 P:45 SP:FB
2191 CC83            CLV B8        implied   A:96 X:1 Y:69 P:44 SP:FB
2194 CC84            LDX A2      immediate   A:96 X:1 Y:69 P:4 SP:FB
2197 CC86            DEX CA        implied   A:96 X:0 Y:69 P:6 SP:FB
2200 CC87            BEQ F0      immediate   A:96 X:FF Y:69 P:84 SP:FB
2203 CC89            BPL 10      immediate   A:96 X:FF Y:69 P:84 SP:FB
2206 CC8B            BCS B0      immediate   A:96 X:FF Y:69 P:84 SP:FB
2209 CC8D            BVS 70      immediate   A:96 X:FF Y:69 P:84 SP:FB
2212 CC8F            CPX E0      immediate   A:96 X:FF Y:69 P:84 SP:FB
2215 CC91            BNE D0      immediate   A:96 X:FF Y:69 P:7 SP:FB
2218 CC93            CLC 18        implied   A:96 X:FF Y:69 P:7 SP:FB
2221 CC94            DEX CA        implied   A:96 X:FF Y:69 P:6 SP:FB
2224 CC95            BEQ F0      immediate   A:96 X:FE Y:69 P:84 SP:FB
2227 CC97            BPL 10      immediate   A:96 X:FE Y:69 P:84 SP:FB
2230 CC99            BCS B0      immediate   A:96 X:FE Y:69 P:84 SP:FB
2233 CC9B            BVS 70      immediate   A:96 X:FE Y:69 P:84 SP:FB
2236 CC9D            CPX E0      immediate   A:96 X:FE Y:69 P:84 SP:FB
2239 CC9F            BNE D0      immediate   A:96 X:FE Y:69 P:7 SP:FB
2242 CCA1            CMP C9      immediate   A:96 X:FE Y:69 P:7 SP:FB
2245 CCA3            BNE D0      immediate   A:96 X:FE Y:69 P:7 SP:FB
2248 CCA5            CPY C0      immediate   A:96 X:FE Y:69 P:7 SP:FB
2251 CCA7            BNE D0      immediate   A:96 X:FE Y:69 P:7 SP:FB
2254 CCA9           JMPa 4C       absolute   A:96 X:FE Y:69 P:7 SP:FB
2259 CCB0            NOP EA        implied   A:96 X:FE Y:69 P:7 SP:FB
2262 CCB1            LDA A9      immediate   A:96 X:FE Y:69 P:7 SP:FB
2265 CCB3            LDX A2      immediate   A:85 X:FE Y:69 P:85 SP:FB
2268 CCB5            LDY A0      immediate   A:85 X:34 Y:69 P:5 SP:FB
2271 CCB7            CLC 18        implied   A:85 X:34 Y:99 P:85 SP:FB
2274 CCB8            BIT 24       zeropage   A:85 X:34 Y:99 P:84 SP:FB
2278 CCBA            TAY A8        implied   A:85 X:34 Y:99 P:C4 SP:FB
2281 CCBB            BEQ F0      immediate   A:85 X:34 Y:85 P:C4 SP:FB
2284 CCBD            BCS B0      immediate   A:85 X:34 Y:85 P:C4 SP:FB
2287 CCBF            BVC 50      immediate   A:85 X:34 Y:85 P:C4 SP:FB
2290 CCC1            BPL 10      immediate   A:85 X:34 Y:85 P:C4 SP:FB
2293 CCC3            CMP C9      immediate   A:85 X:34 Y:85 P:C4 SP:FB
2296 CCC5            BNE D0      immediate   A:85 X:34 Y:85 P:47 SP:FB
2299 CCC7            CPX E0      immediate   A:85 X:34 Y:85 P:47 SP:FB
2302 CCC9            BNE D0      immediate   A:85 X:34 Y:85 P:47 SP:FB
2305 CCCB            CPY C0      immediate   A:85 X:34 Y:85 P:47 SP:FB
2308 CCCD            BNE D0      immediate   A:85 X:34 Y:85 P:47 SP:FB
2311 CCCF            LDA A9      immediate   A:85 X:34 Y:85 P:47 SP:FB
2314 CCD1            SEC 38        implied   A:0 X:34 Y:85 P:47 SP:FB
2317 CCD2            CLV B8        implied   A:0 X:34 Y:85 P:47 SP:FB
2320 CCD3            TAY A8        implied   A:0 X:34 Y:85 P:7 SP:FB
2323 CCD4            BNE D0      immediate   A:0 X:34 Y:0 P:7 SP:FB
2326 CCD6            BCC 90      immediate   A:0 X:34 Y:0 P:7 SP:FB
2329 CCD8            BVS 70      immediate   A:0 X:34 Y:0 P:7 SP:FB
2332 CCDA            BMI 30      immediate   A:0 X:34 Y:0 P:7 SP:FB
2335 CCDC            CMP C9      immediate   A:0 X:34 Y:0 P:7 SP:FB
2338 CCDE            BNE D0      immediate   A:0 X:34 Y:0 P:7 SP:FB
2341 CCE0            CPX E0      immediate   A:0 X:34 Y:0 P:7 SP:FB
2344 CCE2            BNE D0      immediate   A:0 X:34 Y:0 P:7 SP:FB
2347 CCE4            CPY C0      immediate   A:0 X:34 Y:0 P:7 SP:FB
2350 CCE6            BNE D0      immediate   A:0 X:34 Y:0 P:7 SP:FB
2353 CCE8           JMPa 4C       absolute   A:0 X:34 Y:0 P:7 SP:FB
2358 CCEF            NOP EA        implied   A:0 X:34 Y:0 P:7 SP:FB
2361 CCF0            LDA A9      immediate   A:0 X:34 Y:0 P:7 SP:FB
2364 CCF2            LDX A2      immediate   A:85 X:34 Y:0 P:85 SP:FB
2367 CCF4            LDY A0      immediate   A:85 X:34 Y:0 P:5 SP:FB
2370 CCF6            CLC 18        implied   A:85 X:34 Y:99 P:85 SP:FB
2373 CCF7            BIT 24       zeropage   A:85 X:34 Y:99 P:84 SP:FB
2377 CCF9            TAX AA        implied   A:85 X:34 Y:99 P:C4 SP:FB
2380 CCFA            BEQ F0      immediate   A:85 X:85 Y:99 P:C4 SP:FB
2383 CCFC            BCS B0      immediate   A:85 X:85 Y:99 P:C4 SP:FB
2386 CCFE            BVC 50      immediate   A:85 X:85 Y:99 P:C4 SP:FB
2389 CD00            BPL 10      immediate   A:85 X:85 Y:99 P:C4 SP:FB
2392 CD02            CMP C9      immediate   A:85 X:85 Y:99 P:C4 SP:FB
2395 CD04            BNE D0      immediate   A:85 X:85 Y:99 P:47 SP:FB
2398 CD06            CPX E0      immediate   A:85 X:85 Y:99 P:47 SP:FB
2401 CD08            BNE D0      immediate   A:85 X:85 Y:99 P:47 SP:FB
2404 CD0A            CPY C0      immediate   A:85 X:85 Y:99 P:47 SP:FB
2407 CD0C            BNE D0      immediate   A:85 X:85 Y:99 P:47 SP:FB
2410 CD0E            LDA A9      immediate   A:85 X:85 Y:99 P:47 SP:FB
2413 CD10            SEC 38        implied   A:0 X:85 Y:99 P:47 SP:FB
2416 CD11            CLV B8        implied   A:0 X:85 Y:99 P:47 SP:FB
2419 CD12            TAX AA        implied   A:0 X:85 Y:99 P:7 SP:FB
2422 CD13            BNE D0      immediate   A:0 X:0 Y:99 P:7 SP:FB
2425 CD15            BCC 90      immediate   A:0 X:0 Y:99 P:7 SP:FB
2428 CD17            BVS 70      immediate   A:0 X:0 Y:99 P:7 SP:FB
2431 CD19            BMI 30      immediate   A:0 X:0 Y:99 P:7 SP:FB
2434 CD1B            CMP C9      immediate   A:0 X:0 Y:99 P:7 SP:FB
2437 CD1D            BNE D0      immediate   A:0 X:0 Y:99 P:7 SP:FB
2440 CD1F            CPX E0      immediate   A:0 X:0 Y:99 P:7 SP:FB
2443 CD21            BNE D0      immediate   A:0 X:0 Y:99 P:7 SP:FB
2446 CD23            CPY C0      immediate   A:0 X:0 Y:99 P:7 SP:FB
2449 CD25            BNE D0      immediate   A:0 X:0 Y:99 P:7 SP:FB
2452 CD27           JMPa 4C       absolute   A:0 X:0 Y:99 P:7 SP:FB
2457 CD2E            NOP EA        implied   A:0 X:0 Y:99 P:7 SP:FB
2460 CD2F            LDA A9      immediate   A:0 X:0 Y:99 P:7 SP:FB
2463 CD31            LDX A2      immediate   A:85 X:0 Y:99 P:85 SP:FB
2466 CD33            LDY A0      immediate   A:85 X:34 Y:99 P:5 SP:FB
2469 CD35            CLC 18        implied   A:85 X:34 Y:99 P:85 SP:FB
2472 CD36            BIT 24       zeropage   A:85 X:34 Y:99 P:84 SP:FB
2476 CD38            TYA 98        implied   A:85 X:34 Y:99 P:C4 SP:FB
2479 CD39            BEQ F0      immediate   A:99 X:34 Y:99 P:C4 SP:FB
2482 CD3B            BCS B0      immediate   A:99 X:34 Y:99 P:C4 SP:FB
2485 CD3D            BVC 50      immediate   A:99 X:34 Y:99 P:C4 SP:FB
2488 CD3F            BPL 10      immediate   A:99 X:34 Y:99 P:C4 SP:FB
2491 CD41            CMP C9      immediate   A:99 X:34 Y:99 P:C4 SP:FB
2494 CD43            BNE D0      immediate   A:99 X:34 Y:99 P:47 SP:FB
2497 CD45            CPX E0      immediate   A:99 X:34 Y:99 P:47 SP:FB
2500 CD47            BNE D0      immediate   A:99 X:34 Y:99 P:47 SP:FB
2503 CD49            CPY C0      immediate   A:99 X:34 Y:99 P:47 SP:FB
2506 CD4B            BNE D0      immediate   A:99 X:34 Y:99 P:47 SP:FB
2509 CD4D            LDY A0      immediate   A:99 X:34 Y:99 P:47 SP:FB
2512 CD4F            SEC 38        implied   A:99 X:34 Y:0 P:47 SP:FB
2515 CD50            CLV B8        implied   A:99 X:34 Y:0 P:47 SP:FB
2518 CD51            TYA 98        implied   A:99 X:34 Y:0 P:7 SP:FB
2521 CD52            BNE D0      immediate   A:0 X:34 Y:0 P:7 SP:FB
2524 CD54            BCC 90      immediate   A:0 X:34 Y:0 P:7 SP:FB
2527 CD56            BVS 70      immediate   A:0 X:34 Y:0 P:7 SP:FB
2530 CD58            BMI 30      immediate   A:0 X:34 Y:0 P:7 SP:FB
2533 CD5A            CMP C9      immediate   A:0 X:34 Y:0 P:7 SP:FB
2536 CD5C            BNE D0      immediate   A:0 X:34 Y:0 P:7 SP:FB
2539 CD5E            CPX E0      immediate   A:0 X:34 Y:0 P:7 SP:FB
2542 CD60            BNE D0      immediate   A:0 X:34 Y:0 P:7 SP:FB
2545 CD62            CPY C0      immediate   A:0 X:34 Y:0 P:7 SP:FB
2548 CD64            BNE D0      immediate   A:0 X:34 Y:0 P:7 SP:FB
2551 CD66           JMPa 4C       absolute   A:0 X:34 Y:0 P:7 SP:FB
2556 CD6D            NOP EA        implied   A:0 X:34 Y:0 P:7 SP:FB
2559 CD6E            LDA A9      immediate   A:0 X:34 Y:0 P:7 SP:FB
2562 CD70            LDX A2      immediate   A:85 X:34 Y:0 P:85 SP:FB
2565 CD72            LDY A0      immediate   A:85 X:34 Y:0 P:5 SP:FB
2568 CD74            CLC 18        implied   A:85 X:34 Y:99 P:85 SP:FB
2571 CD75            BIT 24       zeropage   A:85 X:34 Y:99 P:84 SP:FB
2575 CD77            TXA 8A        implied   A:85 X:34 Y:99 P:C4 SP:FB
2578 CD78            BEQ F0      immediate   A:34 X:34 Y:99 P:44 SP:FB
2581 CD7A            BCS B0      immediate   A:34 X:34 Y:99 P:44 SP:FB
2584 CD7C            BVC 50      immediate   A:34 X:34 Y:99 P:44 SP:FB
2587 CD7E            BMI 30      immediate   A:34 X:34 Y:99 P:44 SP:FB
2590 CD80            CMP C9      immediate   A:34 X:34 Y:99 P:44 SP:FB
2593 CD82            BNE D0      immediate   A:34 X:34 Y:99 P:47 SP:FB
2596 CD84            CPX E0      immediate   A:34 X:34 Y:99 P:47 SP:FB
2599 CD86            BNE D0      immediate   A:34 X:34 Y:99 P:47 SP:FB
2602 CD88            CPY C0      immediate   A:34 X:34 Y:99 P:47 SP:FB
2605 CD8A            BNE D0      immediate   A:34 X:34 Y:99 P:47 SP:FB
2608 CD8C            LDX A2      immediate   A:34 X:34 Y:99 P:47 SP:FB
2611 CD8E            SEC 38        implied   A:34 X:0 Y:99 P:47 SP:FB
2614 CD8F            CLV B8        implied   A:34 X:0 Y:99 P:47 SP:FB
2617 CD90            TXA 8A        implied   A:34 X:0 Y:99 P:7 SP:FB
2620 CD91            BNE D0      immediate   A:0 X:0 Y:99 P:7 SP:FB
2623 CD93            BCC 90      immediate   A:0 X:0 Y:99 P:7 SP:FB
2626 CD95            BVS 70      immediate   A:0 X:0 Y:99 P:7 SP:FB
2629 CD97            BMI 30      immediate   A:0 X:0 Y:99 P:7 SP:FB
2632 CD99            CMP C9      immediate   A:0 X:0 Y:99 P:7 SP:FB
2635 CD9B            BNE D0      immediate   A:0 X:0 Y:99 P:7 SP:FB
2638 CD9D            CPX E0      immediate   A:0 X:0 Y:99 P:7 SP:FB
2641 CD9F            BNE D0      immediate   A:0 X:0 Y:99 P:7 SP:FB
2644 CDA1            CPY C0      immediate   A:0 X:0 Y:99 P:7 SP:FB
2647 CDA3            BNE D0      immediate   A:0 X:0 Y:99 P:7 SP:FB
2650 CDA5           JMPa 4C       absolute   A:0 X:0 Y:99 P:7 SP:FB
2655 CDAC            NOP EA        implied   A:0 X:0 Y:99 P:7 SP:FB
2658 CDAD            TSX BA        implied   A:0 X:0 Y:99 P:7 SP:FB
2661 CDAE            STX 8E       absolute   A:0 X:FB Y:99 P:85 SP:FB
2666 CDB1            LDY A0      immediate   A:0 X:FB Y:99 P:85 SP:FB
2669 CDB3            LDX A2      immediate   A:0 X:FB Y:33 P:5 SP:FB
2672 CDB5            LDA A9      immediate   A:0 X:69 Y:33 P:5 SP:FB
2675 CDB7            CLC 18        implied   A:84 X:69 Y:33 P:85 SP:FB
2678 CDB8            BIT 24       zeropage   A:84 X:69 Y:33 P:84 SP:FB
2682 CDBA            TXS 9A        implied   A:84 X:69 Y:33 P:C4 SP:FB
2685 CDBB            BEQ F0      immediate   A:84 X:69 Y:33 P:C4 SP:69
2688 CDBD            BPL 10      immediate   A:84 X:69 Y:33 P:C4 SP:69
2691 CDBF            BCS B0      immediate   A:84 X:69 Y:33 P:C4 SP:69
2694 CDC1            BVC 50      immediate   A:84 X:69 Y:33 P:C4 SP:69
2697 CDC3            CMP C9      immediate   A:84 X:69 Y:33 P:C4 SP:69
2700 CDC5            BNE D0      immediate   A:84 X:69 Y:33 P:47 SP:69
2703 CDC7            CPX E0      immediate   A:84 X:69 Y:33 P:47 SP:69
2706 CDC9            BNE D0      immediate   A:84 X:69 Y:33 P:47 SP:69
2709 CDCB            CPY C0      immediate   A:84 X:69 Y:33 P:47 SP:69
2712 CDCD            BNE D0      immediate   A:84 X:69 Y:33 P:47 SP:69
2715 CDCF            LDY A0      immediate   A:84 X:69 Y:33 P:47 SP:69
2718 CDD1            LDA A9      immediate   A:84 X:69 Y:1 P:45 SP:69
2721 CDD3            SEC 38        implied   A:4 X:69 Y:1 P:45 SP:69
2724 CDD4            CLV B8        implied   A:4 X:69 Y:1 P:45 SP:69
2727 CDD5            LDX A2      immediate   A:4 X:69 Y:1 P:5 SP:69
2730 CDD7            TSX BA        implied   A:4 X:0 Y:1 P:7 SP:69
2733 CDD8            BEQ F0      immediate   A:4 X:69 Y:1 P:5 SP:69
2736 CDDA            BMI 30      immediate   A:4 X:69 Y:1 P:5 SP:69
2739 CDDC            BCC 90      immediate   A:4 X:69 Y:1 P:5 SP:69
2742 CDDE            BVS 70      immediate   A:4 X:69 Y:1 P:5 SP:69
2745 CDE0            CPX E0      immediate   A:4 X:69 Y:1 P:5 SP:69
2748 CDE2            BNE D0      immediate   A:4 X:69 Y:1 P:7 SP:69
2751 CDE4            CMP C9      immediate   A:4 X:69 Y:1 P:7 SP:69
2754 CDE6            BNE D0      immediate   A:4 X:69 Y:1 P:7 SP:69
2757 CDE8            CPY C0      immediate   A:4 X:69 Y:1 P:7 SP:69
2760 CDEA            BNE D0      immediate   A:4 X:69 Y:1 P:7 SP:69
2763 CDEC           JMPa 4C       absolute   A:4 X:69 Y:1 P:7 SP:69
2768 CDF3            LDX AE       absolute   A:4 X:69 Y:1 P:7 SP:69
2773 CDF6            TXS 9A        implied   A:4 X:FB Y:1 P:85 SP:69
2776 CDF7            RTS 60        implied   A:4 X:FB Y:1 P:85 SP:FB
2783 C609            JSR 20       absolute   A:4 X:FB Y:1 P:85 SP:FD
2788 CDF8            LDA A9      immediate   A:4 X:FB Y:1 P:85 SP:FB
2791 CDFA            STA 85       zeropage   A:FF X:FB Y:1 P:85 SP:FB
2795 CDFC            TSX BA        implied   A:FF X:FB Y:1 P:85 SP:FB
2798 CDFD            STX 8E       absolute   A:FF X:FB Y:1 P:85 SP:FB
2803 CE00            NOP EA        implied   A:FF X:FB Y:1 P:85 SP:FB
2806 CE01            LDX A2      immediate   A:FF X:FB Y:1 P:85 SP:FB
2809 CE03            TXS 9A        implied   A:FF X:80 Y:1 P:85 SP:FB
2812 CE04            LDA A9      immediate   A:FF X:80 Y:1 P:85 SP:80
2815 CE06            PHA 48        implied   A:33 X:80 Y:1 P:5 SP:80
2819 CE07            LDA A9      immediate   A:33 X:80 Y:1 P:5 SP:7F
2822 CE09            PHA 48        implied   A:69 X:80 Y:1 P:5 SP:7F
2826 CE0A            TSX BA        implied   A:69 X:80 Y:1 P:5 SP:7E
2829 CE0B            CPX E0      immediate   A:69 X:7E Y:1 P:5 SP:7E
2832 CE0D            BNE D0      immediate   A:69 X:7E Y:1 P:7 SP:7E
2835 CE0F            PLA 68        implied   A:69 X:7E Y:1 P:7 SP:7E
2840 CE10            CMP C9      immediate   A:69 X:7E Y:1 P:5 SP:7F
2843 CE12            BNE D0      immediate   A:69 X:7E Y:1 P:7 SP:7F
2846 CE14            PLA 68        implied   A:69 X:7E Y:1 P:7 SP:7F
2851 CE15            CMP C9      immediate   A:33 X:7E Y:1 P:5 SP:80
2854 CE17            BNE D0      immediate   A:33 X:7E Y:1 P:7 SP:80
2857 CE19            TSX BA        implied   A:33 X:7E Y:1 P:7 SP:80
2860 CE1A            CPX E0      immediate   A:33 X:80 Y:1 P:85 SP:80
2863 CE1C            BNE D0      immediate   A:33 X:80 Y:1 P:7 SP:80
2866 CE1E            LDA AD       absolute   A:33 X:80 Y:1 P:7 SP:80
2871 CE21            CMP C9      immediate   A:33 X:80 Y:1 P:5 SP:80
2874 CE23            BNE D0      immediate   A:33 X:80 Y:1 P:7 SP:80
2877 CE25            LDA AD       absolute   A:33 X:80 Y:1 P:7 SP:80
2882 CE28            CMP C9      immediate   A:69 X:80 Y:1 P:5 SP:80
2885 CE2A            BNE D0      immediate   A:69 X:80 Y:1 P:7 SP:80
2888 CE2C           JMPa 4C       absolute   A:69 X:80 Y:1 P:7 SP:80
2893 CE33            NOP EA        implied   A:69 X:80 Y:1 P:7 SP:80
2896 CE34            LDX A2      immediate   A:69 X:80 Y:1 P:7 SP:80
2899 CE36            TXS 9A        implied   A:69 X:80 Y:1 P:85 SP:80
2902 CE37            JSR 20       absolute   A:69 X:80 Y:1 P:85 SP:80
2907 CE3D            TSX BA        implied   A:69 X:80 Y:1 P:85 SP:7E
2910 CE3E            CPX E0      immediate   A:69 X:7E Y:1 P:5 SP:7E
2913 CE40            BNE D0      immediate   A:69 X:7E Y:1 P:7 SP:7E
2916 CE42            PLA 68        implied   A:69 X:7E Y:1 P:7 SP:7E
2921 CE43            PLA 68        implied   A:39 X:7E Y:1 P:5 SP:7F
2926 CE44            TSX BA        implied   A:CE X:7E Y:1 P:85 SP:80
2929 CE45            CPX E0      immediate   A:CE X:80 Y:1 P:85 SP:80
2932 CE47            BNE D0      immediate   A:CE X:80 Y:1 P:7 SP:80
2935 CE49            LDA A9      immediate   A:CE X:80 Y:1 P:7 SP:80
2938 CE4B            JSR 20       absolute   A:0 X:80 Y:1 P:7 SP:80
2943 CE4E            PLA 68        implied   A:0 X:80 Y:1 P:7 SP:7E
2948 CE4F            CMP C9      immediate   A:4D X:80 Y:1 P:5 SP:7F
2951 CE51            BNE D0      immediate   A:4D X:80 Y:1 P:7 SP:7F
2954 CE53            PLA 68        implied   A:4D X:80 Y:1 P:7 SP:7F
2959 CE54            CMP C9      immediate   A:CE X:80 Y:1 P:85 SP:80
2962 CE56            BNE D0      immediate   A:CE X:80 Y:1 P:7 SP:80
2965 CE58           JMPa 4C       absolute   A:CE X:80 Y:1 P:7 SP:80
2970 CE5F            NOP EA        implied   A:CE X:80 Y:1 P:7 SP:80
2973 CE60            LDA A9      immediate   A:CE X:80 Y:1 P:7 SP:80
2976 CE62            PHA 48        implied   A:CE X:80 Y:1 P:85 SP:80
2980 CE63            LDA A9      immediate   A:CE X:80 Y:1 P:85 SP:7F
2983 CE65            PHA 48        implied   A:66 X:80 Y:1 P:5 SP:7F
2987 CE66            RTS 60        implied   A:66 X:80 Y:1 P:5 SP:7E
2994 CE67            LDX A2      immediate   A:66 X:80 Y:1 P:5 SP:80
2997 CE69            LDY A0      immediate   A:66 X:77 Y:1 P:5 SP:80
3000 CE6B            CLC 18        implied   A:66 X:77 Y:69 P:5 SP:80
3003 CE6C            BIT 24       zeropage   A:66 X:77 Y:69 P:4 SP:80
3007 CE6E            LDA A9      immediate   A:66 X:77 Y:69 P:C4 SP:80
3010 CE70            JSR 20       absolute   A:83 X:77 Y:69 P:C4 SP:80
3015 CE66            RTS 60        implied   A:83 X:77 Y:69 P:C4 SP:7E
3022 CE73            BEQ F0      immediate   A:83 X:77 Y:69 P:C4 SP:80
3025 CE75            BPL 10      immediate   A:83 X:77 Y:69 P:C4 SP:80
3028 CE77            BCS B0      immediate   A:83 X:77 Y:69 P:C4 SP:80
3031 CE79            BVC 50      immediate   A:83 X:77 Y:69 P:C4 SP:80
3034 CE7B            CMP C9      immediate   A:83 X:77 Y:69 P:C4 SP:80
3037 CE7D            BNE D0      immediate   A:83 X:77 Y:69 P:47 SP:80
3040 CE7F            CPY C0      immediate   A:83 X:77 Y:69 P:47 SP:80
3043 CE81            BNE D0      immediate   A:83 X:77 Y:69 P:47 SP:80
3046 CE83            CPX E0      immediate   A:83 X:77 Y:69 P:47 SP:80
3049 CE85            BNE D0      immediate   A:83 X:77 Y:69 P:47 SP:80
3052 CE87            SEC 38        implied   A:83 X:77 Y:69 P:47 SP:80
3055 CE88            CLV B8        implied   A:83 X:77 Y:69 P:47 SP:80
3058 CE89            LDA A9      immediate   A:83 X:77 Y:69 P:7 SP:80
3061 CE8B            JSR 20       absolute   A:0 X:77 Y:69 P:7 SP:80
3066 CE66            RTS 60        implied   A:0 X:77 Y:69 P:7 SP:7E
3073 CE8E            BNE D0      immediate   A:0 X:77 Y:69 P:7 SP:80
3076 CE90            BMI 30      immediate   A:0 X:77 Y:69 P:7 SP:80
3079 CE92            BCC 90      immediate   A:0 X:77 Y:69 P:7 SP:80
3082 CE94            BVS 70      immediate   A:0 X:77 Y:69 P:7 SP:80
3085 CE96           JMPa 4C       absolute   A:0 X:77 Y:69 P:7 SP:80
3090 CE9D            NOP EA        implied   A:0 X:77 Y:69 P:7 SP:80
3093 CE9E            LDA A9      immediate   A:0 X:77 Y:69 P:7 SP:80
3096 CEA0            PHA 48        implied   A:CE X:77 Y:69 P:85 SP:80
3100 CEA1            LDA A9      immediate   A:CE X:77 Y:69 P:85 SP:7F
3103 CEA3            PHA 48        implied   A:AE X:77 Y:69 P:85 SP:7F
3107 CEA4            LDA A9      immediate   A:AE X:77 Y:69 P:85 SP:7E
3110 CEA6            PHA 48        implied   A:65 X:77 Y:69 P:5 SP:7E
3114 CEA7            LDA A9      immediate   A:65 X:77 Y:69 P:5 SP:7D
3117 CEA9            LDY A0      immediate   A:55 X:77 Y:69 P:5 SP:7D
3120 CEAB            LDX A2      immediate   A:55 X:77 Y:88 P:85 SP:7D
3123 CEAD            RTI 40        implied   A:55 X:99 Y:88 P:85 SP:7D
3130 CEAE            BMI 30      immediate   A:55 X:99 Y:88 P:65 SP:80
3133 CEB0            BVC 50      immediate   A:55 X:99 Y:88 P:65 SP:80
3136 CEB2            BEQ F0      immediate   A:55 X:99 Y:88 P:65 SP:80
3139 CEB4            BCC 90      immediate   A:55 X:99 Y:88 P:65 SP:80
3142 CEB6            CMP C9      immediate   A:55 X:99 Y:88 P:65 SP:80
3145 CEB8            BNE D0      immediate   A:55 X:99 Y:88 P:67 SP:80
3148 CEBA            CPY C0      immediate   A:55 X:99 Y:88 P:67 SP:80
3151 CEBC            BNE D0      immediate   A:55 X:99 Y:88 P:67 SP:80
3154 CEBE            CPX E0      immediate   A:55 X:99 Y:88 P:67 SP:80
3157 CEC0            BNE D0      immediate   A:55 X:99 Y:88 P:67 SP:80
3160 CEC2            LDA A9      immediate   A:55 X:99 Y:88 P:67 SP:80
3163 CEC4            PHA 48        implied   A:CE X:99 Y:88 P:E5 SP:80
3167 CEC5            LDA A9      immediate   A:CE X:99 Y:88 P:E5 SP:7F
3170 CEC7            PHA 48        implied   A:CE X:99 Y:88 P:E5 SP:7F
3174 CEC8            LDA A9      immediate   A:CE X:99 Y:88 P:E5 SP:7E
3177 CECA            PHA 48        implied   A:87 X:99 Y:88 P:E5 SP:7E
3181 CECB            LDA A9      immediate   A:87 X:99 Y:88 P:E5 SP:7D
3184 CECD            RTI 40        implied   A:55 X:99 Y:88 P:65 SP:7D
3191 CECE            BPL 10      immediate   A:55 X:99 Y:88 P:87 SP:80
3194 CED0            BVS 70      immediate   A:55 X:99 Y:88 P:87 SP:80
3197 CED2            BNE D0      immediate   A:55 X:99 Y:88 P:87 SP:80
3200 CED4            BCC 90      immediate   A:55 X:99 Y:88 P:87 SP:80
3203 CED6            CMP C9      immediate   A:55 X:99 Y:88 P:87 SP:80
3206 CED8            BNE D0      immediate   A:55 X:99 Y:88 P:7 SP:80
3209 CEDA            CPY C0      immediate   A:55 X:99 Y:88 P:7 SP:80
3212 CEDC            BNE D0      immediate   A:55 X:99 Y:88 P:7 SP:80
3215 CEDE            CPX E0      immediate   A:55 X:99 Y:88 P:7 SP:80
3218 CEE0            BNE D0      immediate   A:55 X:99 Y:88 P:7 SP:80
3221 CEE2           JMPa 4C       absolute   A:55 X:99 Y:88 P:7 SP:80
3226 CEE9            LDX AE       absolute   A:55 X:99 Y:88 P:7 SP:80
3231 CEEC            TXS 9A        implied   A:55 X:FB Y:88 P:85 SP:80
3234 CEED            RTS 60        implied   A:55 X:FB Y:88 P:85 SP:FB
3241 C60C            JSR 20       absolute   A:55 X:FB Y:88 P:85 SP:FD
3246 CEEE            LDX A2      immediate   A:55 X:FB Y:88 P:85 SP:FB
3249 CEF0            LDY A0      immediate   A:55 X:55 Y:88 P:5 SP:FB
3252 CEF2            LDA A9      immediate   A:55 X:55 Y:69 P:5 SP:FB
3255 CEF4            STA 85       zeropage   A:FF X:55 Y:69 P:85 SP:FB
3259 CEF6            NOP EA        implied   A:FF X:55 Y:69 P:85 SP:FB
3262 CEF7            BIT 24       zeropage   A:FF X:55 Y:69 P:85 SP:FB
3266 CEF9            SEC 38        implied   A:FF X:55 Y:69 P:C5 SP:FB
3269 CEFA            LDA A9      immediate   A:FF X:55 Y:69 P:C5 SP:FB
3272 CEFC            LSR 4A    accumulator   A:1 X:55 Y:69 P:45 SP:FB
3275 CEFD            BCC 90      immediate   A:0 X:55 Y:69 P:47 SP:FB
3278 CEFF            BNE D0      immediate   A:0 X:55 Y:69 P:47 SP:FB
3281 CF01            BMI 30      immediate   A:0 X:55 Y:69 P:47 SP:FB
3284 CF03            BVC 50      immediate   A:0 X:55 Y:69 P:47 SP:FB
3287 CF05            CMP C9      immediate   A:0 X:55 Y:69 P:47 SP:FB
3290 CF07            BNE D0      immediate   A:0 X:55 Y:69 P:47 SP:FB
3293 CF09            CLV B8        implied   A:0 X:55 Y:69 P:47 SP:FB
3296 CF0A            LDA A9      immediate   A:0 X:55 Y:69 P:7 SP:FB
3299 CF0C            LSR 4A    accumulator   A:AA X:55 Y:69 P:85 SP:FB
3302 CF0D            BCS B0      immediate   A:55 X:55 Y:69 P:4 SP:FB
3305 CF0F            BEQ F0      immediate   A:55 X:55 Y:69 P:4 SP:FB
3308 CF11            BMI 30      immediate   A:55 X:55 Y:69 P:4 SP:FB
3311 CF13            BVS 70      immediate   A:55 X:55 Y:69 P:4 SP:FB
3314 CF15            CMP C9      immediate   A:55 X:55 Y:69 P:4 SP:FB
3317 CF17            BNE D0      immediate   A:55 X:55 Y:69 P:7 SP:FB
3320 CF19           JMPa 4C       absolute   A:55 X:55 Y:69 P:7 SP:FB
3325 CF20            NOP EA        implied   A:55 X:55 Y:69 P:7 SP:FB
3328 CF21            BIT 24       zeropage   A:55 X:55 Y:69 P:7 SP:FB
3332 CF23            SEC 38        implied   A:55 X:55 Y:69 P:C5 SP:FB
3335 CF24            LDA A9      immediate   A:55 X:55 Y:69 P:C5 SP:FB
3338 CF26            ASL A    accumulator   A:80 X:55 Y:69 P:C5 SP:FB
3341 CF27            BCC 90      immediate   A:0 X:55 Y:69 P:47 SP:FB
3344 CF29            BNE D0      immediate   A:0 X:55 Y:69 P:47 SP:FB
3347 CF2B            BMI 30      immediate   A:0 X:55 Y:69 P:47 SP:FB
3350 CF2D            BVC 50      immediate   A:0 X:55 Y:69 P:47 SP:FB
3353 CF2F            CMP C9      immediate   A:0 X:55 Y:69 P:47 SP:FB
3356 CF31            BNE D0      immediate   A:0 X:55 Y:69 P:47 SP:FB
3359 CF33            CLV B8        implied   A:0 X:55 Y:69 P:47 SP:FB
3362 CF34            SEC 38        implied   A:0 X:55 Y:69 P:7 SP:FB
3365 CF35            LDA A9      immediate   A:0 X:55 Y:69 P:7 SP:FB
3368 CF37            ASL A    accumulator   A:55 X:55 Y:69 P:5 SP:FB
3371 CF38            BCS B0      immediate   A:AA X:55 Y:69 P:84 SP:FB
3374 CF3A            BEQ F0      immediate   A:AA X:55 Y:69 P:84 SP:FB
3377 CF3C            BPL 10      immediate   A:AA X:55 Y:69 P:84 SP:FB
3380 CF3E            BVS 70      immediate   A:AA X:55 Y:69 P:84 SP:FB
3383 CF40            CMP C9      immediate   A:AA X:55 Y:69 P:84 SP:FB
3386 CF42            BNE D0      immediate   A:AA X:55 Y:69 P:7 SP:FB
3389 CF44           JMPa 4C       absolute   A:AA X:55 Y:69 P:7 SP:FB
3394 CF4B            NOP EA        implied   A:AA X:55 Y:69 P:7 SP:FB
3397 CF4C            BIT 24       zeropage   A:AA X:55 Y:69 P:7 SP:FB
3401 CF4E            SEC 38        implied   A:AA X:55 Y:69 P:C5 SP:FB
3404 CF4F            LDA A9      immediate   A:AA X:55 Y:69 P:C5 SP:FB
3407 CF51            ROR 6A    accumulator   A:1 X:55 Y:69 P:45 SP:FB
3410 CF52            BCC 90      immediate   A:80 X:55 Y:69 P:C5 SP:FB
3413 CF54            BEQ F0      immediate   A:80 X:55 Y:69 P:C5 SP:FB
3416 CF56            BPL 10      immediate   A:80 X:55 Y:69 P:C5 SP:FB
3419 CF58            BVC 50      immediate   A:80 X:55 Y:69 P:C5 SP:FB
3422 CF5A            CMP C9      immediate   A:80 X:55 Y:69 P:C5 SP:FB
3425 CF5C            BNE D0      immediate   A:80 X:55 Y:69 P:47 SP:FB
3428 CF5E            CLV B8        implied   A:80 X:55 Y:69 P:47 SP:FB
3431 CF5F            CLC 18        implied   A:80 X:55 Y:69 P:7 SP:FB
3434 CF60            LDA A9      immediate   A:80 X:55 Y:69 P:6 SP:FB
3437 CF62            ROR 6A    accumulator   A:55 X:55 Y:69 P:4 SP:FB
3440 CF63            BCC 90      immediate   A:2A X:55 Y:69 P:5 SP:FB
3443 CF65            BEQ F0      immediate   A:2A X:55 Y:69 P:5 SP:FB
3446 CF67            BMI 30      immediate   A:2A X:55 Y:69 P:5 SP:FB
3449 CF69            BVS 70      immediate   A:2A X:55 Y:69 P:5 SP:FB
3452 CF6B            CMP C9      immediate   A:2A X:55 Y:69 P:5 SP:FB
3455 CF6D            BNE D0      immediate   A:2A X:55 Y:69 P:7 SP:FB
3458 CF6F           JMPa 4C       absolute   A:2A X:55 Y:69 P:7 SP:FB
3463 CF76            NOP EA        implied   A:2A X:55 Y:69 P:7 SP:FB
3466 CF77            BIT 24       zeropage   A:2A X:55 Y:69 P:7 SP:FB
3470 CF79            SEC 38        implied   A:2A X:55 Y:69 P:C5 SP:FB
3473 CF7A            LDA A9      immediate   A:2A X:55 Y:69 P:C5 SP:FB
3476 CF7C            ROL 2A    accumulator   A:80 X:55 Y:69 P:C5 SP:FB
3479 CF7D            BCC 90      immediate   A:1 X:55 Y:69 P:45 SP:FB
3482 CF7F            BEQ F0      immediate   A:1 X:55 Y:69 P:45 SP:FB
3485 CF81            BMI 30      immediate   A:1 X:55 Y:69 P:45 SP:FB
3488 CF83            BVC 50      immediate   A:1 X:55 Y:69 P:45 SP:FB
3491 CF85            CMP C9      immediate   A:1 X:55 Y:69 P:45 SP:FB
3494 CF87            BNE D0      immediate   A:1 X:55 Y:69 P:47 SP:FB
3497 CF89            CLV B8        implied   A:1 X:55 Y:69 P:47 SP:FB
3500 CF8A            CLC 18        implied   A:1 X:55 Y:69 P:7 SP:FB
3503 CF8B            LDA A9      immediate   A:1 X:55 Y:69 P:6 SP:FB
3506 CF8D            ROL 2A    accumulator   A:55 X:55 Y:69 P:4 SP:FB
3509 CF8E            BCS B0      immediate   A:AA X:55 Y:69 P:84 SP:FB
3512 CF90            BEQ F0      immediate   A:AA X:55 Y:69 P:84 SP:FB
3515 CF92            BPL 10      immediate   A:AA X:55 Y:69 P:84 SP:FB
3518 CF94            BVS 70      immediate   A:AA X:55 Y:69 P:84 SP:FB
3521 CF96            CMP C9      immediate   A:AA X:55 Y:69 P:84 SP:FB
3524 CF98            BNE D0      immediate   A:AA X:55 Y:69 P:7 SP:FB
3527 CF9A           JMPa 4C       absolute   A:AA X:55 Y:69 P:7 SP:FB
3532 CFA1            RTS 60        implied   A:AA X:55 Y:69 P:7 SP:FB
3539 C60F            JSR 20       absolute   A:AA X:55 Y:69 P:7 SP:FD
3544 CFA2            LDA A5       zeropage   A:AA X:55 Y:69 P:7 SP:FB
3548 CFA4            STA 8D       absolute   A:0 X:55 Y:69 P:7 SP:FB
3553 CFA7            LDA A9      immediate   A:0 X:55 Y:69 P:7 SP:FB
3556 CFA9            STA 85       zeropage   A:0 X:55 Y:69 P:7 SP:FB
3560 CFAB            LDA A9      immediate   A:0 X:55 Y:69 P:7 SP:FB
3563 CFAD            STA 85       zeropage   A:2 X:55 Y:69 P:5 SP:FB
3567 CFAF            LDA A9      immediate   A:2 X:55 Y:69 P:5 SP:FB
3570 CFB1            STA 85       zeropage   A:FF X:55 Y:69 P:85 SP:FB
3574 CFB3            LDA A9      immediate   A:FF X:55 Y:69 P:85 SP:FB
3577 CFB5            STA 85       zeropage   A:0 X:55 Y:69 P:7 SP:FB
3581 CFB7            LDA A9      immediate   A:0 X:55 Y:69 P:7 SP:FB
3584 CFB9            STA 85       zeropage   A:3 X:55 Y:69 P:5 SP:FB
3588 CFBB            STA 85       zeropage   A:3 X:55 Y:69 P:5 SP:FB
3592 CFBD            LDA A9      immediate   A:3 X:55 Y:69 P:5 SP:FB
3595 CFBF            STA 85       zeropage   A:0 X:55 Y:69 P:7 SP:FB
3599 CFC1            LDA A9      immediate   A:0 X:55 Y:69 P:7 SP:FB
3602 CFC3            STA 85       zeropage   A:4 X:55 Y:69 P:5 SP:FB
3606 CFC5            LDA A9      immediate   A:4 X:55 Y:69 P:5 SP:FB
3609 CFC7            STA 8D       absolute   A:5A X:55 Y:69 P:5 SP:FB
3614 CFCA            LDA A9      immediate   A:5A X:55 Y:69 P:5 SP:FB
3617 CFCC            STA 8D       absolute   A:5B X:55 Y:69 P:5 SP:FB
3622 CFCF            LDA A9      immediate   A:5B X:55 Y:69 P:5 SP:FB
3625 CFD1            STA 8D       absolute   A:5C X:55 Y:69 P:5 SP:FB
3630 CFD4            LDA A9      immediate   A:5C X:55 Y:69 P:5 SP:FB
3633 CFD6            STA 8D       absolute   A:5D X:55 Y:69 P:5 SP:FB
3638 CFD9            LDX A2      immediate   A:5D X:55 Y:69 P:5 SP:FB
3641 CFDB            LDA A1   (zeropage,x)   A:5D X:0 Y:69 P:7 SP:FB
3648 CFDD            CMP C9      immediate   A:5A X:0 Y:69 P:5 SP:FB
3651 CFDF            BNE D0      immediate   A:5A X:0 Y:69 P:7 SP:FB
3654 CFE1            INX E8        implied   A:5A X:0 Y:69 P:7 SP:FB
3657 CFE2            INX E8        implied   A:5A X:1 Y:69 P:5 SP:FB
3660 CFE3            LDA A1   (zeropage,x)   A:5A X:2 Y:69 P:5 SP:FB
3667 CFE5            CMP C9      immediate   A:5B X:2 Y:69 P:5 SP:FB
3670 CFE7            BNE D0      immediate   A:5B X:2 Y:69 P:7 SP:FB
3673 CFE9            INX E8        implied   A:5B X:2 Y:69 P:7 SP:FB
3676 CFEA            LDA A1   (zeropage,x)   A:5B X:3 Y:69 P:5 SP:FB
3683 CFEC            CMP C9      immediate   A:5C X:3 Y:69 P:5 SP:FB
3686 CFEE            BNE D0      immediate   A:5C X:3 Y:69 P:7 SP:FB
3689 CFF0            LDX A2      immediate   A:5C X:3 Y:69 P:7 SP:FB
3692 CFF2            LDA A1   (zeropage,x)   A:5C X:0 Y:69 P:7 SP:FB
3699 CFF4            CMP C9      immediate   A:5D X:0 Y:69 P:5 SP:FB
3702 CFF6            BNE D0      immediate   A:5D X:0 Y:69 P:7 SP:FB
3705 CFF8            LDX A2      immediate   A:5D X:0 Y:69 P:7 SP:FB
3708 CFFA            LDA A1   (zeropage,x)   A:5D X:81 Y:69 P:85 SP:FB
3715 CFFC            CMP C9      immediate   A:5A X:81 Y:69 P:5 SP:FB
3718 CFFE            BEQ F0      immediate   A:5A X:81 Y:69 P:7 SP:FB
3721 D005            LDA A9      immediate   A:5A X:81 Y:69 P:7 SP:FB
3724 D007            LDX A2      immediate   A:AA X:81 Y:69 P:85 SP:FB
3727 D009            STA 81   (zeropage,x)   A:AA X:0 Y:69 P:7 SP:FB
3734 D00B            INX E8        implied   A:AA X:0 Y:69 P:7 SP:FB
3737 D00C            INX E8        implied   A:AA X:1 Y:69 P:5 SP:FB
3740 D00D            LDA A9      immediate   A:AA X:2 Y:69 P:5 SP:FB
3743 D00F            STA 81   (zeropage,x)   A:AB X:2 Y:69 P:85 SP:FB
3750 D011            INX E8        implied   A:AB X:2 Y:69 P:85 SP:FB
3753 D012            LDA A9      immediate   A:AB X:3 Y:69 P:5 SP:FB
3756 D014            STA 81   (zeropage,x)   A:AC X:3 Y:69 P:85 SP:FB
3763 D016            LDX A2      immediate   A:AC X:3 Y:69 P:85 SP:FB
3766 D018            LDA A9      immediate   A:AC X:0 Y:69 P:7 SP:FB
3769 D01A            STA 81   (zeropage,x)   A:AD X:0 Y:69 P:85 SP:FB
3776 D01C            LDA AD       absolute   A:AD X:0 Y:69 P:85 SP:FB
3781 D01F            CMP C9      immediate   A:AA X:0 Y:69 P:85 SP:FB
3784 D021            BNE D0      immediate   A:AA X:0 Y:69 P:7 SP:FB
3787 D023            LDA AD       absolute   A:AA X:0 Y:69 P:7 SP:FB
3792 D026            CMP C9      immediate   A:AB X:0 Y:69 P:85 SP:FB
3795 D028            BNE D0      immediate   A:AB X:0 Y:69 P:7 SP:FB
3798 D02A            LDA AD       absolute   A:AB X:0 Y:69 P:7 SP:FB
3803 D02D            CMP C9      immediate   A:AC X:0 Y:69 P:85 SP:FB
3806 D02F            BNE D0      immediate   A:AC X:0 Y:69 P:7 SP:FB
3809 D031            LDA AD       absolute   A:AC X:0 Y:69 P:7 SP:FB
3814 D034            CMP C9      immediate   A:AD X:0 Y:69 P:85 SP:FB
3817 D036            BEQ F0      immediate   A:AD X:0 Y:69 P:7 SP:FB
3820 D03D            LDA AD       absolute   A:AD X:0 Y:69 P:7 SP:FB
3825 D040            STA 85       zeropage   A:0 X:0 Y:69 P:7 SP:FB
3829 D042            LDA A9      immediate   A:0 X:0 Y:69 P:7 SP:FB
3832 D044            STA 8D       absolute   A:0 X:0 Y:69 P:7 SP:FB
3837 D047            LDA A9      immediate   A:0 X:0 Y:69 P:7 SP:FB
3840 D049            STA 8D       absolute   A:AA X:0 Y:69 P:85 SP:FB
3845 D04C            LDX A2      immediate   A:AA X:0 Y:69 P:85 SP:FB
3848 D04E            LDY A0      immediate   A:AA X:0 Y:69 P:7 SP:FB
3851 D050            JSR 20       absolute   A:AA X:0 Y:5A P:5 SP:FB
3856 F7B6            CLC 18        implied   A:AA X:0 Y:5A P:5 SP:F9
3859 F7B7            LDA A9      immediate   A:AA X:0 Y:5A P:4 SP:F9
3862 F7B9            STA 85       zeropage   A:FF X:0 Y:5A P:84 SP:F9
3866 F7BB            BIT 24       zeropage   A:FF X:0 Y:5A P:84 SP:F9
3870 F7BD            LDA A9      immediate   A:FF X:0 Y:5A P:C4 SP:F9
3873 F7BF            RTS 60        implied   A:55 X:0 Y:5A P:44 SP:F9
3880 D053            ORA 1   (zeropage,x)   A:55 X:0 Y:5A P:44 SP:FB
3887 D055            JSR 20       absolute   A:FF X:0 Y:5A P:C4 SP:FB
3892 F7C0            BCS B0      immediate   A:FF X:0 Y:5A P:C4 SP:F9
3895 F7C2            BPL 10      immediate   A:FF X:0 Y:5A P:C4 SP:F9
3898 F7C4            CMP C9      immediate   A:FF X:0 Y:5A P:C4 SP:F9
3901 F7C6            BNE D0      immediate   A:FF X:0 Y:5A P:47 SP:F9
3904 F7C8            BVC 50      immediate   A:FF X:0 Y:5A P:47 SP:F9
3907 F7CA            RTS 60        implied   A:FF X:0 Y:5A P:47 SP:F9
3914 D058            INY C8        implied   A:FF X:0 Y:5A P:47 SP:FB
3917 D059            JSR 20       absolute   A:FF X:0 Y:5B P:45 SP:FB
3922 F7CE            SEC 38        implied   A:FF X:0 Y:5B P:45 SP:F9
3925 F7CF            CLV B8        implied   A:FF X:0 Y:5B P:45 SP:F9
3928 F7D0            LDA A9      immediate   A:FF X:0 Y:5B P:5 SP:F9
3931 F7D2            RTS 60        implied   A:0 X:0 Y:5B P:7 SP:F9
3938 D05C            ORA 1   (zeropage,x)   A:0 X:0 Y:5B P:7 SP:FB
3945 D05E            JSR 20       absolute   A:0 X:0 Y:5B P:7 SP:FB
3950 F7D3            BNE D0      immediate   A:0 X:0 Y:5B P:7 SP:F9
3953 F7D5            BVS 70      immediate   A:0 X:0 Y:5B P:7 SP:F9
3956 F7D7            BCC 90      immediate   A:0 X:0 Y:5B P:7 SP:F9
3959 F7D9            BMI 30      immediate   A:0 X:0 Y:5B P:7 SP:F9
3962 F7DB            RTS 60        implied   A:0 X:0 Y:5B P:7 SP:F9
3969 D061            INY C8        implied   A:0 X:0 Y:5B P:7 SP:FB
3972 D062            JSR 20       absolute   A:0 X:0 Y:5C P:5 SP:FB
3977 F7DF            CLC 18        implied   A:0 X:0 Y:5C P:5 SP:F9
3980 F7E0            BIT 24       zeropage   A:0 X:0 Y:5C P:4 SP:F9
3984 F7E2            LDA A9      immediate   A:0 X:0 Y:5C P:C6 SP:F9
3987 F7E4            RTS 60        implied   A:55 X:0 Y:5C P:44 SP:F9
3994 D065            AND 21   (zeropage,x)   A:55 X:0 Y:5C P:44 SP:FB
4001 D067            JSR 20       absolute   A:0 X:0 Y:5C P:46 SP:FB
4006 F7E5            BNE D0      immediate   A:0 X:0 Y:5C P:46 SP:F9
4009 F7E7            BVC 50      immediate   A:0 X:0 Y:5C P:46 SP:F9
4012 F7E9            BCS B0      immediate   A:0 X:0 Y:5C P:46 SP:F9
4015 F7EB            BMI 30      immediate   A:0 X:0 Y:5C P:46 SP:F9
4018 F7ED            RTS 60        implied   A:0 X:0 Y:5C P:46 SP:F9
4025 D06A            INY C8        implied   A:0 X:0 Y:5C P:46 SP:FB
4028 D06B            LDA A9      immediate   A:0 X:0 Y:5D P:44 SP:FB
4031 D06D            STA 8D       absolute   A:EF X:0 Y:5D P:C4 SP:FB
4036 D070            JSR 20       absolute   A:EF X:0 Y:5D P:C4 SP:FB
4041 F7F1            SEC 38        implied   A:EF X:0 Y:5D P:C4 SP:F9
4044 F7F2            CLV B8        implied   A:EF X:0 Y:5D P:C5 SP:F9
4047 F7F3            LDA A9      immediate   A:EF X:0 Y:5D P:85 SP:F9
4050 F7F5            RTS 60        implied   A:F8 X:0 Y:5D P:85 SP:F9
4057 D073            AND 21   (zeropage,x)   A:F8 X:0 Y:5D P:85 SP:FB
4064 D075            JSR 20       absolute   A:E8 X:0 Y:5D P:85 SP:FB
4069 F7F6            BCC 90      immediate   A:E8 X:0 Y:5D P:85 SP:F9
4072 F7F8            BPL 10      immediate   A:E8 X:0 Y:5D P:85 SP:F9
4075 F7FA            CMP C9      immediate   A:E8 X:0 Y:5D P:85 SP:F9
4078 F7FC            BNE D0      immediate   A:E8 X:0 Y:5D P:7 SP:F9
4081 F7FE            BVS 70      immediate   A:E8 X:0 Y:5D P:7 SP:F9
4084 F800            RTS 60        implied   A:E8 X:0 Y:5D P:7 SP:F9
4091 D078            INY C8        implied   A:E8 X:0 Y:5D P:7 SP:FB
4094 D079            JSR 20       absolute   A:E8 X:0 Y:5E P:5 SP:FB
4099 F804            CLC 18        implied   A:E8 X:0 Y:5E P:5 SP:F9
4102 F805            BIT 24       zeropage   A:E8 X:0 Y:5E P:4 SP:F9
4106 F807            LDA A9      immediate   A:E8 X:0 Y:5E P:C4 SP:F9
4109 F809            RTS 60        implied   A:5F X:0 Y:5E P:44 SP:F9
4116 D07C            EOR 41   (zeropage,x)   A:5F X:0 Y:5E P:44 SP:FB
4123 D07E            JSR 20       absolute   A:F5 X:0 Y:5E P:C4 SP:FB
4128 F80A            BCS B0      immediate   A:F5 X:0 Y:5E P:C4 SP:F9
4131 F80C            BPL 10      immediate   A:F5 X:0 Y:5E P:C4 SP:F9
4134 F80E            CMP C9      immediate   A:F5 X:0 Y:5E P:C4 SP:F9
4137 F810            BNE D0      immediate   A:F5 X:0 Y:5E P:47 SP:F9
4140 F812            BVC 50      immediate   A:F5 X:0 Y:5E P:47 SP:F9
4143 F814            RTS 60        implied   A:F5 X:0 Y:5E P:47 SP:F9
4150 D081            INY C8        implied   A:F5 X:0 Y:5E P:47 SP:FB
4153 D082            LDA A9      immediate   A:F5 X:0 Y:5F P:45 SP:FB
4156 D084            STA 8D       absolute   A:70 X:0 Y:5F P:45 SP:FB
4161 D087            JSR 20       absolute   A:70 X:0 Y:5F P:45 SP:FB
4166 F818            SEC 38        implied   A:70 X:0 Y:5F P:45 SP:F9
4169 F819            CLV B8        implied   A:70 X:0 Y:5F P:45 SP:F9
4172 F81A            LDA A9      immediate   A:70 X:0 Y:5F P:5 SP:F9
4175 F81C            RTS 60        implied   A:70 X:0 Y:5F P:5 SP:F9
4182 D08A            EOR 41   (zeropage,x)   A:70 X:0 Y:5F P:5 SP:FB
4189 D08C            JSR 20       absolute   A:0 X:0 Y:5F P:7 SP:FB
4194 F81D            BNE D0      immediate   A:0 X:0 Y:5F P:7 SP:F9
4197 F81F            BVS 70      immediate   A:0 X:0 Y:5F P:7 SP:F9
4200 F821            BCC 90      immediate   A:0 X:0 Y:5F P:7 SP:F9
4203 F823            BMI 30      immediate   A:0 X:0 Y:5F P:7 SP:F9
4206 F825            RTS 60        implied   A:0 X:0 Y:5F P:7 SP:F9
4213 D08F            INY C8        implied   A:0 X:0 Y:5F P:7 SP:FB
4216 D090            LDA A9      immediate   A:0 X:0 Y:60 P:5 SP:FB
4219 D092            STA 8D       absolute   A:69 X:0 Y:60 P:5 SP:FB
4224 D095            JSR 20       absolute   A:69 X:0 Y:60 P:5 SP:FB
4229 F829            CLC 18        implied   A:69 X:0 Y:60 P:5 SP:F9
4232 F82A            BIT 24       zeropage   A:69 X:0 Y:60 P:4 SP:F9
4236 F82C            LDA A9      immediate   A:69 X:0 Y:60 P:C4 SP:F9
4239 F82E            RTS 60        implied   A:0 X:0 Y:60 P:46 SP:F9
4246 D098            ADC 61   (zeropage,x)   A:0 X:0 Y:60 P:46 SP:FB
4253 D09A            JSR 20       absolute   A:69 X:0 Y:60 P:4 SP:FB
4258 F82F            BMI 30      immediate   A:69 X:0 Y:60 P:4 SP:F9
4261 F831            BCS B0      immediate   A:69 X:0 Y:60 P:4 SP:F9
4264 F833            CMP C9      immediate   A:69 X:0 Y:60 P:4 SP:F9
4267 F835            BNE D0      immediate   A:69 X:0 Y:60 P:7 SP:F9
4270 F837            BVS 70      immediate   A:69 X:0 Y:60 P:7 SP:F9
4273 F839            RTS 60        implied   A:69 X:0 Y:60 P:7 SP:F9
4280 D09D            INY C8        implied   A:69 X:0 Y:60 P:7 SP:FB
4283 D09E            JSR 20       absolute   A:69 X:0 Y:61 P:5 SP:FB
4288 F83D            SEC 38        implied   A:69 X:0 Y:61 P:5 SP:F9
4291 F83E            BIT 24       zeropage   A:69 X:0 Y:61 P:5 SP:F9
4295 F840            LDA A9      immediate   A:69 X:0 Y:61 P:C5 SP:F9
4298 F842            RTS 60        implied   A:0 X:0 Y:61 P:47 SP:F9
4305 D0A1            ADC 61   (zeropage,x)   A:0 X:0 Y:61 P:47 SP:FB
4312 D0A3            JSR 20       absolute   A:6A X:0 Y:61 P:4 SP:FB
4317 F843            BMI 30      immediate   A:6A X:0 Y:61 P:4 SP:F9
4320 F845            BCS B0      immediate   A:6A X:0 Y:61 P:4 SP:F9
4323 F847            CMP C9      immediate   A:6A X:0 Y:61 P:4 SP:F9
4326 F849            BNE D0      immediate   A:6A X:0 Y:61 P:7 SP:F9
4329 F84B            BVS 70      immediate   A:6A X:0 Y:61 P:7 SP:F9
4332 F84D            RTS 60        implied   A:6A X:0 Y:61 P:7 SP:F9
4339 D0A6            INY C8        implied   A:6A X:0 Y:61 P:7 SP:FB
4342 D0A7            LDA A9      immediate   A:6A X:0 Y:62 P:5 SP:FB
4345 D0A9            STA 8D       absolute   A:7F X:0 Y:62 P:5 SP:FB
4350 D0AC            JSR 20       absolute   A:7F X:0 Y:62 P:5 SP:FB
4355 F851            SEC 38        implied   A:7F X:0 Y:62 P:5 SP:F9
4358 F852            CLV B8        implied   A:7F X:0 Y:62 P:5 SP:F9
4361 F853            LDA A9      immediate   A:7F X:0 Y:62 P:5 SP:F9
4364 F855            RTS 60        implied   A:7F X:0 Y:62 P:5 SP:F9
4371 D0AF            ADC 61   (zeropage,x)   A:7F X:0 Y:62 P:5 SP:FB
4378 D0B1            JSR 20       absolute   A:FF X:0 Y:62 P:C4 SP:FB
4383 F856            BPL 10      immediate   A:FF X:0 Y:62 P:C4 SP:F9
4386 F858            BCS B0      immediate   A:FF X:0 Y:62 P:C4 SP:F9
4389 F85A            CMP C9      immediate   A:FF X:0 Y:62 P:C4 SP:F9
4392 F85C            BNE D0      immediate   A:FF X:0 Y:62 P:47 SP:F9
4395 F85E            BVC 50      immediate   A:FF X:0 Y:62 P:47 SP:F9
4398 F860            RTS 60        implied   A:FF X:0 Y:62 P:47 SP:F9
4405 D0B4            INY C8        implied   A:FF X:0 Y:62 P:47 SP:FB
4408 D0B5            LDA A9      immediate   A:FF X:0 Y:63 P:45 SP:FB
4411 D0B7            STA 8D       absolute   A:80 X:0 Y:63 P:C5 SP:FB
4416 D0BA            JSR 20       absolute   A:80 X:0 Y:63 P:C5 SP:FB
4421 F864            CLC 18        implied   A:80 X:0 Y:63 P:C5 SP:F9
4424 F865            BIT 24       zeropage   A:80 X:0 Y:63 P:C4 SP:F9
4428 F867            LDA A9      immediate   A:80 X:0 Y:63 P:C4 SP:F9
4431 F869            RTS 60        implied   A:7F X:0 Y:63 P:44 SP:F9
4438 D0BD            ADC 61   (zeropage,x)   A:7F X:0 Y:63 P:44 SP:FB
4445 D0BF            JSR 20       absolute   A:FF X:0 Y:63 P:84 SP:FB
4450 F86A            BPL 10      immediate   A:FF X:0 Y:63 P:84 SP:F9
4453 F86C            BCS B0      immediate   A:FF X:0 Y:63 P:84 SP:F9
4456 F86E            CMP C9      immediate   A:FF X:0 Y:63 P:84 SP:F9
4459 F870            BNE D0      immediate   A:FF X:0 Y:63 P:7 SP:F9
4462 F872            BVS 70      immediate   A:FF X:0 Y:63 P:7 SP:F9
4465 F874            RTS 60        implied   A:FF X:0 Y:63 P:7 SP:F9
4472 D0C2            INY C8        implied   A:FF X:0 Y:63 P:7 SP:FB
4475 D0C3            JSR 20       absolute   A:FF X:0 Y:64 P:5 SP:FB
4480 F878            SEC 38        implied   A:FF X:0 Y:64 P:5 SP:F9
4483 F879            CLV B8        implied   A:FF X:0 Y:64 P:5 SP:F9
4486 F87A            LDA A9      immediate   A:FF X:0 Y:64 P:5 SP:F9
4489 F87C            RTS 60        implied   A:7F X:0 Y:64 P:5 SP:F9
4496 D0C6            ADC 61   (zeropage,x)   A:7F X:0 Y:64 P:5 SP:FB
4503 D0C8            JSR 20       absolute   A:0 X:0 Y:64 P:7 SP:FB
4508 F87D            BNE D0      immediate   A:0 X:0 Y:64 P:7 SP:F9
4511 F87F            BMI 30      immediate   A:0 X:0 Y:64 P:7 SP:F9
4514 F881            BVS 70      immediate   A:0 X:0 Y:64 P:7 SP:F9
4517 F883            BCC 90      immediate   A:0 X:0 Y:64 P:7 SP:F9
4520 F885            RTS 60        implied   A:0 X:0 Y:64 P:7 SP:F9
4527 D0CB            INY C8        implied   A:0 X:0 Y:64 P:7 SP:FB
4530 D0CC            LDA A9      immediate   A:0 X:0 Y:65 P:5 SP:FB
4533 D0CE            STA 8D       absolute   A:40 X:0 Y:65 P:5 SP:FB
4538 D0D1            JSR 20       absolute   A:40 X:0 Y:65 P:5 SP:FB
4543 F889            BIT 24       zeropage   A:40 X:0 Y:65 P:5 SP:F9
4547 F88B            LDA A9      immediate   A:40 X:0 Y:65 P:C5 SP:F9
4550 F88D            RTS 60        implied   A:40 X:0 Y:65 P:45 SP:F9
4557 D0D4            CMP C1   (zeropage,x)   A:40 X:0 Y:65 P:45 SP:FB
4564 D0D6            JSR 20       absolute   A:40 X:0 Y:65 P:47 SP:FB
4569 F88E            BMI 30      immediate   A:40 X:0 Y:65 P:47 SP:F9
4572 F890            BCC 90      immediate   A:40 X:0 Y:65 P:47 SP:F9
4575 F892            BNE D0      immediate   A:40 X:0 Y:65 P:47 SP:F9
4578 F894            BVC 50      immediate   A:40 X:0 Y:65 P:47 SP:F9
4581 F896            RTS 60        implied   A:40 X:0 Y:65 P:47 SP:F9
4588 D0D9            INY C8        implied   A:40 X:0 Y:65 P:47 SP:FB
4591 D0DA            PHA 48        implied   A:40 X:0 Y:66 P:45 SP:FB
4595 D0DB            LDA A9      immediate   A:40 X:0 Y:66 P:45 SP:FA
4598 D0DD            STA 8D       absolute   A:3F X:0 Y:66 P:45 SP:FA
4603 D0E0            PLA 68        implied   A:3F X:0 Y:66 P:45 SP:FA
4608 D0E1            JSR 20       absolute   A:40 X:0 Y:66 P:45 SP:FB
4613 F89A            CLV B8        implied   A:40 X:0 Y:66 P:45 SP:F9
4616 F89B            RTS 60        implied   A:40 X:0 Y:66 P:5 SP:F9
4623 D0E4            CMP C1   (zeropage,x)   A:40 X:0 Y:66 P:5 SP:FB
4630 D0E6            JSR 20       absolute   A:40 X:0 Y:66 P:5 SP:FB
4635 F89C            BEQ F0      immediate   A:40 X:0 Y:66 P:5 SP:F9
4638 F89E            BMI 30      immediate   A:40 X:0 Y:66 P:5 SP:F9
4641 F8A0            BCC 90      immediate   A:40 X:0 Y:66 P:5 SP:F9
4644 F8A2            BVS 70      immediate   A:40 X:0 Y:66 P:5 SP:F9
4647 F8A4            RTS 60        implied   A:40 X:0 Y:66 P:5 SP:F9
4654 D0E9            INY C8        implied   A:40 X:0 Y:66 P:5 SP:FB
4657 D0EA            PHA 48        implied   A:40 X:0 Y:67 P:5 SP:FB
4661 D0EB            LDA A9      immediate   A:40 X:0 Y:67 P:5 SP:FA
4664 D0ED            STA 8D       absolute   A:41 X:0 Y:67 P:5 SP:FA
4669 D0F0            PLA 68        implied   A:41 X:0 Y:67 P:5 SP:FA
4674 D0F1            CMP C1   (zeropage,x)   A:40 X:0 Y:67 P:5 SP:FB
4681 D0F3            JSR 20       absolute   A:40 X:0 Y:67 P:84 SP:FB
4686 F8A8            BEQ F0      immediate   A:40 X:0 Y:67 P:84 SP:F9
4689 F8AA            BPL 10      immediate   A:40 X:0 Y:67 P:84 SP:F9
4692 F8AC            BPL 10      immediate   A:40 X:0 Y:67 P:84 SP:F9
4695 F8AE            RTS 60        implied   A:40 X:0 Y:67 P:84 SP:F9
4702 D0F6            INY C8        implied   A:40 X:0 Y:67 P:84 SP:FB
4705 D0F7            PHA 48        implied   A:40 X:0 Y:68 P:4 SP:FB
4709 D0F8            LDA A9      immediate   A:40 X:0 Y:68 P:4 SP:FA
4712 D0FA            STA 8D       absolute   A:0 X:0 Y:68 P:6 SP:FA
4717 D0FD            PLA 68        implied   A:0 X:0 Y:68 P:6 SP:FA
4722 D0FE            JSR 20       absolute   A:40 X:0 Y:68 P:4 SP:FB
4727 F8B2            LDA A9      immediate   A:40 X:0 Y:68 P:4 SP:F9
4730 F8B4            RTS 60        implied   A:80 X:0 Y:68 P:84 SP:F9
4737 D101            CMP C1   (zeropage,x)   A:80 X:0 Y:68 P:84 SP:FB
4744 D103            JSR 20       absolute   A:80 X:0 Y:68 P:85 SP:FB
4749 F8B5            BEQ F0      immediate   A:80 X:0 Y:68 P:85 SP:F9
4752 F8B7            BPL 10      immediate   A:80 X:0 Y:68 P:85 SP:F9
4755 F8B9            BCC 90      immediate   A:80 X:0 Y:68 P:85 SP:F9
4758 F8BB            RTS 60        implied   A:80 X:0 Y:68 P:85 SP:F9
4765 D106            INY C8        implied   A:80 X:0 Y:68 P:85 SP:FB
4768 D107            PHA 48        implied   A:80 X:0 Y:69 P:5 SP:FB
4772 D108            LDA A9      immediate   A:80 X:0 Y:69 P:5 SP:FA
4775 D10A            STA 8D       absolute   A:80 X:0 Y:69 P:85 SP:FA
4780 D10D            PLA 68        implied   A:80 X:0 Y:69 P:85 SP:FA
4785 D10E            CMP C1   (zeropage,x)   A:80 X:0 Y:69 P:85 SP:FB
4792 D110            JSR 20       absolute   A:80 X:0 Y:69 P:7 SP:FB
4797 F8BF            BNE D0      immediate   A:80 X:0 Y:69 P:7 SP:F9
4800 F8C1            BMI 30      immediate   A:80 X:0 Y:69 P:7 SP:F9
4803 F8C3            BCC 90      immediate   A:80 X:0 Y:69 P:7 SP:F9
4806 F8C5            RTS 60        implied   A:80 X:0 Y:69 P:7 SP:F9
4813 D113            INY C8        implied   A:80 X:0 Y:69 P:7 SP:FB
4816 D114            PHA 48        implied   A:80 X:0 Y:6A P:5 SP:FB
4820 D115            LDA A9      immediate   A:80 X:0 Y:6A P:5 SP:FA
4823 D117            STA 8D       absolute   A:81 X:0 Y:6A P:85 SP:FA
4828 D11A            PLA 68        implied   A:81 X:0 Y:6A P:85 SP:FA
4833 D11B            CMP C1   (zeropage,x)   A:80 X:0 Y:6A P:85 SP:FB
4840 D11D            JSR 20       absolute   A:80 X:0 Y:6A P:84 SP:FB
4845 F8C9            BCS B0      immediate   A:80 X:0 Y:6A P:84 SP:F9
4848 F8CB            BEQ F0      immediate   A:80 X:0 Y:6A P:84 SP:F9
4851 F8CD            BPL 10      immediate   A:80 X:0 Y:6A P:84 SP:F9
4854 F8CF            RTS 60        implied   A:80 X:0 Y:6A P:84 SP:F9
4861 D120            INY C8        implied   A:80 X:0 Y:6A P:84 SP:FB
4864 D121            PHA 48        implied   A:80 X:0 Y:6B P:4 SP:FB
4868 D122            LDA A9      immediate   A:80 X:0 Y:6B P:4 SP:FA
4871 D124            STA 8D       absolute   A:7F X:0 Y:6B P:4 SP:FA
4876 D127            PLA 68        implied   A:7F X:0 Y:6B P:4 SP:FA
4881 D128            CMP C1   (zeropage,x)   A:80 X:0 Y:6B P:84 SP:FB
4888 D12A            JSR 20       absolute   A:80 X:0 Y:6B P:5 SP:FB
4893 F8D3            BCC 90      immediate   A:80 X:0 Y:6B P:5 SP:F9
4896 F8D5            BEQ F0      immediate   A:80 X:0 Y:6B P:5 SP:F9
4899 F8D7            BMI 30      immediate   A:80 X:0 Y:6B P:5 SP:F9
4902 F8D9            RTS 60        implied   A:80 X:0 Y:6B P:5 SP:F9
4909 D12D            INY C8        implied   A:80 X:0 Y:6B P:5 SP:FB
4912 D12E            LDA A9      immediate   A:80 X:0 Y:6C P:5 SP:FB
4915 D130            STA 8D       absolute   A:40 X:0 Y:6C P:5 SP:FB
4920 D133            JSR 20       absolute   A:40 X:0 Y:6C P:5 SP:FB
4925 F931            BIT 24       zeropage   A:40 X:0 Y:6C P:5 SP:F9
4929 F933            LDA A9      immediate   A:40 X:0 Y:6C P:C5 SP:F9
4932 F935            SEC 38        implied   A:40 X:0 Y:6C P:45 SP:F9
4935 F936            RTS 60        implied   A:40 X:0 Y:6C P:45 SP:F9
4942 D136            SBC E1   (zeropage,x)   A:40 X:0 Y:6C P:45 SP:FB
4949 D138            JSR 20       absolute   A:0 X:0 Y:6C P:7 SP:FB
4954 F937            BMI 30      immediate   A:0 X:0 Y:6C P:7 SP:F9
4957 F939            BCC 90      immediate   A:0 X:0 Y:6C P:7 SP:F9
4960 F93B            BNE D0      immediate   A:0 X:0 Y:6C P:7 SP:F9
4963 F93D            BVS 70      immediate   A:0 X:0 Y:6C P:7 SP:F9
4966 F93F            CMP C9      immediate   A:0 X:0 Y:6C P:7 SP:F9
4969 F941            BNE D0      immediate   A:0 X:0 Y:6C P:7 SP:F9
4972 F943            RTS 60        implied   A:0 X:0 Y:6C P:7 SP:F9
4979 D13B            INY C8        implied   A:0 X:0 Y:6C P:7 SP:FB
4982 D13C            LDA A9      immediate   A:0 X:0 Y:6D P:5 SP:FB
4985 D13E            STA 8D       absolute   A:3F X:0 Y:6D P:5 SP:FB
4990 D141            JSR 20       absolute   A:3F X:0 Y:6D P:5 SP:FB
4995 F947            CLV B8        implied   A:3F X:0 Y:6D P:5 SP:F9
4998 F948            SEC 38        implied   A:3F X:0 Y:6D P:5 SP:F9
5001 F949            LDA A9      immediate   A:3F X:0 Y:6D P:5 SP:F9
5004 F94B            RTS 60        implied   A:40 X:0 Y:6D P:5 SP:F9
5011 D144            SBC E1   (zeropage,x)   A:40 X:0 Y:6D P:5 SP:FB
5018 D146            JSR 20       absolute   A:1 X:0 Y:6D P:5 SP:FB
5023 F94C            BEQ F0      immediate   A:1 X:0 Y:6D P:5 SP:F9
5026 F94E            BMI 30      immediate   A:1 X:0 Y:6D P:5 SP:F9
5029 F950            BCC 90      immediate   A:1 X:0 Y:6D P:5 SP:F9
5032 F952            BVS 70      immediate   A:1 X:0 Y:6D P:5 SP:F9
5035 F954            CMP C9      immediate   A:1 X:0 Y:6D P:5 SP:F9
5038 F956            BNE D0      immediate   A:1 X:0 Y:6D P:7 SP:F9
5041 F958            RTS 60        implied   A:1 X:0 Y:6D P:7 SP:F9
5048 D149            INY C8        implied   A:1 X:0 Y:6D P:7 SP:FB
5051 D14A            LDA A9      immediate   A:1 X:0 Y:6E P:5 SP:FB
5054 D14C            STA 8D       absolute   A:41 X:0 Y:6E P:5 SP:FB
5059 D14F            JSR 20       absolute   A:41 X:0 Y:6E P:5 SP:FB
5064 F95C            LDA A9      immediate   A:41 X:0 Y:6E P:5 SP:F9
5067 F95E            SEC 38        implied   A:40 X:0 Y:6E P:5 SP:F9
5070 F95F            BIT 24       zeropage   A:40 X:0 Y:6E P:5 SP:F9
5074 F961            RTS 60        implied   A:40 X:0 Y:6E P:C5 SP:F9
5081 D152            SBC E1   (zeropage,x)   A:40 X:0 Y:6E P:C5 SP:FB
5088 D154            JSR 20       absolute   A:FF X:0 Y:6E P:84 SP:FB
5093 F962            BCS B0      immediate   A:FF X:0 Y:6E P:84 SP:F9
5096 F964            BEQ F0      immediate   A:FF X:0 Y:6E P:84 SP:F9
5099 F966            BPL 10      immediate   A:FF X:0 Y:6E P:84 SP:F9
5102 F968            BVS 70      immediate   A:FF X:0 Y:6E P:84 SP:F9
5105 F96A            CMP C9      immediate   A:FF X:0 Y:6E P:84 SP:F9
5108 F96C            BNE D0      immediate   A:FF X:0 Y:6E P:7 SP:F9
5111 F96E            RTS 60        implied   A:FF X:0 Y:6E P:7 SP:F9
5118 D157            INY C8        implied   A:FF X:0 Y:6E P:7 SP:FB
5121 D158            LDA A9      immediate   A:FF X:0 Y:6F P:5 SP:FB
5124 D15A            STA 8D       absolute   A:0 X:0 Y:6F P:7 SP:FB
5129 D15D            JSR 20       absolute   A:0 X:0 Y:6F P:7 SP:FB
5134 F972            CLC 18        implied   A:0 X:0 Y:6F P:7 SP:F9
5137 F973            LDA A9      immediate   A:0 X:0 Y:6F P:6 SP:F9
5140 F975            RTS 60        implied   A:80 X:0 Y:6F P:84 SP:F9
5147 D160            SBC E1   (zeropage,x)   A:80 X:0 Y:6F P:84 SP:FB
5154 D162            JSR 20       absolute   A:7F X:0 Y:6F P:45 SP:FB
5159 F976            BCC 90      immediate   A:7F X:0 Y:6F P:45 SP:F9
5162 F978            CMP C9      immediate   A:7F X:0 Y:6F P:45 SP:F9
5165 F97A            BNE D0      immediate   A:7F X:0 Y:6F P:47 SP:F9
5168 F97C            RTS 60        implied   A:7F X:0 Y:6F P:47 SP:F9
5175 D165            INY C8        implied   A:7F X:0 Y:6F P:47 SP:FB
5178 D166            LDA A9      immediate   A:7F X:0 Y:70 P:45 SP:FB
5181 D168            STA 8D       absolute   A:7F X:0 Y:70 P:45 SP:FB
5186 D16B            JSR 20       absolute   A:7F X:0 Y:70 P:45 SP:FB
5191 F980            SEC 38        implied   A:7F X:0 Y:70 P:45 SP:F9
5194 F981            LDA A9      immediate   A:7F X:0 Y:70 P:45 SP:F9
5197 F983            RTS 60        implied   A:81 X:0 Y:70 P:C5 SP:F9
5204 D16E            SBC E1   (zeropage,x)   A:81 X:0 Y:70 P:C5 SP:FB
5211 D170            JSR 20       absolute   A:2 X:0 Y:70 P:45 SP:FB
5216 F984            BVC 50      immediate   A:2 X:0 Y:70 P:45 SP:F9
5219 F986            BCC 90      immediate   A:2 X:0 Y:70 P:45 SP:F9
5222 F988            CMP C9      immediate   A:2 X:0 Y:70 P:45 SP:F9
5225 F98A            BNE D0      immediate   A:2 X:0 Y:70 P:47 SP:F9
5228 F98C            RTS 60        implied   A:2 X:0 Y:70 P:47 SP:F9
5235 D173            RTS 60        implied   A:2 X:0 Y:70 P:47 SP:FB
5242 C612            JSR 20       absolute   A:2 X:0 Y:70 P:47 SP:FD
5247 D174            LDA A9      immediate   A:2 X:0 Y:70 P:47 SP:FB
5250 D176            STA 85       zeropage   A:55 X:0 Y:70 P:45 SP:FB
5254 D178            LDA A9      immediate   A:55 X:0 Y:70 P:45 SP:FB
5257 D17A            STA 85       zeropage   A:FF X:0 Y:70 P:C5 SP:FB
5261 D17C            BIT 24       zeropage   A:FF X:0 Y:70 P:C5 SP:FB
5265 D17E            LDY A0      immediate   A:FF X:0 Y:70 P:C5 SP:FB
5268 D180            LDX A2      immediate   A:FF X:0 Y:11 P:45 SP:FB
5271 D182            LDA A9      immediate   A:FF X:23 Y:11 P:45 SP:FB
5274 D184            LDA A5       zeropage   A:0 X:23 Y:11 P:47 SP:FB
5278 D186            BEQ F0      immediate   A:55 X:23 Y:11 P:45 SP:FB
5281 D188            BMI 30      immediate   A:55 X:23 Y:11 P:45 SP:FB
5284 D18A            CMP C9      immediate   A:55 X:23 Y:11 P:45 SP:FB
5287 D18C            BNE D0      immediate   A:55 X:23 Y:11 P:47 SP:FB
5290 D18E            CPY C0      immediate   A:55 X:23 Y:11 P:47 SP:FB
5293 D190            BNE D0      immediate   A:55 X:23 Y:11 P:47 SP:FB
5296 D192            CPX E0      immediate   A:55 X:23 Y:11 P:47 SP:FB
5299 D194            BVC 50      immediate   A:55 X:23 Y:11 P:47 SP:FB
5302 D196            BEQ F0      immediate   A:55 X:23 Y:11 P:47 SP:FB
5305 D19C            LDA A9      immediate   A:55 X:23 Y:11 P:47 SP:FB
5308 D19E            BIT 24       zeropage   A:46 X:23 Y:11 P:45 SP:FB
5312 D1A0            STA 85       zeropage   A:46 X:23 Y:11 P:C5 SP:FB
5316 D1A2            BEQ F0      immediate   A:46 X:23 Y:11 P:C5 SP:FB
5319 D1A4            BPL 10      immediate   A:46 X:23 Y:11 P:C5 SP:FB
5322 D1A6            BVC 50      immediate   A:46 X:23 Y:11 P:C5 SP:FB
5325 D1A8            LDA A5       zeropage   A:46 X:23 Y:11 P:C5 SP:FB
5329 D1AA            CMP C9      immediate   A:46 X:23 Y:11 P:45 SP:FB
5332 D1AC            BEQ F0      immediate   A:46 X:23 Y:11 P:47 SP:FB
5335 D1B2            LDA A9      immediate   A:46 X:23 Y:11 P:47 SP:FB
5338 D1B4            STA 85       zeropage   A:55 X:23 Y:11 P:45 SP:FB
5342 D1B6            BIT 24       zeropage   A:55 X:23 Y:11 P:45 SP:FB
5346 D1B8            LDA A9      immediate   A:55 X:23 Y:11 P:C5 SP:FB
5349 D1BA            LDX A2      immediate   A:11 X:23 Y:11 P:45 SP:FB
5352 D1BC            LDY A0      immediate   A:11 X:23 Y:11 P:45 SP:FB
5355 D1BE            LDY A4       zeropage   A:11 X:23 Y:0 P:47 SP:FB
5359 D1C0            BEQ F0      immediate   A:11 X:23 Y:55 P:45 SP:FB
5362 D1C2            BMI 30      immediate   A:11 X:23 Y:55 P:45 SP:FB
5365 D1C4            CPY C0      immediate   A:11 X:23 Y:55 P:45 SP:FB
5368 D1C6            BNE D0      immediate   A:11 X:23 Y:55 P:47 SP:FB
5371 D1C8            CMP C9      immediate   A:11 X:23 Y:55 P:47 SP:FB
5374 D1CA            BNE D0      immediate   A:11 X:23 Y:55 P:47 SP:FB
5377 D1CC            CPX E0      immediate   A:11 X:23 Y:55 P:47 SP:FB
5380 D1CE            BVC 50      immediate   A:11 X:23 Y:55 P:47 SP:FB
5383 D1D0            BEQ F0      immediate   A:11 X:23 Y:55 P:47 SP:FB
5386 D1D6            LDY A0      immediate   A:11 X:23 Y:55 P:47 SP:FB
5389 D1D8            BIT 24       zeropage   A:11 X:23 Y:46 P:45 SP:FB
5393 D1DA            STY 84       zeropage   A:11 X:23 Y:46 P:C5 SP:FB
5397 D1DC            BEQ F0      immediate   A:11 X:23 Y:46 P:C5 SP:FB
5400 D1DE            BPL 10      immediate   A:11 X:23 Y:46 P:C5 SP:FB
5403 D1E0            BVC 50      immediate   A:11 X:23 Y:46 P:C5 SP:FB
5406 D1E2            LDY A4       zeropage   A:11 X:23 Y:46 P:C5 SP:FB
5410 D1E4            CPY C0      immediate   A:11 X:23 Y:46 P:45 SP:FB
5413 D1E6            BEQ F0      immediate   A:11 X:23 Y:46 P:47 SP:FB
5416 D1EC            BIT 24       zeropage   A:11 X:23 Y:46 P:47 SP:FB
5420 D1EE            LDA A9      immediate   A:11 X:23 Y:46 P:C5 SP:FB
5423 D1F0            STA 85       zeropage   A:55 X:23 Y:46 P:45 SP:FB
5427 D1F2            LDY A0      immediate   A:55 X:23 Y:46 P:45 SP:FB
5430 D1F4            LDA A9      immediate   A:55 X:23 Y:11 P:45 SP:FB
5433 D1F6            LDX A2      immediate   A:23 X:23 Y:11 P:45 SP:FB
5436 D1F8            LDX A6       zeropage   A:23 X:0 Y:11 P:47 SP:FB
5440 D1FA            BEQ F0      immediate   A:23 X:55 Y:11 P:45 SP:FB
5443 D1FC            BMI 30      immediate   A:23 X:55 Y:11 P:45 SP:FB
5446 D1FE            CPX E0      immediate   A:23 X:55 Y:11 P:45 SP:FB
5449 D200            BNE D0      immediate   A:23 X:55 Y:11 P:47 SP:FB
5452 D202            CPY C0      immediate   A:23 X:55 Y:11 P:47 SP:FB
5455 D204            BNE D0      immediate   A:23 X:55 Y:11 P:47 SP:FB
5458 D206            CMP C9      immediate   A:23 X:55 Y:11 P:47 SP:FB
5461 D208            BVC 50      immediate   A:23 X:55 Y:11 P:47 SP:FB
5464 D20A            BEQ F0      immediate   A:23 X:55 Y:11 P:47 SP:FB
5467 D210            LDX A2      immediate   A:23 X:55 Y:11 P:47 SP:FB
5470 D212            BIT 24       zeropage   A:23 X:46 Y:11 P:45 SP:FB
5474 D214            STX 86       zeropage   A:23 X:46 Y:11 P:C5 SP:FB
5478 D216            BEQ F0      immediate   A:23 X:46 Y:11 P:C5 SP:FB
5481 D218            BPL 10      immediate   A:23 X:46 Y:11 P:C5 SP:FB
5484 D21A            BVC 50      immediate   A:23 X:46 Y:11 P:C5 SP:FB
5487 D21C            LDX A6       zeropage   A:23 X:46 Y:11 P:C5 SP:FB
5491 D21E            CPX E0      immediate   A:23 X:46 Y:11 P:45 SP:FB
5494 D220            BEQ F0      immediate   A:23 X:46 Y:11 P:47 SP:FB
5497 D226            LDA A9      immediate   A:23 X:46 Y:11 P:47 SP:FB
5500 D228            STA 85       zeropage   A:C0 X:46 Y:11 P:C5 SP:FB
5504 D22A            LDX A2      immediate   A:C0 X:46 Y:11 P:C5 SP:FB
5507 D22C            LDY A0      immediate   A:C0 X:33 Y:11 P:45 SP:FB
5510 D22E            LDA A9      immediate   A:C0 X:33 Y:88 P:C5 SP:FB
5513 D230            BIT 24       zeropage   A:5 X:33 Y:88 P:45 SP:FB
5517 D232            BPL 10      immediate   A:5 X:33 Y:88 P:C7 SP:FB
5520 D234            BVC 50      immediate   A:5 X:33 Y:88 P:C7 SP:FB
5523 D236            BNE D0      immediate   A:5 X:33 Y:88 P:C7 SP:FB
5526 D238            CMP C9      immediate   A:5 X:33 Y:88 P:C7 SP:FB
5529 D23A            BNE D0      immediate   A:5 X:33 Y:88 P:47 SP:FB
5532 D23C            CPX E0      immediate   A:5 X:33 Y:88 P:47 SP:FB
5535 D23E            BNE D0      immediate   A:5 X:33 Y:88 P:47 SP:FB
5538 D240            CPY C0      immediate   A:5 X:33 Y:88 P:47 SP:FB
5541 D242            BEQ F0      immediate   A:5 X:33 Y:88 P:47 SP:FB
5544 D248            LDA A9      immediate   A:5 X:33 Y:88 P:47 SP:FB
5547 D24A            STA 85       zeropage   A:3 X:33 Y:88 P:45 SP:FB
5551 D24C            LDA A9      immediate   A:3 X:33 Y:88 P:45 SP:FB
5554 D24E            BIT 24       zeropage   A:1 X:33 Y:88 P:45 SP:FB
5558 D250            BMI 30      immediate   A:1 X:33 Y:88 P:5 SP:FB
5561 D252            BVS 70      immediate   A:1 X:33 Y:88 P:5 SP:FB
5564 D254            BEQ F0      immediate   A:1 X:33 Y:88 P:5 SP:FB
5567 D256            CMP C9      immediate   A:1 X:33 Y:88 P:5 SP:FB
5570 D258            BEQ F0      immediate   A:1 X:33 Y:88 P:7 SP:FB
5573 D25E            LDY A0      immediate   A:1 X:33 Y:88 P:7 SP:FB
5576 D260            LDA A9      immediate   A:1 X:33 Y:7E P:5 SP:FB
5579 D262            STA 85       zeropage   A:AA X:33 Y:7E P:85 SP:FB
5583 D264            JSR 20       absolute   A:AA X:33 Y:7E P:85 SP:FB
5588 F7B6            CLC 18        implied   A:AA X:33 Y:7E P:85 SP:F9
5591 F7B7            LDA A9      immediate   A:AA X:33 Y:7E P:84 SP:F9
5594 F7B9            STA 85       zeropage   A:FF X:33 Y:7E P:84 SP:F9
5598 F7BB            BIT 24       zeropage   A:FF X:33 Y:7E P:84 SP:F9
5602 F7BD            LDA A9      immediate   A:FF X:33 Y:7E P:C4 SP:F9
5605 F7BF            RTS 60        implied   A:55 X:33 Y:7E P:44 SP:F9
5612 D267            ORA 5       zeropage   A:55 X:33 Y:7E P:44 SP:FB
5616 D269            JSR 20       absolute   A:FF X:33 Y:7E P:C4 SP:FB
5621 F7C0            BCS B0      immediate   A:FF X:33 Y:7E P:C4 SP:F9
5624 F7C2            BPL 10      immediate   A:FF X:33 Y:7E P:C4 SP:F9
5627 F7C4            CMP C9      immediate   A:FF X:33 Y:7E P:C4 SP:F9
5630 F7C6            BNE D0      immediate   A:FF X:33 Y:7E P:47 SP:F9
5633 F7C8            BVC 50      immediate   A:FF X:33 Y:7E P:47 SP:F9
5636 F7CA            RTS 60        implied   A:FF X:33 Y:7E P:47 SP:F9
5643 D26C            INY C8        implied   A:FF X:33 Y:7E P:47 SP:FB
5646 D26D            LDA A9      immediate   A:FF X:33 Y:7F P:45 SP:FB
5649 D26F            STA 85       zeropage   A:0 X:33 Y:7F P:47 SP:FB
5653 D271            JSR 20       absolute   A:0 X:33 Y:7F P:47 SP:FB
5658 F7CE            SEC 38        implied   A:0 X:33 Y:7F P:47 SP:F9
5661 F7CF            CLV B8        implied   A:0 X:33 Y:7F P:47 SP:F9
5664 F7D0            LDA A9      immediate   A:0 X:33 Y:7F P:7 SP:F9
5667 F7D2            RTS 60        implied   A:0 X:33 Y:7F P:7 SP:F9
5674 D274            ORA 5       zeropage   A:0 X:33 Y:7F P:7 SP:FB
5678 D276            JSR 20       absolute   A:0 X:33 Y:7F P:7 SP:FB
5683 F7D3            BNE D0      immediate   A:0 X:33 Y:7F P:7 SP:F9
5686 F7D5            BVS 70      immediate   A:0 X:33 Y:7F P:7 SP:F9
5689 F7D7            BCC 90      immediate   A:0 X:33 Y:7F P:7 SP:F9
5692 F7D9            BMI 30      immediate   A:0 X:33 Y:7F P:7 SP:F9
5695 F7DB            RTS 60        implied   A:0 X:33 Y:7F P:7 SP:F9
5702 D279            INY C8        implied   A:0 X:33 Y:7F P:7 SP:FB
5705 D27A            LDA A9      immediate   A:0 X:33 Y:80 P:85 SP:FB
5708 D27C            STA 85       zeropage   A:AA X:33 Y:80 P:85 SP:FB
5712 D27E            JSR 20       absolute   A:AA X:33 Y:80 P:85 SP:FB
5717 F7DF            CLC 18        implied   A:AA X:33 Y:80 P:85 SP:F9
5720 F7E0            BIT 24       zeropage   A:AA X:33 Y:80 P:84 SP:F9
5724 F7E2            LDA A9      immediate   A:AA X:33 Y:80 P:C4 SP:F9
5727 F7E4            RTS 60        implied   A:55 X:33 Y:80 P:44 SP:F9
5734 D281            AND 25       zeropage   A:55 X:33 Y:80 P:44 SP:FB
5738 D283            JSR 20       absolute   A:0 X:33 Y:80 P:46 SP:FB
5743 F7E5            BNE D0      immediate   A:0 X:33 Y:80 P:46 SP:F9
5746 F7E7            BVC 50      immediate   A:0 X:33 Y:80 P:46 SP:F9
5749 F7E9            BCS B0      immediate   A:0 X:33 Y:80 P:46 SP:F9
5752 F7EB            BMI 30      immediate   A:0 X:33 Y:80 P:46 SP:F9
5755 F7ED            RTS 60        implied   A:0 X:33 Y:80 P:46 SP:F9
5762 D286            INY C8        implied   A:0 X:33 Y:80 P:46 SP:FB
5765 D287            LDA A9      immediate   A:0 X:33 Y:81 P:C4 SP:FB
5768 D289            STA 85       zeropage   A:EF X:33 Y:81 P:C4 SP:FB
5772 D28B            JSR 20       absolute   A:EF X:33 Y:81 P:C4 SP:FB
5777 F7F1            SEC 38        implied   A:EF X:33 Y:81 P:C4 SP:F9
5780 F7F2            CLV B8        implied   A:EF X:33 Y:81 P:C5 SP:F9
5783 F7F3            LDA A9      immediate   A:EF X:33 Y:81 P:85 SP:F9
5786 F7F5            RTS 60        implied   A:F8 X:33 Y:81 P:85 SP:F9
5793 D28E            AND 25       zeropage   A:F8 X:33 Y:81 P:85 SP:FB
5797 D290            JSR 20       absolute   A:E8 X:33 Y:81 P:85 SP:FB
5802 F7F6            BCC 90      immediate   A:E8 X:33 Y:81 P:85 SP:F9
5805 F7F8            BPL 10      immediate   A:E8 X:33 Y:81 P:85 SP:F9
5808 F7FA            CMP C9      immediate   A:E8 X:33 Y:81 P:85 SP:F9
5811 F7FC            BNE D0      immediate   A:E8 X:33 Y:81 P:7 SP:F9
5814 F7FE            BVS 70      immediate   A:E8 X:33 Y:81 P:7 SP:F9
5817 F800            RTS 60        implied   A:E8 X:33 Y:81 P:7 SP:F9
5824 D293            INY C8        implied   A:E8 X:33 Y:81 P:7 SP:FB
5827 D294            LDA A9      immediate   A:E8 X:33 Y:82 P:85 SP:FB
5830 D296            STA 85       zeropage   A:AA X:33 Y:82 P:85 SP:FB
5834 D298            JSR 20       absolute   A:AA X:33 Y:82 P:85 SP:FB
5839 F804            CLC 18        implied   A:AA X:33 Y:82 P:85 SP:F9
5842 F805            BIT 24       zeropage   A:AA X:33 Y:82 P:84 SP:F9
5846 F807            LDA A9      immediate   A:AA X:33 Y:82 P:C4 SP:F9
5849 F809            RTS 60        implied   A:5F X:33 Y:82 P:44 SP:F9
5856 D29B            EOR 45       zeropage   A:5F X:33 Y:82 P:44 SP:FB
5860 D29D            JSR 20       absolute   A:F5 X:33 Y:82 P:C4 SP:FB
5865 F80A            BCS B0      immediate   A:F5 X:33 Y:82 P:C4 SP:F9
5868 F80C            BPL 10      immediate   A:F5 X:33 Y:82 P:C4 SP:F9
5871 F80E            CMP C9      immediate   A:F5 X:33 Y:82 P:C4 SP:F9
5874 F810            BNE D0      immediate   A:F5 X:33 Y:82 P:47 SP:F9
5877 F812            BVC 50      immediate   A:F5 X:33 Y:82 P:47 SP:F9
5880 F814            RTS 60        implied   A:F5 X:33 Y:82 P:47 SP:F9
5887 D2A0            INY C8        implied   A:F5 X:33 Y:82 P:47 SP:FB
5890 D2A1            LDA A9      immediate   A:F5 X:33 Y:83 P:C5 SP:FB
5893 D2A3            STA 85       zeropage   A:70 X:33 Y:83 P:45 SP:FB
5897 D2A5            JSR 20       absolute   A:70 X:33 Y:83 P:45 SP:FB
5902 F818            SEC 38        implied   A:70 X:33 Y:83 P:45 SP:F9
5905 F819            CLV B8        implied   A:70 X:33 Y:83 P:45 SP:F9
5908 F81A            LDA A9      immediate   A:70 X:33 Y:83 P:5 SP:F9
5911 F81C            RTS 60        implied   A:70 X:33 Y:83 P:5 SP:F9
5918 D2A8            EOR 45       zeropage   A:70 X:33 Y:83 P:5 SP:FB
5922 D2AA            JSR 20       absolute   A:0 X:33 Y:83 P:7 SP:FB
5927 F81D            BNE D0      immediate   A:0 X:33 Y:83 P:7 SP:F9
5930 F81F            BVS 70      immediate   A:0 X:33 Y:83 P:7 SP:F9
5933 F821            BCC 90      immediate   A:0 X:33 Y:83 P:7 SP:F9
5936 F823            BMI 30      immediate   A:0 X:33 Y:83 P:7 SP:F9
5939 F825            RTS 60        implied   A:0 X:33 Y:83 P:7 SP:F9
5946 D2AD            INY C8        implied   A:0 X:33 Y:83 P:7 SP:FB
5949 D2AE            LDA A9      immediate   A:0 X:33 Y:84 P:85 SP:FB
5952 D2B0            STA 85       zeropage   A:69 X:33 Y:84 P:5 SP:FB
5956 D2B2            JSR 20       absolute   A:69 X:33 Y:84 P:5 SP:FB
5961 F829            CLC 18        implied   A:69 X:33 Y:84 P:5 SP:F9
5964 F82A            BIT 24       zeropage   A:69 X:33 Y:84 P:4 SP:F9
5968 F82C            LDA A9      immediate   A:69 X:33 Y:84 P:C4 SP:F9
5971 F82E            RTS 60        implied   A:0 X:33 Y:84 P:46 SP:F9
5978 D2B5            ADC 65       zeropage   A:0 X:33 Y:84 P:46 SP:FB
5982 D2B7            JSR 20       absolute   A:69 X:33 Y:84 P:4 SP:FB
5987 F82F            BMI 30      immediate   A:69 X:33 Y:84 P:4 SP:F9
5990 F831            BCS B0      immediate   A:69 X:33 Y:84 P:4 SP:F9
5993 F833            CMP C9      immediate   A:69 X:33 Y:84 P:4 SP:F9
5996 F835            BNE D0      immediate   A:69 X:33 Y:84 P:7 SP:F9
5999 F837            BVS 70      immediate   A:69 X:33 Y:84 P:7 SP:F9
6002 F839            RTS 60        implied   A:69 X:33 Y:84 P:7 SP:F9
6009 D2BA            INY C8        implied   A:69 X:33 Y:84 P:7 SP:FB
6012 D2BB            JSR 20       absolute   A:69 X:33 Y:85 P:85 SP:FB
6017 F83D            SEC 38        implied   A:69 X:33 Y:85 P:85 SP:F9
6020 F83E            BIT 24       zeropage   A:69 X:33 Y:85 P:85 SP:F9
6024 F840            LDA A9      immediate   A:69 X:33 Y:85 P:C5 SP:F9
6027 F842            RTS 60        implied   A:0 X:33 Y:85 P:47 SP:F9
6034 D2BE            ADC 65       zeropage   A:0 X:33 Y:85 P:47 SP:FB
6038 D2C0            JSR 20       absolute   A:6A X:33 Y:85 P:4 SP:FB
6043 F843            BMI 30      immediate   A:6A X:33 Y:85 P:4 SP:F9
6046 F845            BCS B0      immediate   A:6A X:33 Y:85 P:4 SP:F9
6049 F847            CMP C9      immediate   A:6A X:33 Y:85 P:4 SP:F9
6052 F849            BNE D0      immediate   A:6A X:33 Y:85 P:7 SP:F9
6055 F84B            BVS 70      immediate   A:6A X:33 Y:85 P:7 SP:F9
6058 F84D            RTS 60        implied   A:6A X:33 Y:85 P:7 SP:F9
6065 D2C3            INY C8        implied   A:6A X:33 Y:85 P:7 SP:FB
6068 D2C4            LDA A9      immediate   A:6A X:33 Y:86 P:85 SP:FB
6071 D2C6            STA 85       zeropage   A:7F X:33 Y:86 P:5 SP:FB
6075 D2C8            JSR 20       absolute   A:7F X:33 Y:86 P:5 SP:FB
6080 F851            SEC 38        implied   A:7F X:33 Y:86 P:5 SP:F9
6083 F852            CLV B8        implied   A:7F X:33 Y:86 P:5 SP:F9
6086 F853            LDA A9      immediate   A:7F X:33 Y:86 P:5 SP:F9
6089 F855            RTS 60        implied   A:7F X:33 Y:86 P:5 SP:F9
6096 D2CB            ADC 65       zeropage   A:7F X:33 Y:86 P:5 SP:FB
6100 D2CD            JSR 20       absolute   A:FF X:33 Y:86 P:C4 SP:FB
6105 F856            BPL 10      immediate   A:FF X:33 Y:86 P:C4 SP:F9
6108 F858            BCS B0      immediate   A:FF X:33 Y:86 P:C4 SP:F9
6111 F85A            CMP C9      immediate   A:FF X:33 Y:86 P:C4 SP:F9
6114 F85C            BNE D0      immediate   A:FF X:33 Y:86 P:47 SP:F9
6117 F85E            BVC 50      immediate   A:FF X:33 Y:86 P:47 SP:F9
6120 F860            RTS 60        implied   A:FF X:33 Y:86 P:47 SP:F9
6127 D2D0            INY C8        implied   A:FF X:33 Y:86 P:47 SP:FB
6130 D2D1            LDA A9      immediate   A:FF X:33 Y:87 P:C5 SP:FB
6133 D2D3            STA 85       zeropage   A:80 X:33 Y:87 P:C5 SP:FB
6137 D2D5            JSR 20       absolute   A:80 X:33 Y:87 P:C5 SP:FB
6142 F864            CLC 18        implied   A:80 X:33 Y:87 P:C5 SP:F9
6145 F865            BIT 24       zeropage   A:80 X:33 Y:87 P:C4 SP:F9
6149 F867            LDA A9      immediate   A:80 X:33 Y:87 P:C4 SP:F9
6152 F869            RTS 60        implied   A:7F X:33 Y:87 P:44 SP:F9
6159 D2D8            ADC 65       zeropage   A:7F X:33 Y:87 P:44 SP:FB
6163 D2DA            JSR 20       absolute   A:FF X:33 Y:87 P:84 SP:FB
6168 F86A            BPL 10      immediate   A:FF X:33 Y:87 P:84 SP:F9
6171 F86C            BCS B0      immediate   A:FF X:33 Y:87 P:84 SP:F9
6174 F86E            CMP C9      immediate   A:FF X:33 Y:87 P:84 SP:F9
6177 F870            BNE D0      immediate   A:FF X:33 Y:87 P:7 SP:F9
6180 F872            BVS 70      immediate   A:FF X:33 Y:87 P:7 SP:F9
6183 F874            RTS 60        implied   A:FF X:33 Y:87 P:7 SP:F9
6190 D2DD            INY C8        implied   A:FF X:33 Y:87 P:7 SP:FB
6193 D2DE            JSR 20       absolute   A:FF X:33 Y:88 P:85 SP:FB
6198 F878            SEC 38        implied   A:FF X:33 Y:88 P:85 SP:F9
6201 F879            CLV B8        implied   A:FF X:33 Y:88 P:85 SP:F9
6204 F87A            LDA A9      immediate   A:FF X:33 Y:88 P:85 SP:F9
6207 F87C            RTS 60        implied   A:7F X:33 Y:88 P:5 SP:F9
6214 D2E1            ADC 65       zeropage   A:7F X:33 Y:88 P:5 SP:FB
6218 D2E3            JSR 20       absolute   A:0 X:33 Y:88 P:7 SP:FB
6223 F87D            BNE D0      immediate   A:0 X:33 Y:88 P:7 SP:F9
6226 F87F            BMI 30      immediate   A:0 X:33 Y:88 P:7 SP:F9
6229 F881            BVS 70      immediate   A:0 X:33 Y:88 P:7 SP:F9
6232 F883            BCC 90      immediate   A:0 X:33 Y:88 P:7 SP:F9
6235 F885            RTS 60        implied   A:0 X:33 Y:88 P:7 SP:F9
6242 D2E6            INY C8        implied   A:0 X:33 Y:88 P:7 SP:FB
6245 D2E7            LDA A9      immediate   A:0 X:33 Y:89 P:85 SP:FB
6248 D2E9            STA 85       zeropage   A:40 X:33 Y:89 P:5 SP:FB
6252 D2EB            JSR 20       absolute   A:40 X:33 Y:89 P:5 SP:FB
6257 F889            BIT 24       zeropage   A:40 X:33 Y:89 P:5 SP:F9
6261 F88B            LDA A9      immediate   A:40 X:33 Y:89 P:C5 SP:F9
6264 F88D            RTS 60        implied   A:40 X:33 Y:89 P:45 SP:F9
6271 D2EE            CMP C5       zeropage   A:40 X:33 Y:89 P:45 SP:FB
6275 D2F0            JSR 20       absolute   A:40 X:33 Y:89 P:47 SP:FB
6280 F88E            BMI 30      immediate   A:40 X:33 Y:89 P:47 SP:F9
6283 F890            BCC 90      immediate   A:40 X:33 Y:89 P:47 SP:F9
6286 F892            BNE D0      immediate   A:40 X:33 Y:89 P:47 SP:F9
6289 F894            BVC 50      immediate   A:40 X:33 Y:89 P:47 SP:F9
6292 F896            RTS 60        implied   A:40 X:33 Y:89 P:47 SP:F9
6299 D2F3            INY C8        implied   A:40 X:33 Y:89 P:47 SP:FB
6302 D2F4            PHA 48        implied   A:40 X:33 Y:8A P:C5 SP:FB
6306 D2F5            LDA A9      immediate   A:40 X:33 Y:8A P:C5 SP:FA
6309 D2F7            STA 85       zeropage   A:3F X:33 Y:8A P:45 SP:FA
6313 D2F9            PLA 68        implied   A:3F X:33 Y:8A P:45 SP:FA
6318 D2FA            JSR 20       absolute   A:40 X:33 Y:8A P:45 SP:FB
6323 F89A            CLV B8        implied   A:40 X:33 Y:8A P:45 SP:F9
6326 F89B            RTS 60        implied   A:40 X:33 Y:8A P:5 SP:F9
6333 D2FD            CMP C5       zeropage   A:40 X:33 Y:8A P:5 SP:FB
6337 D2FF            JSR 20       absolute   A:40 X:33 Y:8A P:5 SP:FB
6342 F89C            BEQ F0      immediate   A:40 X:33 Y:8A P:5 SP:F9
6345 F89E            BMI 30      immediate   A:40 X:33 Y:8A P:5 SP:F9
6348 F8A0            BCC 90      immediate   A:40 X:33 Y:8A P:5 SP:F9
6351 F8A2            BVS 70      immediate   A:40 X:33 Y:8A P:5 SP:F9
6354 F8A4            RTS 60        implied   A:40 X:33 Y:8A P:5 SP:F9
6361 D302            INY C8        implied   A:40 X:33 Y:8A P:5 SP:FB
6364 D303            PHA 48        implied   A:40 X:33 Y:8B P:85 SP:FB
6368 D304            LDA A9      immediate   A:40 X:33 Y:8B P:85 SP:FA
6371 D306            STA 85       zeropage   A:41 X:33 Y:8B P:5 SP:FA
6375 D308            PLA 68        implied   A:41 X:33 Y:8B P:5 SP:FA
6380 D309            CMP C5       zeropage   A:40 X:33 Y:8B P:5 SP:FB
6384 D30B            JSR 20       absolute   A:40 X:33 Y:8B P:84 SP:FB
6389 F8A8            BEQ F0      immediate   A:40 X:33 Y:8B P:84 SP:F9
6392 F8AA            BPL 10      immediate   A:40 X:33 Y:8B P:84 SP:F9
6395 F8AC            BPL 10      immediate   A:40 X:33 Y:8B P:84 SP:F9
6398 F8AE            RTS 60        implied   A:40 X:33 Y:8B P:84 SP:F9
6405 D30E            INY C8        implied   A:40 X:33 Y:8B P:84 SP:FB
6408 D30F            PHA 48        implied   A:40 X:33 Y:8C P:84 SP:FB
6412 D310            LDA A9      immediate   A:40 X:33 Y:8C P:84 SP:FA
6415 D312            STA 85       zeropage   A:0 X:33 Y:8C P:6 SP:FA
6419 D314            PLA 68        implied   A:0 X:33 Y:8C P:6 SP:FA
6424 D315            JSR 20       absolute   A:40 X:33 Y:8C P:4 SP:FB
6429 F8B2            LDA A9      immediate   A:40 X:33 Y:8C P:4 SP:F9
6432 F8B4            RTS 60        implied   A:80 X:33 Y:8C P:84 SP:F9
6439 D318            CMP C5       zeropage   A:80 X:33 Y:8C P:84 SP:FB
6443 D31A            JSR 20       absolute   A:80 X:33 Y:8C P:85 SP:FB
6448 F8B5            BEQ F0      immediate   A:80 X:33 Y:8C P:85 SP:F9
6451 F8B7            BPL 10      immediate   A:80 X:33 Y:8C P:85 SP:F9
6454 F8B9            BCC 90      immediate   A:80 X:33 Y:8C P:85 SP:F9
6457 F8BB            RTS 60        implied   A:80 X:33 Y:8C P:85 SP:F9
6464 D31D            INY C8        implied   A:80 X:33 Y:8C P:85 SP:FB
6467 D31E            PHA 48        implied   A:80 X:33 Y:8D P:85 SP:FB
6471 D31F            LDA A9      immediate   A:80 X:33 Y:8D P:85 SP:FA
6474 D321            STA 85       zeropage   A:80 X:33 Y:8D P:85 SP:FA
6478 D323            PLA 68        implied   A:80 X:33 Y:8D P:85 SP:FA
6483 D324            CMP C5       zeropage   A:80 X:33 Y:8D P:85 SP:FB
6487 D326            JSR 20       absolute   A:80 X:33 Y:8D P:7 SP:FB
6492 F8BF            BNE D0      immediate   A:80 X:33 Y:8D P:7 SP:F9
6495 F8C1            BMI 30      immediate   A:80 X:33 Y:8D P:7 SP:F9
6498 F8C3            BCC 90      immediate   A:80 X:33 Y:8D P:7 SP:F9
6501 F8C5            RTS 60        implied   A:80 X:33 Y:8D P:7 SP:F9
6508 D329            INY C8        implied   A:80 X:33 Y:8D P:7 SP:FB
6511 D32A            PHA 48        implied   A:80 X:33 Y:8E P:85 SP:FB
6515 D32B            LDA A9      immediate   A:80 X:33 Y:8E P:85 SP:FA
6518 D32D            STA 85       zeropage   A:81 X:33 Y:8E P:85 SP:FA
6522 D32F            PLA 68        implied   A:81 X:33 Y:8E P:85 SP:FA
6527 D330            CMP C5       zeropage   A:80 X:33 Y:8E P:85 SP:FB
6531 D332            JSR 20       absolute   A:80 X:33 Y:8E P:84 SP:FB
6536 F8C9            BCS B0      immediate   A:80 X:33 Y:8E P:84 SP:F9
6539 F8CB            BEQ F0      immediate   A:80 X:33 Y:8E P:84 SP:F9
6542 F8CD            BPL 10      immediate   A:80 X:33 Y:8E P:84 SP:F9
6545 F8CF            RTS 60        implied   A:80 X:33 Y:8E P:84 SP:F9
6552 D335            INY C8        implied   A:80 X:33 Y:8E P:84 SP:FB
6555 D336            PHA 48        implied   A:80 X:33 Y:8F P:84 SP:FB
6559 D337            LDA A9      immediate   A:80 X:33 Y:8F P:84 SP:FA
6562 D339            STA 85       zeropage   A:7F X:33 Y:8F P:4 SP:FA
6566 D33B            PLA 68        implied   A:7F X:33 Y:8F P:4 SP:FA
6571 D33C            CMP C5       zeropage   A:80 X:33 Y:8F P:84 SP:FB
6575 D33E            JSR 20       absolute   A:80 X:33 Y:8F P:5 SP:FB
6580 F8D3            BCC 90      immediate   A:80 X:33 Y:8F P:5 SP:F9
6583 F8D5            BEQ F0      immediate   A:80 X:33 Y:8F P:5 SP:F9
6586 F8D7            BMI 30      immediate   A:80 X:33 Y:8F P:5 SP:F9
6589 F8D9            RTS 60        implied   A:80 X:33 Y:8F P:5 SP:F9
6596 D341            INY C8        implied   A:80 X:33 Y:8F P:5 SP:FB
6599 D342            LDA A9      immediate   A:80 X:33 Y:90 P:85 SP:FB
6602 D344            STA 85       zeropage   A:40 X:33 Y:90 P:5 SP:FB
6606 D346            JSR 20       absolute   A:40 X:33 Y:90 P:5 SP:FB
6611 F931            BIT 24       zeropage   A:40 X:33 Y:90 P:5 SP:F9
6615 F933            LDA A9      immediate   A:40 X:33 Y:90 P:C5 SP:F9
6618 F935            SEC 38        implied   A:40 X:33 Y:90 P:45 SP:F9
6621 F936            RTS 60        implied   A:40 X:33 Y:90 P:45 SP:F9
6628 D349            SBC E5       zeropage   A:40 X:33 Y:90 P:45 SP:FB
6632 D34B            JSR 20       absolute   A:0 X:33 Y:90 P:7 SP:FB
6637 F937            BMI 30      immediate   A:0 X:33 Y:90 P:7 SP:F9
6640 F939            BCC 90      immediate   A:0 X:33 Y:90 P:7 SP:F9
6643 F93B            BNE D0      immediate   A:0 X:33 Y:90 P:7 SP:F9
6646 F93D            BVS 70      immediate   A:0 X:33 Y:90 P:7 SP:F9
6649 F93F            CMP C9      immediate   A:0 X:33 Y:90 P:7 SP:F9
6652 F941            BNE D0      immediate   A:0 X:33 Y:90 P:7 SP:F9
6655 F943            RTS 60        implied   A:0 X:33 Y:90 P:7 SP:F9
6662 D34E            INY C8        implied   A:0 X:33 Y:90 P:7 SP:FB
6665 D34F            LDA A9      immediate   A:0 X:33 Y:91 P:85 SP:FB
6668 D351            STA 85       zeropage   A:3F X:33 Y:91 P:5 SP:FB
6672 D353            JSR 20       absolute   A:3F X:33 Y:91 P:5 SP:FB
6677 F947            CLV B8        implied   A:3F X:33 Y:91 P:5 SP:F9
6680 F948            SEC 38        implied   A:3F X:33 Y:91 P:5 SP:F9
6683 F949            LDA A9      immediate   A:3F X:33 Y:91 P:5 SP:F9
6686 F94B            RTS 60        implied   A:40 X:33 Y:91 P:5 SP:F9
6693 D356            SBC E5       zeropage   A:40 X:33 Y:91 P:5 SP:FB
6697 D358            JSR 20       absolute   A:1 X:33 Y:91 P:5 SP:FB
6702 F94C            BEQ F0      immediate   A:1 X:33 Y:91 P:5 SP:F9
6705 F94E            BMI 30      immediate   A:1 X:33 Y:91 P:5 SP:F9
6708 F950            BCC 90      immediate   A:1 X:33 Y:91 P:5 SP:F9
6711 F952            BVS 70      immediate   A:1 X:33 Y:91 P:5 SP:F9
6714 F954            CMP C9      immediate   A:1 X:33 Y:91 P:5 SP:F9
6717 F956            BNE D0      immediate   A:1 X:33 Y:91 P:7 SP:F9
6720 F958            RTS 60        implied   A:1 X:33 Y:91 P:7 SP:F9
6727 D35B            INY C8        implied   A:1 X:33 Y:91 P:7 SP:FB
6730 D35C            LDA A9      immediate   A:1 X:33 Y:92 P:85 SP:FB
6733 D35E            STA 85       zeropage   A:41 X:33 Y:92 P:5 SP:FB
6737 D360            JSR 20       absolute   A:41 X:33 Y:92 P:5 SP:FB
6742 F95C            LDA A9      immediate   A:41 X:33 Y:92 P:5 SP:F9
6745 F95E            SEC 38        implied   A:40 X:33 Y:92 P:5 SP:F9
6748 F95F            BIT 24       zeropage   A:40 X:33 Y:92 P:5 SP:F9
6752 F961            RTS 60        implied   A:40 X:33 Y:92 P:C5 SP:F9
6759 D363            SBC E5       zeropage   A:40 X:33 Y:92 P:C5 SP:FB
6763 D365            JSR 20       absolute   A:FF X:33 Y:92 P:84 SP:FB
6768 F962            BCS B0      immediate   A:FF X:33 Y:92 P:84 SP:F9
6771 F964            BEQ F0      immediate   A:FF X:33 Y:92 P:84 SP:F9
6774 F966            BPL 10      immediate   A:FF X:33 Y:92 P:84 SP:F9
6777 F968            BVS 70      immediate   A:FF X:33 Y:92 P:84 SP:F9
6780 F96A            CMP C9      immediate   A:FF X:33 Y:92 P:84 SP:F9
6783 F96C            BNE D0      immediate   A:FF X:33 Y:92 P:7 SP:F9
6786 F96E            RTS 60        implied   A:FF X:33 Y:92 P:7 SP:F9
6793 D368            INY C8        implied   A:FF X:33 Y:92 P:7 SP:FB
6796 D369            LDA A9      immediate   A:FF X:33 Y:93 P:85 SP:FB
6799 D36B            STA 85       zeropage   A:0 X:33 Y:93 P:7 SP:FB
6803 D36D            JSR 20       absolute   A:0 X:33 Y:93 P:7 SP:FB
6808 F972            CLC 18        implied   A:0 X:33 Y:93 P:7 SP:F9
6811 F973            LDA A9      immediate   A:0 X:33 Y:93 P:6 SP:F9
6814 F975            RTS 60        implied   A:80 X:33 Y:93 P:84 SP:F9
6821 D370            SBC E5       zeropage   A:80 X:33 Y:93 P:84 SP:FB
6825 D372            JSR 20       absolute   A:7F X:33 Y:93 P:45 SP:FB
6830 F976            BCC 90      immediate   A:7F X:33 Y:93 P:45 SP:F9
6833 F978            CMP C9      immediate   A:7F X:33 Y:93 P:45 SP:F9
6836 F97A            BNE D0      immediate   A:7F X:33 Y:93 P:47 SP:F9
6839 F97C            RTS 60        implied   A:7F X:33 Y:93 P:47 SP:F9
6846 D375            INY C8        implied   A:7F X:33 Y:93 P:47 SP:FB
6849 D376            LDA A9      immediate   A:7F X:33 Y:94 P:C5 SP:FB
6852 D378            STA 85       zeropage   A:7F X:33 Y:94 P:45 SP:FB
6856 D37A            JSR 20       absolute   A:7F X:33 Y:94 P:45 SP:FB
6861 F980            SEC 38        implied   A:7F X:33 Y:94 P:45 SP:F9
6864 F981            LDA A9      immediate   A:7F X:33 Y:94 P:45 SP:F9
6867 F983            RTS 60        implied   A:81 X:33 Y:94 P:C5 SP:F9
6874 D37D            SBC E5       zeropage   A:81 X:33 Y:94 P:C5 SP:FB
6878 D37F            JSR 20       absolute   A:2 X:33 Y:94 P:45 SP:FB
6883 F984            BVC 50      immediate   A:2 X:33 Y:94 P:45 SP:F9
6886 F986            BCC 90      immediate   A:2 X:33 Y:94 P:45 SP:F9
6889 F988            CMP C9      immediate   A:2 X:33 Y:94 P:45 SP:F9
6892 F98A            BNE D0      immediate   A:2 X:33 Y:94 P:47 SP:F9
6895 F98C            RTS 60        implied   A:2 X:33 Y:94 P:47 SP:F9
6902 D382            INY C8        implied   A:2 X:33 Y:94 P:47 SP:FB
6905 D383            LDA A9      immediate   A:2 X:33 Y:95 P:C5 SP:FB
6908 D385            STA 85       zeropage   A:40 X:33 Y:95 P:45 SP:FB
6912 D387            JSR 20       absolute   A:40 X:33 Y:95 P:45 SP:FB
6917 F889            BIT 24       zeropage   A:40 X:33 Y:95 P:45 SP:F9
6921 F88B            LDA A9      immediate   A:40 X:33 Y:95 P:C5 SP:F9
6924 F88D            RTS 60        implied   A:40 X:33 Y:95 P:45 SP:F9
6931 D38A            TAX AA        implied   A:40 X:33 Y:95 P:45 SP:FB
6934 D38B            CPX E4       zeropage   A:40 X:40 Y:95 P:45 SP:FB
6938 D38D            JSR 20       absolute   A:40 X:40 Y:95 P:47 SP:FB
6943 F88E            BMI 30      immediate   A:40 X:40 Y:95 P:47 SP:F9
6946 F890            BCC 90      immediate   A:40 X:40 Y:95 P:47 SP:F9
6949 F892            BNE D0      immediate   A:40 X:40 Y:95 P:47 SP:F9
6952 F894            BVC 50      immediate   A:40 X:40 Y:95 P:47 SP:F9
6955 F896            RTS 60        implied   A:40 X:40 Y:95 P:47 SP:F9
6962 D390            INY C8        implied   A:40 X:40 Y:95 P:47 SP:FB
6965 D391            LDA A9      immediate   A:40 X:40 Y:96 P:C5 SP:FB
6968 D393            STA 85       zeropage   A:3F X:40 Y:96 P:45 SP:FB
6972 D395            JSR 20       absolute   A:3F X:40 Y:96 P:45 SP:FB
6977 F89A            CLV B8        implied   A:3F X:40 Y:96 P:45 SP:F9
6980 F89B            RTS 60        implied   A:3F X:40 Y:96 P:5 SP:F9
6987 D398            CPX E4       zeropage   A:3F X:40 Y:96 P:5 SP:FB
6991 D39A            JSR 20       absolute   A:3F X:40 Y:96 P:5 SP:FB
6996 F89C            BEQ F0      immediate   A:3F X:40 Y:96 P:5 SP:F9
6999 F89E            BMI 30      immediate   A:3F X:40 Y:96 P:5 SP:F9
7002 F8A0            BCC 90      immediate   A:3F X:40 Y:96 P:5 SP:F9
7005 F8A2            BVS 70      immediate   A:3F X:40 Y:96 P:5 SP:F9
7008 F8A4            RTS 60        implied   A:3F X:40 Y:96 P:5 SP:F9
7015 D39D            INY C8        implied   A:3F X:40 Y:96 P:5 SP:FB
7018 D39E            LDA A9      immediate   A:3F X:40 Y:97 P:85 SP:FB
7021 D3A0            STA 85       zeropage   A:41 X:40 Y:97 P:5 SP:FB
7025 D3A2            CPX E4       zeropage   A:41 X:40 Y:97 P:5 SP:FB
7029 D3A4            JSR 20       absolute   A:41 X:40 Y:97 P:84 SP:FB
7034 F8A8            BEQ F0      immediate   A:41 X:40 Y:97 P:84 SP:F9
7037 F8AA            BPL 10      immediate   A:41 X:40 Y:97 P:84 SP:F9
7040 F8AC            BPL 10      immediate   A:41 X:40 Y:97 P:84 SP:F9
7043 F8AE            RTS 60        implied   A:41 X:40 Y:97 P:84 SP:F9
7050 D3A7            INY C8        implied   A:41 X:40 Y:97 P:84 SP:FB
7053 D3A8            LDA A9      immediate   A:41 X:40 Y:98 P:84 SP:FB
7056 D3AA            STA 85       zeropage   A:0 X:40 Y:98 P:6 SP:FB
7060 D3AC            JSR 20       absolute   A:0 X:40 Y:98 P:6 SP:FB
7065 F8B2            LDA A9      immediate   A:0 X:40 Y:98 P:6 SP:F9
7068 F8B4            RTS 60        implied   A:80 X:40 Y:98 P:84 SP:F9
7075 D3AF            TAX AA        implied   A:80 X:40 Y:98 P:84 SP:FB
7078 D3B0            CPX E4       zeropage   A:80 X:80 Y:98 P:84 SP:FB
7082 D3B2            JSR 20       absolute   A:80 X:80 Y:98 P:85 SP:FB
7087 F8B5            BEQ F0      immediate   A:80 X:80 Y:98 P:85 SP:F9
7090 F8B7            BPL 10      immediate   A:80 X:80 Y:98 P:85 SP:F9
7093 F8B9            BCC 90      immediate   A:80 X:80 Y:98 P:85 SP:F9
7096 F8BB            RTS 60        implied   A:80 X:80 Y:98 P:85 SP:F9
7103 D3B5            INY C8        implied   A:80 X:80 Y:98 P:85 SP:FB
7106 D3B6            LDA A9      immediate   A:80 X:80 Y:99 P:85 SP:FB
7109 D3B8            STA 85       zeropage   A:80 X:80 Y:99 P:85 SP:FB
7113 D3BA            CPX E4       zeropage   A:80 X:80 Y:99 P:85 SP:FB
7117 D3BC            JSR 20       absolute   A:80 X:80 Y:99 P:7 SP:FB
7122 F8BF            BNE D0      immediate   A:80 X:80 Y:99 P:7 SP:F9
7125 F8C1            BMI 30      immediate   A:80 X:80 Y:99 P:7 SP:F9
7128 F8C3            BCC 90      immediate   A:80 X:80 Y:99 P:7 SP:F9
7131 F8C5            RTS 60        implied   A:80 X:80 Y:99 P:7 SP:F9
7138 D3BF            INY C8        implied   A:80 X:80 Y:99 P:7 SP:FB
7141 D3C0            LDA A9      immediate   A:80 X:80 Y:9A P:85 SP:FB
7144 D3C2            STA 85       zeropage   A:81 X:80 Y:9A P:85 SP:FB
7148 D3C4            CPX E4       zeropage   A:81 X:80 Y:9A P:85 SP:FB
7152 D3C6            JSR 20       absolute   A:81 X:80 Y:9A P:84 SP:FB
7157 F8C9            BCS B0      immediate   A:81 X:80 Y:9A P:84 SP:F9
7160 F8CB            BEQ F0      immediate   A:81 X:80 Y:9A P:84 SP:F9
7163 F8CD            BPL 10      immediate   A:81 X:80 Y:9A P:84 SP:F9
7166 F8CF            RTS 60        implied   A:81 X:80 Y:9A P:84 SP:F9
7173 D3C9            INY C8        implied   A:81 X:80 Y:9A P:84 SP:FB
7176 D3CA            LDA A9      immediate   A:81 X:80 Y:9B P:84 SP:FB
7179 D3CC            STA 85       zeropage   A:7F X:80 Y:9B P:4 SP:FB
7183 D3CE            CPX E4       zeropage   A:7F X:80 Y:9B P:4 SP:FB
7187 D3D0            JSR 20       absolute   A:7F X:80 Y:9B P:5 SP:FB
7192 F8D3            BCC 90      immediate   A:7F X:80 Y:9B P:5 SP:F9
7195 F8D5            BEQ F0      immediate   A:7F X:80 Y:9B P:5 SP:F9
7198 F8D7            BMI 30      immediate   A:7F X:80 Y:9B P:5 SP:F9
7201 F8D9            RTS 60        implied   A:7F X:80 Y:9B P:5 SP:F9
7208 D3D3            INY C8        implied   A:7F X:80 Y:9B P:5 SP:FB
7211 D3D4            TYA 98        implied   A:7F X:80 Y:9C P:85 SP:FB
7214 D3D5            TAX AA        implied   A:9C X:80 Y:9C P:85 SP:FB
7217 D3D6            LDA A9      immediate   A:9C X:9C Y:9C P:85 SP:FB
7220 D3D8            STA 85       zeropage   A:40 X:9C Y:9C P:5 SP:FB
7224 D3DA            JSR 20       absolute   A:40 X:9C Y:9C P:5 SP:FB
7229 F8DD            BIT 24       zeropage   A:40 X:9C Y:9C P:5 SP:F9
7233 F8DF            LDY A0      immediate   A:40 X:9C Y:9C P:C5 SP:F9
7236 F8E1            RTS 60        implied   A:40 X:9C Y:40 P:45 SP:F9
7243 D3DD            CPY C4       zeropage   A:40 X:9C Y:40 P:45 SP:FB
7247 D3DF            JSR 20       absolute   A:40 X:9C Y:40 P:47 SP:FB
7252 F8E2            BMI 30      immediate   A:40 X:9C Y:40 P:47 SP:F9
7255 F8E4            BCC 90      immediate   A:40 X:9C Y:40 P:47 SP:F9
7258 F8E6            BNE D0      immediate   A:40 X:9C Y:40 P:47 SP:F9
7261 F8E8            BVC 50      immediate   A:40 X:9C Y:40 P:47 SP:F9
7264 F8EA            RTS 60        implied   A:40 X:9C Y:40 P:47 SP:F9
7271 D3E2            INX E8        implied   A:40 X:9C Y:40 P:47 SP:FB
7274 D3E3            LDA A9      immediate   A:40 X:9D Y:40 P:C5 SP:FB
7277 D3E5            STA 85       zeropage   A:3F X:9D Y:40 P:45 SP:FB
7281 D3E7            JSR 20       absolute   A:3F X:9D Y:40 P:45 SP:FB
7286 F8EE            CLV B8        implied   A:3F X:9D Y:40 P:45 SP:F9
7289 F8EF            RTS 60        implied   A:3F X:9D Y:40 P:5 SP:F9
7296 D3EA            CPY C4       zeropage   A:3F X:9D Y:40 P:5 SP:FB
7300 D3EC            JSR 20       absolute   A:3F X:9D Y:40 P:5 SP:FB
7305 F8F0            BEQ F0      immediate   A:3F X:9D Y:40 P:5 SP:F9
7308 F8F2            BMI 30      immediate   A:3F X:9D Y:40 P:5 SP:F9
7311 F8F4            BCC 90      immediate   A:3F X:9D Y:40 P:5 SP:F9
7314 F8F6            BVS 70      immediate   A:3F X:9D Y:40 P:5 SP:F9
7317 F8F8            RTS 60        implied   A:3F X:9D Y:40 P:5 SP:F9
7324 D3EF            INX E8        implied   A:3F X:9D Y:40 P:5 SP:FB
7327 D3F0            LDA A9      immediate   A:3F X:9E Y:40 P:85 SP:FB
7330 D3F2            STA 85       zeropage   A:41 X:9E Y:40 P:5 SP:FB
7334 D3F4            CPY C4       zeropage   A:41 X:9E Y:40 P:5 SP:FB
7338 D3F6            JSR 20       absolute   A:41 X:9E Y:40 P:84 SP:FB
7343 F8FC            BEQ F0      immediate   A:41 X:9E Y:40 P:84 SP:F9
7346 F8FE            BPL 10      immediate   A:41 X:9E Y:40 P:84 SP:F9
7349 F900            BPL 10      immediate   A:41 X:9E Y:40 P:84 SP:F9
7352 F902            RTS 60        implied   A:41 X:9E Y:40 P:84 SP:F9
7359 D3F9            INX E8        implied   A:41 X:9E Y:40 P:84 SP:FB
7362 D3FA            LDA A9      immediate   A:41 X:9F Y:40 P:84 SP:FB
7365 D3FC            STA 85       zeropage   A:0 X:9F Y:40 P:6 SP:FB
7369 D3FE            JSR 20       absolute   A:0 X:9F Y:40 P:6 SP:FB
7374 F906            LDY A0      immediate   A:0 X:9F Y:40 P:6 SP:F9
7377 F908            RTS 60        implied   A:0 X:9F Y:80 P:84 SP:F9
7384 D401            CPY C4       zeropage   A:0 X:9F Y:80 P:84 SP:FB
7388 D403            JSR 20       absolute   A:0 X:9F Y:80 P:85 SP:FB
7393 F909            BEQ F0      immediate   A:0 X:9F Y:80 P:85 SP:F9
7396 F90B            BPL 10      immediate   A:0 X:9F Y:80 P:85 SP:F9
7399 F90D            BCC 90      immediate   A:0 X:9F Y:80 P:85 SP:F9
7402 F90F            RTS 60        implied   A:0 X:9F Y:80 P:85 SP:F9
7409 D406            INX E8        implied   A:0 X:9F Y:80 P:85 SP:FB
7412 D407            LDA A9      immediate   A:0 X:A0 Y:80 P:85 SP:FB
7415 D409            STA 85       zeropage   A:80 X:A0 Y:80 P:85 SP:FB
7419 D40B            CPY C4       zeropage   A:80 X:A0 Y:80 P:85 SP:FB
7423 D40D            JSR 20       absolute   A:80 X:A0 Y:80 P:7 SP:FB
7428 F913            BNE D0      immediate   A:80 X:A0 Y:80 P:7 SP:F9
7431 F915            BMI 30      immediate   A:80 X:A0 Y:80 P:7 SP:F9
7434 F917            BCC 90      immediate   A:80 X:A0 Y:80 P:7 SP:F9
7437 F919            RTS 60        implied   A:80 X:A0 Y:80 P:7 SP:F9
7444 D410            INX E8        implied   A:80 X:A0 Y:80 P:7 SP:FB
7447 D411            LDA A9      immediate   A:80 X:A1 Y:80 P:85 SP:FB
7450 D413            STA 85       zeropage   A:81 X:A1 Y:80 P:85 SP:FB
7454 D415            CPY C4       zeropage   A:81 X:A1 Y:80 P:85 SP:FB
7458 D417            JSR 20       absolute   A:81 X:A1 Y:80 P:84 SP:FB
7463 F91D            BCS B0      immediate   A:81 X:A1 Y:80 P:84 SP:F9
7466 F91F            BEQ F0      immediate   A:81 X:A1 Y:80 P:84 SP:F9
7469 F921            BPL 10      immediate   A:81 X:A1 Y:80 P:84 SP:F9
7472 F923            RTS 60        implied   A:81 X:A1 Y:80 P:84 SP:F9
7479 D41A            INX E8        implied   A:81 X:A1 Y:80 P:84 SP:FB
7482 D41B            LDA A9      immediate   A:81 X:A2 Y:80 P:84 SP:FB
7485 D41D            STA 85       zeropage   A:7F X:A2 Y:80 P:4 SP:FB
7489 D41F            CPY C4       zeropage   A:7F X:A2 Y:80 P:4 SP:FB
7493 D421            JSR 20       absolute   A:7F X:A2 Y:80 P:5 SP:FB
7498 F927            BCC 90      immediate   A:7F X:A2 Y:80 P:5 SP:F9
7501 F929            BEQ F0      immediate   A:7F X:A2 Y:80 P:5 SP:F9
7504 F92B            BMI 30      immediate   A:7F X:A2 Y:80 P:5 SP:F9
7507 F92D            RTS 60        implied   A:7F X:A2 Y:80 P:5 SP:F9
7514 D424            INX E8        implied   A:7F X:A2 Y:80 P:5 SP:FB
7517 D425            TXA 8A        implied   A:7F X:A3 Y:80 P:85 SP:FB
7520 D426            TAY A8        implied   A:A3 X:A3 Y:80 P:85 SP:FB
7523 D427            JSR 20       absolute   A:A3 X:A3 Y:A3 P:85 SP:FB
7528 F990            LDX A2      immediate   A:A3 X:A3 Y:A3 P:85 SP:F9
7531 F992            LDA A9      immediate   A:A3 X:55 Y:A3 P:5 SP:F9
7534 F994            STA 85       zeropage   A:FF X:55 Y:A3 P:85 SP:F9
7538 F996            NOP EA        implied   A:FF X:55 Y:A3 P:85 SP:F9
7541 F997            BIT 24       zeropage   A:FF X:55 Y:A3 P:85 SP:F9
7545 F999            SEC 38        implied   A:FF X:55 Y:A3 P:C5 SP:F9
7548 F99A            LDA A9      immediate   A:FF X:55 Y:A3 P:C5 SP:F9
7551 F99C            RTS 60        implied   A:1 X:55 Y:A3 P:45 SP:F9
7558 D42A            STA 85       zeropage   A:1 X:55 Y:A3 P:45 SP:FB
7562 D42C            LSR 46       zeropage   A:1 X:55 Y:A3 P:45 SP:FB
7568 D42E            LDA A5       zeropage   A:1 X:55 Y:A3 P:47 SP:FB
7572 D430            JSR 20       absolute   A:0 X:55 Y:A3 P:47 SP:FB
7577 F99D            BCC 90      immediate   A:0 X:55 Y:A3 P:47 SP:F9
7580 F99F            BNE D0      immediate   A:0 X:55 Y:A3 P:47 SP:F9
7583 F9A1            BMI 30      immediate   A:0 X:55 Y:A3 P:47 SP:F9
7586 F9A3            BVC 50      immediate   A:0 X:55 Y:A3 P:47 SP:F9
7589 F9A5            CMP C9      immediate   A:0 X:55 Y:A3 P:47 SP:F9
7592 F9A7            BNE D0      immediate   A:0 X:55 Y:A3 P:47 SP:F9
7595 F9A9            CLV B8        implied   A:0 X:55 Y:A3 P:47 SP:F9
7598 F9AA            LDA A9      immediate   A:0 X:55 Y:A3 P:7 SP:F9
7601 F9AC            RTS 60        implied   A:AA X:55 Y:A3 P:85 SP:F9
7608 D433            INY C8        implied   A:AA X:55 Y:A3 P:85 SP:FB
7611 D434            STA 85       zeropage   A:AA X:55 Y:A4 P:85 SP:FB
7615 D436            LSR 46       zeropage   A:AA X:55 Y:A4 P:85 SP:FB
7621 D438            LDA A5       zeropage   A:AA X:55 Y:A4 P:4 SP:FB
7625 D43A            JSR 20       absolute   A:55 X:55 Y:A4 P:4 SP:FB
7630 F9AD            BCS B0      immediate   A:55 X:55 Y:A4 P:4 SP:F9
7633 F9AF            BEQ F0      immediate   A:55 X:55 Y:A4 P:4 SP:F9
7636 F9B1            BMI 30      immediate   A:55 X:55 Y:A4 P:4 SP:F9
7639 F9B3            BVS 70      immediate   A:55 X:55 Y:A4 P:4 SP:F9
7642 F9B5            CMP C9      immediate   A:55 X:55 Y:A4 P:4 SP:F9
7645 F9B7            BNE D0      immediate   A:55 X:55 Y:A4 P:7 SP:F9
7648 F9B9            RTS 60        implied   A:55 X:55 Y:A4 P:7 SP:F9
7655 D43D            INY C8        implied   A:55 X:55 Y:A4 P:7 SP:FB
7658 D43E            JSR 20       absolute   A:55 X:55 Y:A5 P:85 SP:FB
7663 F9BD            BIT 24       zeropage   A:55 X:55 Y:A5 P:85 SP:F9
7667 F9BF            SEC 38        implied   A:55 X:55 Y:A5 P:C5 SP:F9
7670 F9C0            LDA A9      immediate   A:55 X:55 Y:A5 P:C5 SP:F9
7673 F9C2            RTS 60        implied   A:80 X:55 Y:A5 P:C5 SP:F9
7680 D441            STA 85       zeropage   A:80 X:55 Y:A5 P:C5 SP:FB
7684 D443            ASL 6       zeropage   A:80 X:55 Y:A5 P:C5 SP:FB
7690 D445            LDA A5       zeropage   A:80 X:55 Y:A5 P:47 SP:FB
7694 D447            JSR 20       absolute   A:0 X:55 Y:A5 P:47 SP:FB
7699 F9C3            BCC 90      immediate   A:0 X:55 Y:A5 P:47 SP:F9
7702 F9C5            BNE D0      immediate   A:0 X:55 Y:A5 P:47 SP:F9
7705 F9C7            BMI 30      immediate   A:0 X:55 Y:A5 P:47 SP:F9
7708 F9C9            BVC 50      immediate   A:0 X:55 Y:A5 P:47 SP:F9
7711 F9CB            CMP C9      immediate   A:0 X:55 Y:A5 P:47 SP:F9
7714 F9CD            BNE D0      immediate   A:0 X:55 Y:A5 P:47 SP:F9
7717 F9CF            CLV B8        implied   A:0 X:55 Y:A5 P:47 SP:F9
7720 F9D0            LDA A9      immediate   A:0 X:55 Y:A5 P:7 SP:F9
7723 F9D2            SEC 38        implied   A:55 X:55 Y:A5 P:5 SP:F9
7726 F9D3            RTS 60        implied   A:55 X:55 Y:A5 P:5 SP:F9
7733 D44A            INY C8        implied   A:55 X:55 Y:A5 P:5 SP:FB
7736 D44B            STA 85       zeropage   A:55 X:55 Y:A6 P:85 SP:FB
7740 D44D            ASL 6       zeropage   A:55 X:55 Y:A6 P:85 SP:FB
7746 D44F            LDA A5       zeropage   A:55 X:55 Y:A6 P:84 SP:FB
7750 D451            JSR 20       absolute   A:AA X:55 Y:A6 P:84 SP:FB
7755 F9D4            BCS B0      immediate   A:AA X:55 Y:A6 P:84 SP:F9
7758 F9D6            BEQ F0      immediate   A:AA X:55 Y:A6 P:84 SP:F9
7761 F9D8            BPL 10      immediate   A:AA X:55 Y:A6 P:84 SP:F9
7764 F9DA            BVS 70      immediate   A:AA X:55 Y:A6 P:84 SP:F9
7767 F9DC            CMP C9      immediate   A:AA X:55 Y:A6 P:84 SP:F9
7770 F9DE            BNE D0      immediate   A:AA X:55 Y:A6 P:7 SP:F9
7773 F9E0            RTS 60        implied   A:AA X:55 Y:A6 P:7 SP:F9
7780 D454            INY C8        implied   A:AA X:55 Y:A6 P:7 SP:FB
7783 D455            JSR 20       absolute   A:AA X:55 Y:A7 P:85 SP:FB
7788 F9E4            BIT 24       zeropage   A:AA X:55 Y:A7 P:85 SP:F9
7792 F9E6            SEC 38        implied   A:AA X:55 Y:A7 P:C5 SP:F9
7795 F9E7            LDA A9      immediate   A:AA X:55 Y:A7 P:C5 SP:F9
7798 F9E9            RTS 60        implied   A:1 X:55 Y:A7 P:45 SP:F9
7805 D458            STA 85       zeropage   A:1 X:55 Y:A7 P:45 SP:FB
7809 D45A            ROR 66       zeropage   A:1 X:55 Y:A7 P:45 SP:FB
7815 D45C            LDA A5       zeropage   A:1 X:55 Y:A7 P:47 SP:FB
7819 D45E            JSR 20       absolute   A:80 X:55 Y:A7 P:C5 SP:FB
7824 F9EA            BCC 90      immediate   A:80 X:55 Y:A7 P:C5 SP:F9
7827 F9EC            BEQ F0      immediate   A:80 X:55 Y:A7 P:C5 SP:F9
7830 F9EE            BPL 10      immediate   A:80 X:55 Y:A7 P:C5 SP:F9
7833 F9F0            BVC 50      immediate   A:80 X:55 Y:A7 P:C5 SP:F9
7836 F9F2            CMP C9      immediate   A:80 X:55 Y:A7 P:C5 SP:F9
7839 F9F4            BNE D0      immediate   A:80 X:55 Y:A7 P:47 SP:F9
7842 F9F6            CLV B8        implied   A:80 X:55 Y:A7 P:47 SP:F9
7845 F9F7            CLC 18        implied   A:80 X:55 Y:A7 P:7 SP:F9
7848 F9F8            LDA A9      immediate   A:80 X:55 Y:A7 P:6 SP:F9
7851 F9FA            RTS 60        implied   A:55 X:55 Y:A7 P:4 SP:F9
7858 D461            INY C8        implied   A:55 X:55 Y:A7 P:4 SP:FB
7861 D462            STA 85       zeropage   A:55 X:55 Y:A8 P:84 SP:FB
7865 D464            ROR 66       zeropage   A:55 X:55 Y:A8 P:84 SP:FB
7871 D466            LDA A5       zeropage   A:55 X:55 Y:A8 P:5 SP:FB
7875 D468            JSR 20       absolute   A:2A X:55 Y:A8 P:5 SP:FB
7880 F9FB            BCC 90      immediate   A:2A X:55 Y:A8 P:5 SP:F9
7883 F9FD            BEQ F0      immediate   A:2A X:55 Y:A8 P:5 SP:F9
7886 F9FF            BMI 30      immediate   A:2A X:55 Y:A8 P:5 SP:F9
7889 FA01            BVS 70      immediate   A:2A X:55 Y:A8 P:5 SP:F9
7892 FA03            CMP C9      immediate   A:2A X:55 Y:A8 P:5 SP:F9
7895 FA05            BNE D0      immediate   A:2A X:55 Y:A8 P:7 SP:F9
7898 FA07            RTS 60        implied   A:2A X:55 Y:A8 P:7 SP:F9
7905 D46B            INY C8        implied   A:2A X:55 Y:A8 P:7 SP:FB
7908 D46C            JSR 20       absolute   A:2A X:55 Y:A9 P:85 SP:FB
7913 FA0A            BIT 24       zeropage   A:2A X:55 Y:A9 P:85 SP:F9
7917 FA0C            SEC 38        implied   A:2A X:55 Y:A9 P:C5 SP:F9
7920 FA0D            LDA A9      immediate   A:2A X:55 Y:A9 P:C5 SP:F9
7923 FA0F            RTS 60        implied   A:80 X:55 Y:A9 P:C5 SP:F9
7930 D46F            STA 85       zeropage   A:80 X:55 Y:A9 P:C5 SP:FB
7934 D471            ROL 26       zeropage   A:80 X:55 Y:A9 P:C5 SP:FB
7940 D473            LDA A5       zeropage   A:80 X:55 Y:A9 P:47 SP:FB
7944 D475            JSR 20       absolute   A:1 X:55 Y:A9 P:45 SP:FB
7949 FA10            BCC 90      immediate   A:1 X:55 Y:A9 P:45 SP:F9
7952 FA12            BEQ F0      immediate   A:1 X:55 Y:A9 P:45 SP:F9
7955 FA14            BMI 30      immediate   A:1 X:55 Y:A9 P:45 SP:F9
7958 FA16            BVC 50      immediate   A:1 X:55 Y:A9 P:45 SP:F9
7961 FA18            CMP C9      immediate   A:1 X:55 Y:A9 P:45 SP:F9
7964 FA1A            BNE D0      immediate   A:1 X:55 Y:A9 P:47 SP:F9
7967 FA1C            CLV B8        implied   A:1 X:55 Y:A9 P:47 SP:F9
7970 FA1D            CLC 18        implied   A:1 X:55 Y:A9 P:7 SP:F9
7973 FA1E            LDA A9      immediate   A:1 X:55 Y:A9 P:6 SP:F9
7976 FA20            RTS 60        implied   A:55 X:55 Y:A9 P:4 SP:F9
7983 D478            INY C8        implied   A:55 X:55 Y:A9 P:4 SP:FB
7986 D479            STA 85       zeropage   A:55 X:55 Y:AA P:84 SP:FB
7990 D47B            ROL 26       zeropage   A:55 X:55 Y:AA P:84 SP:FB
7996 D47D            LDA A5       zeropage   A:55 X:55 Y:AA P:84 SP:FB
8000 D47F            JSR 20       absolute   A:AA X:55 Y:AA P:84 SP:FB
8005 FA21            BCS B0      immediate   A:AA X:55 Y:AA P:84 SP:F9
8008 FA23            BEQ F0      immediate   A:AA X:55 Y:AA P:84 SP:F9
8011 FA25            BPL 10      immediate   A:AA X:55 Y:AA P:84 SP:F9
8014 FA27            BVS 70      immediate   A:AA X:55 Y:AA P:84 SP:F9
8017 FA29            CMP C9      immediate   A:AA X:55 Y:AA P:84 SP:F9
8020 FA2B            BNE D0      immediate   A:AA X:55 Y:AA P:7 SP:F9
8023 FA2D            RTS 60        implied   A:AA X:55 Y:AA P:7 SP:F9
8030 D482            LDA A9      immediate   A:AA X:55 Y:AA P:7 SP:FB
8033 D484            STA 85       zeropage   A:FF X:55 Y:AA P:85 SP:FB
8037 D486            STA 85       zeropage   A:FF X:55 Y:AA P:85 SP:FB
8041 D488            BIT 24       zeropage   A:FF X:55 Y:AA P:85 SP:FB
8045 D48A            SEC 38        implied   A:FF X:55 Y:AA P:C5 SP:FB
8048 D48B            INC E6       zeropage   A:FF X:55 Y:AA P:C5 SP:FB
8054 D48D            BNE D0      immediate   A:FF X:55 Y:AA P:47 SP:FB
8057 D48F            BMI 30      immediate   A:FF X:55 Y:AA P:47 SP:FB
8060 D491            BVC 50      immediate   A:FF X:55 Y:AA P:47 SP:FB
8063 D493            BCC 90      immediate   A:FF X:55 Y:AA P:47 SP:FB
8066 D495            LDA A5       zeropage   A:FF X:55 Y:AA P:47 SP:FB
8070 D497            CMP C9      immediate   A:0 X:55 Y:AA P:47 SP:FB
8073 D499            BEQ F0      immediate   A:0 X:55 Y:AA P:47 SP:FB
8076 D49F            LDA A9      immediate   A:0 X:55 Y:AA P:47 SP:FB
8079 D4A1            STA 85       zeropage   A:7F X:55 Y:AA P:45 SP:FB
8083 D4A3            CLV B8        implied   A:7F X:55 Y:AA P:45 SP:FB
8086 D4A4            CLC 18        implied   A:7F X:55 Y:AA P:5 SP:FB
8089 D4A5            INC E6       zeropage   A:7F X:55 Y:AA P:4 SP:FB
8095 D4A7            BEQ F0      immediate   A:7F X:55 Y:AA P:84 SP:FB
8098 D4A9            BPL 10      immediate   A:7F X:55 Y:AA P:84 SP:FB
8101 D4AB            BVS 70      immediate   A:7F X:55 Y:AA P:84 SP:FB
8104 D4AD            BCS B0      immediate   A:7F X:55 Y:AA P:84 SP:FB
8107 D4AF            LDA A5       zeropage   A:7F X:55 Y:AA P:84 SP:FB
8111 D4B1            CMP C9      immediate   A:80 X:55 Y:AA P:84 SP:FB
8114 D4B3            BEQ F0      immediate   A:80 X:55 Y:AA P:7 SP:FB
8117 D4B9            LDA A9      immediate   A:80 X:55 Y:AA P:7 SP:FB
8120 D4BB            STA 85       zeropage   A:0 X:55 Y:AA P:7 SP:FB
8124 D4BD            BIT 24       zeropage   A:0 X:55 Y:AA P:7 SP:FB
8128 D4BF            SEC 38        implied   A:0 X:55 Y:AA P:C7 SP:FB
8131 D4C0            DEC C6       zeropage   A:0 X:55 Y:AA P:C7 SP:FB
8137 D4C2            BEQ F0      immediate   A:0 X:55 Y:AA P:C5 SP:FB
8140 D4C4            BPL 10      immediate   A:0 X:55 Y:AA P:C5 SP:FB
8143 D4C6            BVC 50      immediate   A:0 X:55 Y:AA P:C5 SP:FB
8146 D4C8            BCC 90      immediate   A:0 X:55 Y:AA P:C5 SP:FB
8149 D4CA            LDA A5       zeropage   A:0 X:55 Y:AA P:C5 SP:FB
8153 D4CC            CMP C9      immediate   A:FF X:55 Y:AA P:C5 SP:FB
8156 D4CE            BEQ F0      immediate   A:FF X:55 Y:AA P:47 SP:FB
8159 D4D4            LDA A9      immediate   A:FF X:55 Y:AA P:47 SP:FB
8162 D4D6            STA 85       zeropage   A:80 X:55 Y:AA P:C5 SP:FB
8166 D4D8            CLV B8        implied   A:80 X:55 Y:AA P:C5 SP:FB
8169 D4D9            CLC 18        implied   A:80 X:55 Y:AA P:85 SP:FB
8172 D4DA            DEC C6       zeropage   A:80 X:55 Y:AA P:84 SP:FB
8178 D4DC            BEQ F0      immediate   A:80 X:55 Y:AA P:4 SP:FB
8181 D4DE            BMI 30      immediate   A:80 X:55 Y:AA P:4 SP:FB
8184 D4E0            BVS 70      immediate   A:80 X:55 Y:AA P:4 SP:FB
8187 D4E2            BCS B0      immediate   A:80 X:55 Y:AA P:4 SP:FB
8190 D4E4            LDA A5       zeropage   A:80 X:55 Y:AA P:4 SP:FB
8194 D4E6            CMP C9      immediate   A:7F X:55 Y:AA P:4 SP:FB
8197 D4E8            BEQ F0      immediate   A:7F X:55 Y:AA P:7 SP:FB
8200 D4EE            LDA A9      immediate   A:7F X:55 Y:AA P:7 SP:FB
8203 D4F0            STA 85       zeropage   A:1 X:55 Y:AA P:5 SP:FB
8207 D4F2            DEC C6       zeropage   A:1 X:55 Y:AA P:5 SP:FB
8213 D4F4            BEQ F0      immediate   A:1 X:55 Y:AA P:7 SP:FB
8216 D4FA            RTS 60        implied   A:1 X:55 Y:AA P:7 SP:FB
8223 C615            JSR 20       absolute   A:1 X:55 Y:AA P:7 SP:FD
8228 D4FB            LDA A9      immediate   A:1 X:55 Y:AA P:7 SP:FB
8231 D4FD            STA 8D       absolute   A:55 X:55 Y:AA P:5 SP:FB
8236 D500            LDA A9      immediate   A:55 X:55 Y:AA P:5 SP:FB
8239 D502            STA 85       zeropage   A:FF X:55 Y:AA P:85 SP:FB
8243 D504            BIT 24       zeropage   A:FF X:55 Y:AA P:85 SP:FB
8247 D506            LDY A0      immediate   A:FF X:55 Y:AA P:C5 SP:FB
8250 D508            LDX A2      immediate   A:FF X:55 Y:11 P:45 SP:FB
8253 D50A            LDA A9      immediate   A:FF X:23 Y:11 P:45 SP:FB
8256 D50C            LDA AD       absolute   A:0 X:23 Y:11 P:47 SP:FB
8261 D50F            BEQ F0      immediate   A:55 X:23 Y:11 P:45 SP:FB
8264 D511            BMI 30      immediate   A:55 X:23 Y:11 P:45 SP:FB
8267 D513            CMP C9      immediate   A:55 X:23 Y:11 P:45 SP:FB
8270 D515            BNE D0      immediate   A:55 X:23 Y:11 P:47 SP:FB
8273 D517            CPY C0      immediate   A:55 X:23 Y:11 P:47 SP:FB
8276 D519            BNE D0      immediate   A:55 X:23 Y:11 P:47 SP:FB
8279 D51B            CPX E0      immediate   A:55 X:23 Y:11 P:47 SP:FB
8282 D51D            BVC 50      immediate   A:55 X:23 Y:11 P:47 SP:FB
8285 D51F            BEQ F0      immediate   A:55 X:23 Y:11 P:47 SP:FB
8288 D525            LDA A9      immediate   A:55 X:23 Y:11 P:47 SP:FB
8291 D527            BIT 24       zeropage   A:46 X:23 Y:11 P:45 SP:FB
8295 D529            STA 8D       absolute   A:46 X:23 Y:11 P:C5 SP:FB
8300 D52C            BEQ F0      immediate   A:46 X:23 Y:11 P:C5 SP:FB
8303 D52E            BPL 10      immediate   A:46 X:23 Y:11 P:C5 SP:FB
8306 D530            BVC 50      immediate   A:46 X:23 Y:11 P:C5 SP:FB
8309 D532            LDA AD       absolute   A:46 X:23 Y:11 P:C5 SP:FB
8314 D535            CMP C9      immediate   A:46 X:23 Y:11 P:45 SP:FB
8317 D537            BEQ F0      immediate   A:46 X:23 Y:11 P:47 SP:FB
8320 D53D            LDA A9      immediate   A:46 X:23 Y:11 P:47 SP:FB
8323 D53F            STA 8D       absolute   A:55 X:23 Y:11 P:45 SP:FB
8328 D542            BIT 24       zeropage   A:55 X:23 Y:11 P:45 SP:FB
8332 D544            LDA A9      immediate   A:55 X:23 Y:11 P:C5 SP:FB
8335 D546            LDX A2      immediate   A:11 X:23 Y:11 P:45 SP:FB
8338 D548            LDY A0      immediate   A:11 X:23 Y:11 P:45 SP:FB
8341 D54A            LDY AC       absolute   A:11 X:23 Y:0 P:47 SP:FB
8346 D54D            BEQ F0      immediate   A:11 X:23 Y:55 P:45 SP:FB
8349 D54F            BMI 30      immediate   A:11 X:23 Y:55 P:45 SP:FB
8352 D551            CPY C0      immediate   A:11 X:23 Y:55 P:45 SP:FB
8355 D553            BNE D0      immediate   A:11 X:23 Y:55 P:47 SP:FB
8358 D555            CMP C9      immediate   A:11 X:23 Y:55 P:47 SP:FB
8361 D557            BNE D0      immediate   A:11 X:23 Y:55 P:47 SP:FB
8364 D559            CPX E0      immediate   A:11 X:23 Y:55 P:47 SP:FB
8367 D55B            BVC 50      immediate   A:11 X:23 Y:55 P:47 SP:FB
8370 D55D            BEQ F0      immediate   A:11 X:23 Y:55 P:47 SP:FB
8373 D563            LDY A0      immediate   A:11 X:23 Y:55 P:47 SP:FB
8376 D565            BIT 24       zeropage   A:11 X:23 Y:46 P:45 SP:FB
8380 D567            STY 8C       absolute   A:11 X:23 Y:46 P:C5 SP:FB
8385 D56A            BEQ F0      immediate   A:11 X:23 Y:46 P:C5 SP:FB
8388 D56C            BPL 10      immediate   A:11 X:23 Y:46 P:C5 SP:FB
8391 D56E            BVC 50      immediate   A:11 X:23 Y:46 P:C5 SP:FB
8394 D570            LDY AC       absolute   A:11 X:23 Y:46 P:C5 SP:FB
8399 D573            CPY C0      immediate   A:11 X:23 Y:46 P:45 SP:FB
8402 D575            BEQ F0      immediate   A:11 X:23 Y:46 P:47 SP:FB
8405 D57B            BIT 24       zeropage   A:11 X:23 Y:46 P:47 SP:FB
8409 D57D            LDA A9      immediate   A:11 X:23 Y:46 P:C5 SP:FB
8412 D57F            STA 8D       absolute   A:55 X:23 Y:46 P:45 SP:FB
8417 D582            LDY A0      immediate   A:55 X:23 Y:46 P:45 SP:FB
8420 D584            LDA A9      immediate   A:55 X:23 Y:11 P:45 SP:FB
8423 D586            LDX A2      immediate   A:23 X:23 Y:11 P:45 SP:FB
8426 D588            LDX AE       absolute   A:23 X:0 Y:11 P:47 SP:FB
8431 D58B            BEQ F0      immediate   A:23 X:55 Y:11 P:45 SP:FB
8434 D58D            BMI 30      immediate   A:23 X:55 Y:11 P:45 SP:FB
8437 D58F            CPX E0      immediate   A:23 X:55 Y:11 P:45 SP:FB
8440 D591            BNE D0      immediate   A:23 X:55 Y:11 P:47 SP:FB
8443 D593            CPY C0      immediate   A:23 X:55 Y:11 P:47 SP:FB
8446 D595            BNE D0      immediate   A:23 X:55 Y:11 P:47 SP:FB
8449 D597            CMP C9      immediate   A:23 X:55 Y:11 P:47 SP:FB
8452 D599            BVC 50      immediate   A:23 X:55 Y:11 P:47 SP:FB
8455 D59B            BEQ F0      immediate   A:23 X:55 Y:11 P:47 SP:FB
8458 D5A1            LDX A2      immediate   A:23 X:55 Y:11 P:47 SP:FB
8461 D5A3            BIT 24       zeropage   A:23 X:46 Y:11 P:45 SP:FB
8465 D5A5            STX 8E       absolute   A:23 X:46 Y:11 P:C5 SP:FB
8470 D5A8            BEQ F0      immediate   A:23 X:46 Y:11 P:C5 SP:FB
8473 D5AA            BPL 10      immediate   A:23 X:46 Y:11 P:C5 SP:FB
8476 D5AC            BVC 50      immediate   A:23 X:46 Y:11 P:C5 SP:FB
8479 D5AE            LDX AE       absolute   A:23 X:46 Y:11 P:C5 SP:FB
8484 D5B1            CPX E0      immediate   A:23 X:46 Y:11 P:45 SP:FB
8487 D5B3            BEQ F0      immediate   A:23 X:46 Y:11 P:47 SP:FB
8490 D5B9            LDA A9      immediate   A:23 X:46 Y:11 P:47 SP:FB
8493 D5BB            STA 8D       absolute   A:C0 X:46 Y:11 P:C5 SP:FB
8498 D5BE            LDX A2      immediate   A:C0 X:46 Y:11 P:C5 SP:FB
8501 D5C0            LDY A0      immediate   A:C0 X:33 Y:11 P:45 SP:FB
8504 D5C2            LDA A9      immediate   A:C0 X:33 Y:88 P:C5 SP:FB
8507 D5C4            BIT 2C       absolute   A:5 X:33 Y:88 P:45 SP:FB
8512 D5C7            BPL 10      immediate   A:5 X:33 Y:88 P:C7 SP:FB
8515 D5C9            BVC 50      immediate   A:5 X:33 Y:88 P:C7 SP:FB
8518 D5CB            BNE D0      immediate   A:5 X:33 Y:88 P:C7 SP:FB
8521 D5CD            CMP C9      immediate   A:5 X:33 Y:88 P:C7 SP:FB
8524 D5CF            BNE D0      immediate   A:5 X:33 Y:88 P:47 SP:FB
8527 D5D1            CPX E0      immediate   A:5 X:33 Y:88 P:47 SP:FB
8530 D5D3            BNE D0      immediate   A:5 X:33 Y:88 P:47 SP:FB
8533 D5D5            CPY C0      immediate   A:5 X:33 Y:88 P:47 SP:FB
8536 D5D7            BEQ F0      immediate   A:5 X:33 Y:88 P:47 SP:FB
8539 D5DD            LDA A9      immediate   A:5 X:33 Y:88 P:47 SP:FB
8542 D5DF            STA 8D       absolute   A:3 X:33 Y:88 P:45 SP:FB
8547 D5E2            LDA A9      immediate   A:3 X:33 Y:88 P:45 SP:FB
8550 D5E4            BIT 2C       absolute   A:1 X:33 Y:88 P:45 SP:FB
8555 D5E7            BMI 30      immediate   A:1 X:33 Y:88 P:5 SP:FB
8558 D5E9            BVS 70      immediate   A:1 X:33 Y:88 P:5 SP:FB
8561 D5EB            BEQ F0      immediate   A:1 X:33 Y:88 P:5 SP:FB
8564 D5ED            CMP C9      immediate   A:1 X:33 Y:88 P:5 SP:FB
8567 D5EF            BEQ F0      immediate   A:1 X:33 Y:88 P:7 SP:FB
8570 D5F5            LDY A0      immediate   A:1 X:33 Y:88 P:7 SP:FB
8573 D5F7            LDA A9      immediate   A:1 X:33 Y:B8 P:85 SP:FB
8576 D5F9            STA 8D       absolute   A:AA X:33 Y:B8 P:85 SP:FB
8581 D5FC            JSR 20       absolute   A:AA X:33 Y:B8 P:85 SP:FB
8586 F7B6            CLC 18        implied   A:AA X:33 Y:B8 P:85 SP:F9
8589 F7B7            LDA A9      immediate   A:AA X:33 Y:B8 P:84 SP:F9
8592 F7B9            STA 85       zeropage   A:FF X:33 Y:B8 P:84 SP:F9
8596 F7BB            BIT 24       zeropage   A:FF X:33 Y:B8 P:84 SP:F9
8600 F7BD            LDA A9      immediate   A:FF X:33 Y:B8 P:C4 SP:F9
8603 F7BF            RTS 60        implied   A:55 X:33 Y:B8 P:44 SP:F9
8610 D5FF            ORA D       absolute   A:55 X:33 Y:B8 P:44 SP:FB
8615 D602            JSR 20       absolute   A:FF X:33 Y:B8 P:C4 SP:FB
8620 F7C0            BCS B0      immediate   A:FF X:33 Y:B8 P:C4 SP:F9
8623 F7C2            BPL 10      immediate   A:FF X:33 Y:B8 P:C4 SP:F9
8626 F7C4            CMP C9      immediate   A:FF X:33 Y:B8 P:C4 SP:F9
8629 F7C6            BNE D0      immediate   A:FF X:33 Y:B8 P:47 SP:F9
8632 F7C8            BVC 50      immediate   A:FF X:33 Y:B8 P:47 SP:F9
8635 F7CA            RTS 60        implied   A:FF X:33 Y:B8 P:47 SP:F9
8642 D605            INY C8        implied   A:FF X:33 Y:B8 P:47 SP:FB
8645 D606            LDA A9      immediate   A:FF X:33 Y:B9 P:C5 SP:FB
8648 D608            STA 8D       absolute   A:0 X:33 Y:B9 P:47 SP:FB
8653 D60B            JSR 20       absolute   A:0 X:33 Y:B9 P:47 SP:FB
8658 F7CE            SEC 38        implied   A:0 X:33 Y:B9 P:47 SP:F9
8661 F7CF            CLV B8        implied   A:0 X:33 Y:B9 P:47 SP:F9
8664 F7D0            LDA A9      immediate   A:0 X:33 Y:B9 P:7 SP:F9
8667 F7D2            RTS 60        implied   A:0 X:33 Y:B9 P:7 SP:F9
8674 D60E            ORA D       absolute   A:0 X:33 Y:B9 P:7 SP:FB
8679 D611            JSR 20       absolute   A:0 X:33 Y:B9 P:7 SP:FB
8684 F7D3            BNE D0      immediate   A:0 X:33 Y:B9 P:7 SP:F9
8687 F7D5            BVS 70      immediate   A:0 X:33 Y:B9 P:7 SP:F9
8690 F7D7            BCC 90      immediate   A:0 X:33 Y:B9 P:7 SP:F9
8693 F7D9            BMI 30      immediate   A:0 X:33 Y:B9 P:7 SP:F9
8696 F7DB            RTS 60        implied   A:0 X:33 Y:B9 P:7 SP:F9
8703 D614            INY C8        implied   A:0 X:33 Y:B9 P:7 SP:FB
8706 D615            LDA A9      immediate   A:0 X:33 Y:BA P:85 SP:FB
8709 D617            STA 8D       absolute   A:AA X:33 Y:BA P:85 SP:FB
8714 D61A            JSR 20       absolute   A:AA X:33 Y:BA P:85 SP:FB
8719 F7DF            CLC 18        implied   A:AA X:33 Y:BA P:85 SP:F9
8722 F7E0            BIT 24       zeropage   A:AA X:33 Y:BA P:84 SP:F9
8726 F7E2            LDA A9      immediate   A:AA X:33 Y:BA P:C4 SP:F9
8729 F7E4            RTS 60        implied   A:55 X:33 Y:BA P:44 SP:F9
8736 D61D            AND 2D       absolute   A:55 X:33 Y:BA P:44 SP:FB
8741 D620            JSR 20       absolute   A:0 X:33 Y:BA P:46 SP:FB
8746 F7E5            BNE D0      immediate   A:0 X:33 Y:BA P:46 SP:F9
8749 F7E7            BVC 50      immediate   A:0 X:33 Y:BA P:46 SP:F9
8752 F7E9            BCS B0      immediate   A:0 X:33 Y:BA P:46 SP:F9
8755 F7EB            BMI 30      immediate   A:0 X:33 Y:BA P:46 SP:F9
8758 F7ED            RTS 60        implied   A:0 X:33 Y:BA P:46 SP:F9
8765 D623            INY C8        implied   A:0 X:33 Y:BA P:46 SP:FB
8768 D624            LDA A9      immediate   A:0 X:33 Y:BB P:C4 SP:FB
8771 D626            STA 8D       absolute   A:EF X:33 Y:BB P:C4 SP:FB
8776 D629            JSR 20       absolute   A:EF X:33 Y:BB P:C4 SP:FB
8781 F7F1            SEC 38        implied   A:EF X:33 Y:BB P:C4 SP:F9
8784 F7F2            CLV B8        implied   A:EF X:33 Y:BB P:C5 SP:F9
8787 F7F3            LDA A9      immediate   A:EF X:33 Y:BB P:85 SP:F9
8790 F7F5            RTS 60        implied   A:F8 X:33 Y:BB P:85 SP:F9
8797 D62C            AND 2D       absolute   A:F8 X:33 Y:BB P:85 SP:FB
8802 D62F            JSR 20       absolute   A:E8 X:33 Y:BB P:85 SP:FB
8807 F7F6            BCC 90      immediate   A:E8 X:33 Y:BB P:85 SP:F9
8810 F7F8            BPL 10      immediate   A:E8 X:33 Y:BB P:85 SP:F9
8813 F7FA            CMP C9      immediate   A:E8 X:33 Y:BB P:85 SP:F9
8816 F7FC            BNE D0      immediate   A:E8 X:33 Y:BB P:7 SP:F9
8819 F7FE            BVS 70      immediate   A:E8 X:33 Y:BB P:7 SP:F9
8822 F800            RTS 60        implied   A:E8 X:33 Y:BB P:7 SP:F9
8829 D632            INY C8        implied   A:E8 X:33 Y:BB P:7 SP:FB
8832 D633            LDA A9      immediate   A:E8 X:33 Y:BC P:85 SP:FB
8835 D635            STA 8D       absolute   A:AA X:33 Y:BC P:85 SP:FB
8840 D638            JSR 20       absolute   A:AA X:33 Y:BC P:85 SP:FB
8845 F804            CLC 18        implied   A:AA X:33 Y:BC P:85 SP:F9
8848 F805            BIT 24       zeropage   A:AA X:33 Y:BC P:84 SP:F9
8852 F807            LDA A9      immediate   A:AA X:33 Y:BC P:C4 SP:F9
8855 F809            RTS 60        implied   A:5F X:33 Y:BC P:44 SP:F9
8862 D63B            EOR 4D       absolute   A:5F X:33 Y:BC P:44 SP:FB
8867 D63E            JSR 20       absolute   A:F5 X:33 Y:BC P:C4 SP:FB
8872 F80A            BCS B0      immediate   A:F5 X:33 Y:BC P:C4 SP:F9
8875 F80C            BPL 10      immediate   A:F5 X:33 Y:BC P:C4 SP:F9
8878 F80E            CMP C9      immediate   A:F5 X:33 Y:BC P:C4 SP:F9
8881 F810            BNE D0      immediate   A:F5 X:33 Y:BC P:47 SP:F9
8884 F812            BVC 50      immediate   A:F5 X:33 Y:BC P:47 SP:F9
8887 F814            RTS 60        implied   A:F5 X:33 Y:BC P:47 SP:F9
8894 D641            INY C8        implied   A:F5 X:33 Y:BC P:47 SP:FB
8897 D642            LDA A9      immediate   A:F5 X:33 Y:BD P:C5 SP:FB
8900 D644            STA 8D       absolute   A:70 X:33 Y:BD P:45 SP:FB
8905 D647            JSR 20       absolute   A:70 X:33 Y:BD P:45 SP:FB
8910 F818            SEC 38        implied   A:70 X:33 Y:BD P:45 SP:F9
8913 F819            CLV B8        implied   A:70 X:33 Y:BD P:45 SP:F9
8916 F81A            LDA A9      immediate   A:70 X:33 Y:BD P:5 SP:F9
8919 F81C            RTS 60        implied   A:70 X:33 Y:BD P:5 SP:F9
8926 D64A            EOR 4D       absolute   A:70 X:33 Y:BD P:5 SP:FB
8931 D64D            JSR 20       absolute   A:0 X:33 Y:BD P:7 SP:FB
8936 F81D            BNE D0      immediate   A:0 X:33 Y:BD P:7 SP:F9
8939 F81F            BVS 70      immediate   A:0 X:33 Y:BD P:7 SP:F9
8942 F821            BCC 90      immediate   A:0 X:33 Y:BD P:7 SP:F9
8945 F823            BMI 30      immediate   A:0 X:33 Y:BD P:7 SP:F9
8948 F825            RTS 60        implied   A:0 X:33 Y:BD P:7 SP:F9
8955 D650            INY C8        implied   A:0 X:33 Y:BD P:7 SP:FB
8958 D651            LDA A9      immediate   A:0 X:33 Y:BE P:85 SP:FB
8961 D653            STA 8D       absolute   A:69 X:33 Y:BE P:5 SP:FB
8966 D656            JSR 20       absolute   A:69 X:33 Y:BE P:5 SP:FB
8971 F829            CLC 18        implied   A:69 X:33 Y:BE P:5 SP:F9
8974 F82A            BIT 24       zeropage   A:69 X:33 Y:BE P:4 SP:F9
8978 F82C            LDA A9      immediate   A:69 X:33 Y:BE P:C4 SP:F9
8981 F82E            RTS 60        implied   A:0 X:33 Y:BE P:46 SP:F9
8988 D659            ADC 6D       absolute   A:0 X:33 Y:BE P:46 SP:FB
8993 D65C            JSR 20       absolute   A:69 X:33 Y:BE P:4 SP:FB
8998 F82F            BMI 30      immediate   A:69 X:33 Y:BE P:4 SP:F9
9001 F831            BCS B0      immediate   A:69 X:33 Y:BE P:4 SP:F9
9004 F833            CMP C9      immediate   A:69 X:33 Y:BE P:4 SP:F9
9007 F835            BNE D0      immediate   A:69 X:33 Y:BE P:7 SP:F9
9010 F837            BVS 70      immediate   A:69 X:33 Y:BE P:7 SP:F9
9013 F839            RTS 60        implied   A:69 X:33 Y:BE P:7 SP:F9
9020 D65F            INY C8        implied   A:69 X:33 Y:BE P:7 SP:FB
9023 D660            JSR 20       absolute   A:69 X:33 Y:BF P:85 SP:FB
9028 F83D            SEC 38        implied   A:69 X:33 Y:BF P:85 SP:F9
9031 F83E            BIT 24       zeropage   A:69 X:33 Y:BF P:85 SP:F9
9035 F840            LDA A9      immediate   A:69 X:33 Y:BF P:C5 SP:F9
9038 F842            RTS 60        implied   A:0 X:33 Y:BF P:47 SP:F9
9045 D663            ADC 6D       absolute   A:0 X:33 Y:BF P:47 SP:FB
9050 D666            JSR 20       absolute   A:6A X:33 Y:BF P:4 SP:FB
9055 F843            BMI 30      immediate   A:6A X:33 Y:BF P:4 SP:F9
9058 F845            BCS B0      immediate   A:6A X:33 Y:BF P:4 SP:F9
9061 F847            CMP C9      immediate   A:6A X:33 Y:BF P:4 SP:F9
9064 F849            BNE D0      immediate   A:6A X:33 Y:BF P:7 SP:F9
9067 F84B            BVS 70      immediate   A:6A X:33 Y:BF P:7 SP:F9
9070 F84D            RTS 60        implied   A:6A X:33 Y:BF P:7 SP:F9
9077 D669            INY C8        implied   A:6A X:33 Y:BF P:7 SP:FB
9080 D66A            LDA A9      immediate   A:6A X:33 Y:C0 P:85 SP:FB
9083 D66C            STA 8D       absolute   A:7F X:33 Y:C0 P:5 SP:FB
9088 D66F            JSR 20       absolute   A:7F X:33 Y:C0 P:5 SP:FB
9093 F851            SEC 38        implied   A:7F X:33 Y:C0 P:5 SP:F9
9096 F852            CLV B8        implied   A:7F X:33 Y:C0 P:5 SP:F9
9099 F853            LDA A9      immediate   A:7F X:33 Y:C0 P:5 SP:F9
9102 F855            RTS 60        implied   A:7F X:33 Y:C0 P:5 SP:F9
9109 D672            ADC 6D       absolute   A:7F X:33 Y:C0 P:5 SP:FB
9114 D675            JSR 20       absolute   A:FF X:33 Y:C0 P:C4 SP:FB
9119 F856            BPL 10      immediate   A:FF X:33 Y:C0 P:C4 SP:F9
9122 F858            BCS B0      immediate   A:FF X:33 Y:C0 P:C4 SP:F9
9125 F85A            CMP C9      immediate   A:FF X:33 Y:C0 P:C4 SP:F9
9128 F85C            BNE D0      immediate   A:FF X:33 Y:C0 P:47 SP:F9
9131 F85E            BVC 50      immediate   A:FF X:33 Y:C0 P:47 SP:F9
9134 F860            RTS 60        implied   A:FF X:33 Y:C0 P:47 SP:F9
9141 D678            INY C8        implied   A:FF X:33 Y:C0 P:47 SP:FB
9144 D679            LDA A9      immediate   A:FF X:33 Y:C1 P:C5 SP:FB
9147 D67B            STA 8D       absolute   A:80 X:33 Y:C1 P:C5 SP:FB
9152 D67E            JSR 20       absolute   A:80 X:33 Y:C1 P:C5 SP:FB
9157 F864            CLC 18        implied   A:80 X:33 Y:C1 P:C5 SP:F9
9160 F865            BIT 24       zeropage   A:80 X:33 Y:C1 P:C4 SP:F9
9164 F867            LDA A9      immediate   A:80 X:33 Y:C1 P:C4 SP:F9
9167 F869            RTS 60        implied   A:7F X:33 Y:C1 P:44 SP:F9
9174 D681            ADC 6D       absolute   A:7F X:33 Y:C1 P:44 SP:FB
9179 D684            JSR 20       absolute   A:FF X:33 Y:C1 P:84 SP:FB
9184 F86A            BPL 10      immediate   A:FF X:33 Y:C1 P:84 SP:F9
9187 F86C            BCS B0      immediate   A:FF X:33 Y:C1 P:84 SP:F9
9190 F86E            CMP C9      immediate   A:FF X:33 Y:C1 P:84 SP:F9
9193 F870            BNE D0      immediate   A:FF X:33 Y:C1 P:7 SP:F9
9196 F872            BVS 70      immediate   A:FF X:33 Y:C1 P:7 SP:F9
9199 F874            RTS 60        implied   A:FF X:33 Y:C1 P:7 SP:F9
9206 D687            INY C8        implied   A:FF X:33 Y:C1 P:7 SP:FB
9209 D688            JSR 20       absolute   A:FF X:33 Y:C2 P:85 SP:FB
9214 F878            SEC 38        implied   A:FF X:33 Y:C2 P:85 SP:F9
9217 F879            CLV B8        implied   A:FF X:33 Y:C2 P:85 SP:F9
9220 F87A            LDA A9      immediate   A:FF X:33 Y:C2 P:85 SP:F9
9223 F87C            RTS 60        implied   A:7F X:33 Y:C2 P:5 SP:F9
9230 D68B            ADC 6D       absolute   A:7F X:33 Y:C2 P:5 SP:FB
9235 D68E            JSR 20       absolute   A:0 X:33 Y:C2 P:7 SP:FB
9240 F87D            BNE D0      immediate   A:0 X:33 Y:C2 P:7 SP:F9
9243 F87F            BMI 30      immediate   A:0 X:33 Y:C2 P:7 SP:F9
9246 F881            BVS 70      immediate   A:0 X:33 Y:C2 P:7 SP:F9
9249 F883            BCC 90      immediate   A:0 X:33 Y:C2 P:7 SP:F9
9252 F885            RTS 60        implied   A:0 X:33 Y:C2 P:7 SP:F9
9259 D691            INY C8        implied   A:0 X:33 Y:C2 P:7 SP:FB
9262 D692            LDA A9      immediate   A:0 X:33 Y:C3 P:85 SP:FB
9265 D694            STA 8D       absolute   A:40 X:33 Y:C3 P:5 SP:FB
9270 D697            JSR 20       absolute   A:40 X:33 Y:C3 P:5 SP:FB
9275 F889            BIT 24       zeropage   A:40 X:33 Y:C3 P:5 SP:F9
9279 F88B            LDA A9      immediate   A:40 X:33 Y:C3 P:C5 SP:F9
9282 F88D            RTS 60        implied   A:40 X:33 Y:C3 P:45 SP:F9
9289 D69A            CMP CD       absolute   A:40 X:33 Y:C3 P:45 SP:FB
9294 D69D            JSR 20       absolute   A:40 X:33 Y:C3 P:47 SP:FB
9299 F88E            BMI 30      immediate   A:40 X:33 Y:C3 P:47 SP:F9
9302 F890            BCC 90      immediate   A:40 X:33 Y:C3 P:47 SP:F9
9305 F892            BNE D0      immediate   A:40 X:33 Y:C3 P:47 SP:F9
9308 F894            BVC 50      immediate   A:40 X:33 Y:C3 P:47 SP:F9
9311 F896            RTS 60        implied   A:40 X:33 Y:C3 P:47 SP:F9
9318 D6A0            INY C8        implied   A:40 X:33 Y:C3 P:47 SP:FB
9321 D6A1            PHA 48        implied   A:40 X:33 Y:C4 P:C5 SP:FB
9325 D6A2            LDA A9      immediate   A:40 X:33 Y:C4 P:C5 SP:FA
9328 D6A4            STA 8D       absolute   A:3F X:33 Y:C4 P:45 SP:FA
9333 D6A7            PLA 68        implied   A:3F X:33 Y:C4 P:45 SP:FA
9338 D6A8            JSR 20       absolute   A:40 X:33 Y:C4 P:45 SP:FB
9343 F89A            CLV B8        implied   A:40 X:33 Y:C4 P:45 SP:F9
9346 F89B            RTS 60        implied   A:40 X:33 Y:C4 P:5 SP:F9
9353 D6AB            CMP CD       absolute   A:40 X:33 Y:C4 P:5 SP:FB
9358 D6AE            JSR 20       absolute   A:40 X:33 Y:C4 P:5 SP:FB
9363 F89C            BEQ F0      immediate   A:40 X:33 Y:C4 P:5 SP:F9
9366 F89E            BMI 30      immediate   A:40 X:33 Y:C4 P:5 SP:F9
9369 F8A0            BCC 90      immediate   A:40 X:33 Y:C4 P:5 SP:F9
9372 F8A2            BVS 70      immediate   A:40 X:33 Y:C4 P:5 SP:F9
9375 F8A4            RTS 60        implied   A:40 X:33 Y:C4 P:5 SP:F9
9382 D6B1            INY C8        implied   A:40 X:33 Y:C4 P:5 SP:FB
9385 D6B2            PHA 48        implied   A:40 X:33 Y:C5 P:85 SP:FB
9389 D6B3            LDA A9      immediate   A:40 X:33 Y:C5 P:85 SP:FA
9392 D6B5            STA 8D       absolute   A:41 X:33 Y:C5 P:5 SP:FA
9397 D6B8            PLA 68        implied   A:41 X:33 Y:C5 P:5 SP:FA
9402 D6B9            CMP CD       absolute   A:40 X:33 Y:C5 P:5 SP:FB
9407 D6BC            JSR 20       absolute   A:40 X:33 Y:C5 P:84 SP:FB
9412 F8A8            BEQ F0      immediate   A:40 X:33 Y:C5 P:84 SP:F9
9415 F8AA            BPL 10      immediate   A:40 X:33 Y:C5 P:84 SP:F9
9418 F8AC            BPL 10      immediate   A:40 X:33 Y:C5 P:84 SP:F9
9421 F8AE            RTS 60        implied   A:40 X:33 Y:C5 P:84 SP:F9
9428 D6BF            INY C8        implied   A:40 X:33 Y:C5 P:84 SP:FB
9431 D6C0            PHA 48        implied   A:40 X:33 Y:C6 P:84 SP:FB
9435 D6C1            LDA A9      immediate   A:40 X:33 Y:C6 P:84 SP:FA
9438 D6C3            STA 8D       absolute   A:0 X:33 Y:C6 P:6 SP:FA
9443 D6C6            PLA 68        implied   A:0 X:33 Y:C6 P:6 SP:FA
9448 D6C7            JSR 20       absolute   A:40 X:33 Y:C6 P:4 SP:FB
9453 F8B2            LDA A9      immediate   A:40 X:33 Y:C6 P:4 SP:F9
9456 F8B4            RTS 60        implied   A:80 X:33 Y:C6 P:84 SP:F9
9463 D6CA            CMP CD       absolute   A:80 X:33 Y:C6 P:84 SP:FB
9468 D6CD            JSR 20       absolute   A:80 X:33 Y:C6 P:85 SP:FB
9473 F8B5            BEQ F0      immediate   A:80 X:33 Y:C6 P:85 SP:F9
9476 F8B7            BPL 10      immediate   A:80 X:33 Y:C6 P:85 SP:F9
9479 F8B9            BCC 90      immediate   A:80 X:33 Y:C6 P:85 SP:F9
9482 F8BB            RTS 60        implied   A:80 X:33 Y:C6 P:85 SP:F9
9489 D6D0            INY C8        implied   A:80 X:33 Y:C6 P:85 SP:FB
9492 D6D1            PHA 48        implied   A:80 X:33 Y:C7 P:85 SP:FB
9496 D6D2            LDA A9      immediate   A:80 X:33 Y:C7 P:85 SP:FA
9499 D6D4            STA 8D       absolute   A:80 X:33 Y:C7 P:85 SP:FA
9504 D6D7            PLA 68        implied   A:80 X:33 Y:C7 P:85 SP:FA
9509 D6D8            CMP CD       absolute   A:80 X:33 Y:C7 P:85 SP:FB
9514 D6DB            JSR 20       absolute   A:80 X:33 Y:C7 P:7 SP:FB
9519 F8BF            BNE D0      immediate   A:80 X:33 Y:C7 P:7 SP:F9
9522 F8C1            BMI 30      immediate   A:80 X:33 Y:C7 P:7 SP:F9
9525 F8C3            BCC 90      immediate   A:80 X:33 Y:C7 P:7 SP:F9
9528 F8C5            RTS 60        implied   A:80 X:33 Y:C7 P:7 SP:F9
9535 D6DE            INY C8        implied   A:80 X:33 Y:C7 P:7 SP:FB
9538 D6DF            PHA 48        implied   A:80 X:33 Y:C8 P:85 SP:FB
9542 D6E0            LDA A9      immediate   A:80 X:33 Y:C8 P:85 SP:FA
9545 D6E2            STA 8D       absolute   A:81 X:33 Y:C8 P:85 SP:FA
9550 D6E5            PLA 68        implied   A:81 X:33 Y:C8 P:85 SP:FA
9555 D6E6            CMP CD       absolute   A:80 X:33 Y:C8 P:85 SP:FB
9560 D6E9            JSR 20       absolute   A:80 X:33 Y:C8 P:84 SP:FB
9565 F8C9            BCS B0      immediate   A:80 X:33 Y:C8 P:84 SP:F9
9568 F8CB            BEQ F0      immediate   A:80 X:33 Y:C8 P:84 SP:F9
9571 F8CD            BPL 10      immediate   A:80 X:33 Y:C8 P:84 SP:F9
9574 F8CF            RTS 60        implied   A:80 X:33 Y:C8 P:84 SP:F9
9581 D6EC            INY C8        implied   A:80 X:33 Y:C8 P:84 SP:FB
9584 D6ED            PHA 48        implied   A:80 X:33 Y:C9 P:84 SP:FB
9588 D6EE            LDA A9      immediate   A:80 X:33 Y:C9 P:84 SP:FA
9591 D6F0            STA 8D       absolute   A:7F X:33 Y:C9 P:4 SP:FA
9596 D6F3            PLA 68        implied   A:7F X:33 Y:C9 P:4 SP:FA
9601 D6F4            CMP CD       absolute   A:80 X:33 Y:C9 P:84 SP:FB
9606 D6F7            JSR 20       absolute   A:80 X:33 Y:C9 P:5 SP:FB
9611 F8D3            BCC 90      immediate   A:80 X:33 Y:C9 P:5 SP:F9
9614 F8D5            BEQ F0      immediate   A:80 X:33 Y:C9 P:5 SP:F9
9617 F8D7            BMI 30      immediate   A:80 X:33 Y:C9 P:5 SP:F9
9620 F8D9            RTS 60        implied   A:80 X:33 Y:C9 P:5 SP:F9
9627 D6FA            INY C8        implied   A:80 X:33 Y:C9 P:5 SP:FB
9630 D6FB            LDA A9      immediate   A:80 X:33 Y:CA P:85 SP:FB
9633 D6FD            STA 8D       absolute   A:40 X:33 Y:CA P:5 SP:FB
9638 D700            JSR 20       absolute   A:40 X:33 Y:CA P:5 SP:FB
9643 F931            BIT 24       zeropage   A:40 X:33 Y:CA P:5 SP:F9
9647 F933            LDA A9      immediate   A:40 X:33 Y:CA P:C5 SP:F9
9650 F935            SEC 38        implied   A:40 X:33 Y:CA P:45 SP:F9
9653 F936            RTS 60        implied   A:40 X:33 Y:CA P:45 SP:F9
9660 D703            SBC ED       absolute   A:40 X:33 Y:CA P:45 SP:FB
9665 D706            JSR 20       absolute   A:0 X:33 Y:CA P:7 SP:FB
9670 F937            BMI 30      immediate   A:0 X:33 Y:CA P:7 SP:F9
9673 F939            BCC 90      immediate   A:0 X:33 Y:CA P:7 SP:F9
9676 F93B            BNE D0      immediate   A:0 X:33 Y:CA P:7 SP:F9
9679 F93D            BVS 70      immediate   A:0 X:33 Y:CA P:7 SP:F9
9682 F93F            CMP C9      immediate   A:0 X:33 Y:CA P:7 SP:F9
9685 F941            BNE D0      immediate   A:0 X:33 Y:CA P:7 SP:F9
9688 F943            RTS 60        implied   A:0 X:33 Y:CA P:7 SP:F9
9695 D709            INY C8        implied   A:0 X:33 Y:CA P:7 SP:FB
9698 D70A            LDA A9      immediate   A:0 X:33 Y:CB P:85 SP:FB
9701 D70C            STA 8D       absolute   A:3F X:33 Y:CB P:5 SP:FB
9706 D70F            JSR 20       absolute   A:3F X:33 Y:CB P:5 SP:FB
9711 F947            CLV B8        implied   A:3F X:33 Y:CB P:5 SP:F9
9714 F948            SEC 38        implied   A:3F X:33 Y:CB P:5 SP:F9
9717 F949            LDA A9      immediate   A:3F X:33 Y:CB P:5 SP:F9
9720 F94B            RTS 60        implied   A:40 X:33 Y:CB P:5 SP:F9
9727 D712            SBC ED       absolute   A:40 X:33 Y:CB P:5 SP:FB
9732 D715            JSR 20       absolute   A:1 X:33 Y:CB P:5 SP:FB
9737 F94C            BEQ F0      immediate   A:1 X:33 Y:CB P:5 SP:F9
9740 F94E            BMI 30      immediate   A:1 X:33 Y:CB P:5 SP:F9
9743 F950            BCC 90      immediate   A:1 X:33 Y:CB P:5 SP:F9
9746 F952            BVS 70      immediate   A:1 X:33 Y:CB P:5 SP:F9
9749 F954            CMP C9      immediate   A:1 X:33 Y:CB P:5 SP:F9
9752 F956            BNE D0      immediate   A:1 X:33 Y:CB P:7 SP:F9
9755 F958            RTS 60        implied   A:1 X:33 Y:CB P:7 SP:F9
9762 D718            INY C8        implied   A:1 X:33 Y:CB P:7 SP:FB
9765 D719            LDA A9      immediate   A:1 X:33 Y:CC P:85 SP:FB
9768 D71B            STA 8D       absolute   A:41 X:33 Y:CC P:5 SP:FB
9773 D71E            JSR 20       absolute   A:41 X:33 Y:CC P:5 SP:FB
9778 F95C            LDA A9      immediate   A:41 X:33 Y:CC P:5 SP:F9
9781 F95E            SEC 38        implied   A:40 X:33 Y:CC P:5 SP:F9
9784 F95F            BIT 24       zeropage   A:40 X:33 Y:CC P:5 SP:F9
9788 F961            RTS 60        implied   A:40 X:33 Y:CC P:C5 SP:F9
9795 D721            SBC ED       absolute   A:40 X:33 Y:CC P:C5 SP:FB
9800 D724            JSR 20       absolute   A:FF X:33 Y:CC P:84 SP:FB
9805 F962            BCS B0      immediate   A:FF X:33 Y:CC P:84 SP:F9
9808 F964            BEQ F0      immediate   A:FF X:33 Y:CC P:84 SP:F9
9811 F966            BPL 10      immediate   A:FF X:33 Y:CC P:84 SP:F9
9814 F968            BVS 70      immediate   A:FF X:33 Y:CC P:84 SP:F9
9817 F96A            CMP C9      immediate   A:FF X:33 Y:CC P:84 SP:F9
9820 F96C            BNE D0      immediate   A:FF X:33 Y:CC P:7 SP:F9
9823 F96E            RTS 60        implied   A:FF X:33 Y:CC P:7 SP:F9
9830 D727            INY C8        implied   A:FF X:33 Y:CC P:7 SP:FB
9833 D728            LDA A9      immediate   A:FF X:33 Y:CD P:85 SP:FB
9836 D72A            STA 8D       absolute   A:0 X:33 Y:CD P:7 SP:FB
9841 D72D            JSR 20       absolute   A:0 X:33 Y:CD P:7 SP:FB
9846 F972            CLC 18        implied   A:0 X:33 Y:CD P:7 SP:F9
9849 F973            LDA A9      immediate   A:0 X:33 Y:CD P:6 SP:F9
9852 F975            RTS 60        implied   A:80 X:33 Y:CD P:84 SP:F9
9859 D730            SBC ED       absolute   A:80 X:33 Y:CD P:84 SP:FB
9864 D733            JSR 20       absolute   A:7F X:33 Y:CD P:45 SP:FB
9869 F976            BCC 90      immediate   A:7F X:33 Y:CD P:45 SP:F9
9872 F978            CMP C9      immediate   A:7F X:33 Y:CD P:45 SP:F9
9875 F97A            BNE D0      immediate   A:7F X:33 Y:CD P:47 SP:F9
9878 F97C            RTS 60        implied   A:7F X:33 Y:CD P:47 SP:F9
9885 D736            INY C8        implied   A:7F X:33 Y:CD P:47 SP:FB
9888 D737            LDA A9      immediate   A:7F X:33 Y:CE P:C5 SP:FB
9891 D739            STA 8D       absolute   A:7F X:33 Y:CE P:45 SP:FB
9896 D73C            JSR 20       absolute   A:7F X:33 Y:CE P:45 SP:FB
9901 F980            SEC 38        implied   A:7F X:33 Y:CE P:45 SP:F9
9904 F981            LDA A9      immediate   A:7F X:33 Y:CE P:45 SP:F9
9907 F983            RTS 60        implied   A:81 X:33 Y:CE P:C5 SP:F9
9914 D73F            SBC ED       absolute   A:81 X:33 Y:CE P:C5 SP:FB
9919 D742            JSR 20       absolute   A:2 X:33 Y:CE P:45 SP:FB
9924 F984            BVC 50      immediate   A:2 X:33 Y:CE P:45 SP:F9
9927 F986            BCC 90      immediate   A:2 X:33 Y:CE P:45 SP:F9
9930 F988            CMP C9      immediate   A:2 X:33 Y:CE P:45 SP:F9
9933 F98A            BNE D0      immediate   A:2 X:33 Y:CE P:47 SP:F9
9936 F98C            RTS 60        implied   A:2 X:33 Y:CE P:47 SP:F9
9943 D745            INY C8        implied   A:2 X:33 Y:CE P:47 SP:FB
9946 D746            LDA A9      immediate   A:2 X:33 Y:CF P:C5 SP:FB
9949 D748            STA 8D       absolute   A:40 X:33 Y:CF P:45 SP:FB
9954 D74B            JSR 20       absolute   A:40 X:33 Y:CF P:45 SP:FB
9959 F889            BIT 24       zeropage   A:40 X:33 Y:CF P:45 SP:F9
9963 F88B            LDA A9      immediate   A:40 X:33 Y:CF P:C5 SP:F9
9966 F88D            RTS 60        implied   A:40 X:33 Y:CF P:45 SP:F9
9973 D74E            TAX AA        implied   A:40 X:33 Y:CF P:45 SP:FB
9976 D74F            CPX EC       absolute   A:40 X:40 Y:CF P:45 SP:FB
9981 D752            JSR 20       absolute   A:40 X:40 Y:CF P:47 SP:FB
9986 F88E            BMI 30      immediate   A:40 X:40 Y:CF P:47 SP:F9
9989 F890            BCC 90      immediate   A:40 X:40 Y:CF P:47 SP:F9
9992 F892            BNE D0      immediate   A:40 X:40 Y:CF P:47 SP:F9
9995 F894            BVC 50      immediate   A:40 X:40 Y:CF P:47 SP:F9
9998 F896            RTS 60        implied   A:40 X:40 Y:CF P:47 SP:F9
10005 D755            INY C8        implied   A:40 X:40 Y:CF P:47 SP:FB
10008 D756            LDA A9      immediate   A:40 X:40 Y:D0 P:C5 SP:FB
10011 D758            STA 8D       absolute   A:3F X:40 Y:D0 P:45 SP:FB
10016 D75B            JSR 20       absolute   A:3F X:40 Y:D0 P:45 SP:FB
10021 F89A            CLV B8        implied   A:3F X:40 Y:D0 P:45 SP:F9
10024 F89B            RTS 60        implied   A:3F X:40 Y:D0 P:5 SP:F9
10031 D75E            CPX EC       absolute   A:3F X:40 Y:D0 P:5 SP:FB
10036 D761            JSR 20       absolute   A:3F X:40 Y:D0 P:5 SP:FB
10041 F89C            BEQ F0      immediate   A:3F X:40 Y:D0 P:5 SP:F9
10044 F89E            BMI 30      immediate   A:3F X:40 Y:D0 P:5 SP:F9
10047 F8A0            BCC 90      immediate   A:3F X:40 Y:D0 P:5 SP:F9
10050 F8A2            BVS 70      immediate   A:3F X:40 Y:D0 P:5 SP:F9
10053 F8A4            RTS 60        implied   A:3F X:40 Y:D0 P:5 SP:F9
10060 D764            INY C8        implied   A:3F X:40 Y:D0 P:5 SP:FB
10063 D765            LDA A9      immediate   A:3F X:40 Y:D1 P:85 SP:FB
10066 D767            STA 8D       absolute   A:41 X:40 Y:D1 P:5 SP:FB
10071 D76A            CPX EC       absolute   A:41 X:40 Y:D1 P:5 SP:FB
10076 D76D            JSR 20       absolute   A:41 X:40 Y:D1 P:84 SP:FB
10081 F8A8            BEQ F0      immediate   A:41 X:40 Y:D1 P:84 SP:F9
10084 F8AA            BPL 10      immediate   A:41 X:40 Y:D1 P:84 SP:F9
10087 F8AC            BPL 10      immediate   A:41 X:40 Y:D1 P:84 SP:F9
10090 F8AE            RTS 60        implied   A:41 X:40 Y:D1 P:84 SP:F9
10097 D770            INY C8        implied   A:41 X:40 Y:D1 P:84 SP:FB
10100 D771            LDA A9      immediate   A:41 X:40 Y:D2 P:84 SP:FB
10103 D773            STA 8D       absolute   A:0 X:40 Y:D2 P:6 SP:FB
10108 D776            JSR 20       absolute   A:0 X:40 Y:D2 P:6 SP:FB
10113 F8B2            LDA A9      immediate   A:0 X:40 Y:D2 P:6 SP:F9
10116 F8B4            RTS 60        implied   A:80 X:40 Y:D2 P:84 SP:F9
10123 D779            TAX AA        implied   A:80 X:40 Y:D2 P:84 SP:FB
10126 D77A            CPX EC       absolute   A:80 X:80 Y:D2 P:84 SP:FB
10131 D77D            JSR 20       absolute   A:80 X:80 Y:D2 P:85 SP:FB
10136 F8B5            BEQ F0      immediate   A:80 X:80 Y:D2 P:85 SP:F9
10139 F8B7            BPL 10      immediate   A:80 X:80 Y:D2 P:85 SP:F9
10142 F8B9            BCC 90      immediate   A:80 X:80 Y:D2 P:85 SP:F9
10145 F8BB            RTS 60        implied   A:80 X:80 Y:D2 P:85 SP:F9
10152 D780            INY C8        implied   A:80 X:80 Y:D2 P:85 SP:FB
10155 D781            LDA A9      immediate   A:80 X:80 Y:D3 P:85 SP:FB
10158 D783            STA 8D       absolute   A:80 X:80 Y:D3 P:85 SP:FB
10163 D786            CPX EC       absolute   A:80 X:80 Y:D3 P:85 SP:FB
10168 D789            JSR 20       absolute   A:80 X:80 Y:D3 P:7 SP:FB
10173 F8BF            BNE D0      immediate   A:80 X:80 Y:D3 P:7 SP:F9
10176 F8C1            BMI 30      immediate   A:80 X:80 Y:D3 P:7 SP:F9
10179 F8C3            BCC 90      immediate   A:80 X:80 Y:D3 P:7 SP:F9
10182 F8C5            RTS 60        implied   A:80 X:80 Y:D3 P:7 SP:F9
10189 D78C            INY C8        implied   A:80 X:80 Y:D3 P:7 SP:FB
10192 D78D            LDA A9      immediate   A:80 X:80 Y:D4 P:85 SP:FB
10195 D78F            STA 8D       absolute   A:81 X:80 Y:D4 P:85 SP:FB
10200 D792            CPX EC       absolute   A:81 X:80 Y:D4 P:85 SP:FB
10205 D795            JSR 20       absolute   A:81 X:80 Y:D4 P:84 SP:FB
10210 F8C9            BCS B0      immediate   A:81 X:80 Y:D4 P:84 SP:F9
10213 F8CB            BEQ F0      immediate   A:81 X:80 Y:D4 P:84 SP:F9
10216 F8CD            BPL 10      immediate   A:81 X:80 Y:D4 P:84 SP:F9
10219 F8CF            RTS 60        implied   A:81 X:80 Y:D4 P:84 SP:F9
10226 D798            INY C8        implied   A:81 X:80 Y:D4 P:84 SP:FB
10229 D799            LDA A9      immediate   A:81 X:80 Y:D5 P:84 SP:FB
10232 D79B            STA 8D       absolute   A:7F X:80 Y:D5 P:4 SP:FB
10237 D79E            CPX EC       absolute   A:7F X:80 Y:D5 P:4 SP:FB
10242 D7A1            JSR 20       absolute   A:7F X:80 Y:D5 P:5 SP:FB
10247 F8D3            BCC 90      immediate   A:7F X:80 Y:D5 P:5 SP:F9
10250 F8D5            BEQ F0      immediate   A:7F X:80 Y:D5 P:5 SP:F9
10253 F8D7            BMI 30      immediate   A:7F X:80 Y:D5 P:5 SP:F9
10256 F8D9            RTS 60        implied   A:7F X:80 Y:D5 P:5 SP:F9
10263 D7A4            INY C8        implied   A:7F X:80 Y:D5 P:5 SP:FB
10266 D7A5            TYA 98        implied   A:7F X:80 Y:D6 P:85 SP:FB
10269 D7A6            TAX AA        implied   A:D6 X:80 Y:D6 P:85 SP:FB
10272 D7A7            LDA A9      immediate   A:D6 X:D6 Y:D6 P:85 SP:FB
10275 D7A9            STA 8D       absolute   A:40 X:D6 Y:D6 P:5 SP:FB
10280 D7AC            JSR 20       absolute   A:40 X:D6 Y:D6 P:5 SP:FB
10285 F8DD            BIT 24       zeropage   A:40 X:D6 Y:D6 P:5 SP:F9
10289 F8DF            LDY A0      immediate   A:40 X:D6 Y:D6 P:C5 SP:F9
10292 F8E1            RTS 60        implied   A:40 X:D6 Y:40 P:45 SP:F9
10299 D7AF            CPY CC       absolute   A:40 X:D6 Y:40 P:45 SP:FB
10304 D7B2            JSR 20       absolute   A:40 X:D6 Y:40 P:47 SP:FB
10309 F8E2            BMI 30      immediate   A:40 X:D6 Y:40 P:47 SP:F9
10312 F8E4            BCC 90      immediate   A:40 X:D6 Y:40 P:47 SP:F9
10315 F8E6            BNE D0      immediate   A:40 X:D6 Y:40 P:47 SP:F9
10318 F8E8            BVC 50      immediate   A:40 X:D6 Y:40 P:47 SP:F9
10321 F8EA            RTS 60        implied   A:40 X:D6 Y:40 P:47 SP:F9
10328 D7B5            INX E8        implied   A:40 X:D6 Y:40 P:47 SP:FB
10331 D7B6            LDA A9      immediate   A:40 X:D7 Y:40 P:C5 SP:FB
10334 D7B8            STA 8D       absolute   A:3F X:D7 Y:40 P:45 SP:FB
10339 D7BB            JSR 20       absolute   A:3F X:D7 Y:40 P:45 SP:FB
10344 F8EE            CLV B8        implied   A:3F X:D7 Y:40 P:45 SP:F9
10347 F8EF            RTS 60        implied   A:3F X:D7 Y:40 P:5 SP:F9
10354 D7BE            CPY CC       absolute   A:3F X:D7 Y:40 P:5 SP:FB
10359 D7C1            JSR 20       absolute   A:3F X:D7 Y:40 P:5 SP:FB
10364 F8F0            BEQ F0      immediate   A:3F X:D7 Y:40 P:5 SP:F9
10367 F8F2            BMI 30      immediate   A:3F X:D7 Y:40 P:5 SP:F9
10370 F8F4            BCC 90      immediate   A:3F X:D7 Y:40 P:5 SP:F9
10373 F8F6            BVS 70      immediate   A:3F X:D7 Y:40 P:5 SP:F9
10376 F8F8            RTS 60        implied   A:3F X:D7 Y:40 P:5 SP:F9
10383 D7C4            INX E8        implied   A:3F X:D7 Y:40 P:5 SP:FB
10386 D7C5            LDA A9      immediate   A:3F X:D8 Y:40 P:85 SP:FB
10389 D7C7            STA 8D       absolute   A:41 X:D8 Y:40 P:5 SP:FB
10394 D7CA            CPY CC       absolute   A:41 X:D8 Y:40 P:5 SP:FB
10399 D7CD            JSR 20       absolute   A:41 X:D8 Y:40 P:84 SP:FB
10404 F8FC            BEQ F0      immediate   A:41 X:D8 Y:40 P:84 SP:F9
10407 F8FE            BPL 10      immediate   A:41 X:D8 Y:40 P:84 SP:F9
10410 F900            BPL 10      immediate   A:41 X:D8 Y:40 P:84 SP:F9
10413 F902            RTS 60        implied   A:41 X:D8 Y:40 P:84 SP:F9
10420 D7D0            INX E8        implied   A:41 X:D8 Y:40 P:84 SP:FB
10423 D7D1            LDA A9      immediate   A:41 X:D9 Y:40 P:84 SP:FB
10426 D7D3            STA 8D       absolute   A:0 X:D9 Y:40 P:6 SP:FB
10431 D7D6            JSR 20       absolute   A:0 X:D9 Y:40 P:6 SP:FB
10436 F906            LDY A0      immediate   A:0 X:D9 Y:40 P:6 SP:F9
10439 F908            RTS 60        implied   A:0 X:D9 Y:80 P:84 SP:F9
10446 D7D9            CPY CC       absolute   A:0 X:D9 Y:80 P:84 SP:FB
10451 D7DC            JSR 20       absolute   A:0 X:D9 Y:80 P:85 SP:FB
10456 F909            BEQ F0      immediate   A:0 X:D9 Y:80 P:85 SP:F9
10459 F90B            BPL 10      immediate   A:0 X:D9 Y:80 P:85 SP:F9
10462 F90D            BCC 90      immediate   A:0 X:D9 Y:80 P:85 SP:F9
10465 F90F            RTS 60        implied   A:0 X:D9 Y:80 P:85 SP:F9
10472 D7DF            INX E8        implied   A:0 X:D9 Y:80 P:85 SP:FB
10475 D7E0            LDA A9      immediate   A:0 X:DA Y:80 P:85 SP:FB
10478 D7E2            STA 8D       absolute   A:80 X:DA Y:80 P:85 SP:FB
10483 D7E5            CPY CC       absolute   A:80 X:DA Y:80 P:85 SP:FB
10488 D7E8            JSR 20       absolute   A:80 X:DA Y:80 P:7 SP:FB
10493 F913            BNE D0      immediate   A:80 X:DA Y:80 P:7 SP:F9
10496 F915            BMI 30      immediate   A:80 X:DA Y:80 P:7 SP:F9
10499 F917            BCC 90      immediate   A:80 X:DA Y:80 P:7 SP:F9
10502 F919            RTS 60        implied   A:80 X:DA Y:80 P:7 SP:F9
10509 D7EB            INX E8        implied   A:80 X:DA Y:80 P:7 SP:FB
10512 D7EC            LDA A9      immediate   A:80 X:DB Y:80 P:85 SP:FB
10515 D7EE            STA 8D       absolute   A:81 X:DB Y:80 P:85 SP:FB
10520 D7F1            CPY CC       absolute   A:81 X:DB Y:80 P:85 SP:FB
10525 D7F4            JSR 20       absolute   A:81 X:DB Y:80 P:84 SP:FB
10530 F91D            BCS B0      immediate   A:81 X:DB Y:80 P:84 SP:F9
10533 F91F            BEQ F0      immediate   A:81 X:DB Y:80 P:84 SP:F9
10536 F921            BPL 10      immediate   A:81 X:DB Y:80 P:84 SP:F9
10539 F923            RTS 60        implied   A:81 X:DB Y:80 P:84 SP:F9
10546 D7F7            INX E8        implied   A:81 X:DB Y:80 P:84 SP:FB
10549 D7F8            LDA A9      immediate   A:81 X:DC Y:80 P:84 SP:FB
10552 D7FA            STA 8D       absolute   A:7F X:DC Y:80 P:4 SP:FB
10557 D7FD            CPY CC       absolute   A:7F X:DC Y:80 P:4 SP:FB
10562 D800            JSR 20       absolute   A:7F X:DC Y:80 P:5 SP:FB
10567 F927            BCC 90      immediate   A:7F X:DC Y:80 P:5 SP:F9
10570 F929            BEQ F0      immediate   A:7F X:DC Y:80 P:5 SP:F9
10573 F92B            BMI 30      immediate   A:7F X:DC Y:80 P:5 SP:F9
10576 F92D            RTS 60        implied   A:7F X:DC Y:80 P:5 SP:F9
10583 D803            INX E8        implied   A:7F X:DC Y:80 P:5 SP:FB
10586 D804            TXA 8A        implied   A:7F X:DD Y:80 P:85 SP:FB
10589 D805            TAY A8        implied   A:DD X:DD Y:80 P:85 SP:FB
10592 D806            JSR 20       absolute   A:DD X:DD Y:DD P:85 SP:FB
10597 F990            LDX A2      immediate   A:DD X:DD Y:DD P:85 SP:F9
10600 F992            LDA A9      immediate   A:DD X:55 Y:DD P:5 SP:F9
10603 F994            STA 85       zeropage   A:FF X:55 Y:DD P:85 SP:F9
10607 F996            NOP EA        implied   A:FF X:55 Y:DD P:85 SP:F9
10610 F997            BIT 24       zeropage   A:FF X:55 Y:DD P:85 SP:F9
10614 F999            SEC 38        implied   A:FF X:55 Y:DD P:C5 SP:F9
10617 F99A            LDA A9      immediate   A:FF X:55 Y:DD P:C5 SP:F9
10620 F99C            RTS 60        implied   A:1 X:55 Y:DD P:45 SP:F9
10627 D809            STA 8D       absolute   A:1 X:55 Y:DD P:45 SP:FB
10632 D80C            LSR 4E       absolute   A:1 X:55 Y:DD P:45 SP:FB
10639 D80F            LDA AD       absolute   A:1 X:55 Y:DD P:47 SP:FB
10644 D812            JSR 20       absolute   A:0 X:55 Y:DD P:47 SP:FB
10649 F99D            BCC 90      immediate   A:0 X:55 Y:DD P:47 SP:F9
10652 F99F            BNE D0      immediate   A:0 X:55 Y:DD P:47 SP:F9
10655 F9A1            BMI 30      immediate   A:0 X:55 Y:DD P:47 SP:F9
10658 F9A3            BVC 50      immediate   A:0 X:55 Y:DD P:47 SP:F9
10661 F9A5            CMP C9      immediate   A:0 X:55 Y:DD P:47 SP:F9
10664 F9A7            BNE D0      immediate   A:0 X:55 Y:DD P:47 SP:F9
10667 F9A9            CLV B8        implied   A:0 X:55 Y:DD P:47 SP:F9
10670 F9AA            LDA A9      immediate   A:0 X:55 Y:DD P:7 SP:F9
10673 F9AC            RTS 60        implied   A:AA X:55 Y:DD P:85 SP:F9
10680 D815            INY C8        implied   A:AA X:55 Y:DD P:85 SP:FB
10683 D816            STA 8D       absolute   A:AA X:55 Y:DE P:85 SP:FB
10688 D819            LSR 4E       absolute   A:AA X:55 Y:DE P:85 SP:FB
10695 D81C            LDA AD       absolute   A:AA X:55 Y:DE P:4 SP:FB
10700 D81F            JSR 20       absolute   A:55 X:55 Y:DE P:4 SP:FB
10705 F9AD            BCS B0      immediate   A:55 X:55 Y:DE P:4 SP:F9
10708 F9AF            BEQ F0      immediate   A:55 X:55 Y:DE P:4 SP:F9
10711 F9B1            BMI 30      immediate   A:55 X:55 Y:DE P:4 SP:F9
10714 F9B3            BVS 70      immediate   A:55 X:55 Y:DE P:4 SP:F9
10717 F9B5            CMP C9      immediate   A:55 X:55 Y:DE P:4 SP:F9
10720 F9B7            BNE D0      immediate   A:55 X:55 Y:DE P:7 SP:F9
10723 F9B9            RTS 60        implied   A:55 X:55 Y:DE P:7 SP:F9
10730 D822            INY C8        implied   A:55 X:55 Y:DE P:7 SP:FB
10733 D823            JSR 20       absolute   A:55 X:55 Y:DF P:85 SP:FB
10738 F9BD            BIT 24       zeropage   A:55 X:55 Y:DF P:85 SP:F9
10742 F9BF            SEC 38        implied   A:55 X:55 Y:DF P:C5 SP:F9
10745 F9C0            LDA A9      immediate   A:55 X:55 Y:DF P:C5 SP:F9
10748 F9C2            RTS 60        implied   A:80 X:55 Y:DF P:C5 SP:F9
10755 D826            STA 8D       absolute   A:80 X:55 Y:DF P:C5 SP:FB
10760 D829            ASL E       absolute   A:80 X:55 Y:DF P:C5 SP:FB
10767 D82C            LDA AD       absolute   A:80 X:55 Y:DF P:47 SP:FB
10772 D82F            JSR 20       absolute   A:0 X:55 Y:DF P:47 SP:FB
10777 F9C3            BCC 90      immediate   A:0 X:55 Y:DF P:47 SP:F9
10780 F9C5            BNE D0      immediate   A:0 X:55 Y:DF P:47 SP:F9
10783 F9C7            BMI 30      immediate   A:0 X:55 Y:DF P:47 SP:F9
10786 F9C9            BVC 50      immediate   A:0 X:55 Y:DF P:47 SP:F9
10789 F9CB            CMP C9      immediate   A:0 X:55 Y:DF P:47 SP:F9
10792 F9CD            BNE D0      immediate   A:0 X:55 Y:DF P:47 SP:F9
10795 F9CF            CLV B8        implied   A:0 X:55 Y:DF P:47 SP:F9
10798 F9D0            LDA A9      immediate   A:0 X:55 Y:DF P:7 SP:F9
10801 F9D2            SEC 38        implied   A:55 X:55 Y:DF P:5 SP:F9
10804 F9D3            RTS 60        implied   A:55 X:55 Y:DF P:5 SP:F9
10811 D832            INY C8        implied   A:55 X:55 Y:DF P:5 SP:FB
10814 D833            STA 8D       absolute   A:55 X:55 Y:E0 P:85 SP:FB
10819 D836            ASL E       absolute   A:55 X:55 Y:E0 P:85 SP:FB
10826 D839            LDA AD       absolute   A:55 X:55 Y:E0 P:84 SP:FB
10831 D83C            JSR 20       absolute   A:AA X:55 Y:E0 P:84 SP:FB
10836 F9D4            BCS B0      immediate   A:AA X:55 Y:E0 P:84 SP:F9
10839 F9D6            BEQ F0      immediate   A:AA X:55 Y:E0 P:84 SP:F9
10842 F9D8            BPL 10      immediate   A:AA X:55 Y:E0 P:84 SP:F9
10845 F9DA            BVS 70      immediate   A:AA X:55 Y:E0 P:84 SP:F9
10848 F9DC            CMP C9      immediate   A:AA X:55 Y:E0 P:84 SP:F9
10851 F9DE            BNE D0      immediate   A:AA X:55 Y:E0 P:7 SP:F9
10854 F9E0            RTS 60        implied   A:AA X:55 Y:E0 P:7 SP:F9
10861 D83F            INY C8        implied   A:AA X:55 Y:E0 P:7 SP:FB
10864 D840            JSR 20       absolute   A:AA X:55 Y:E1 P:85 SP:FB
10869 F9E4            BIT 24       zeropage   A:AA X:55 Y:E1 P:85 SP:F9
10873 F9E6            SEC 38        implied   A:AA X:55 Y:E1 P:C5 SP:F9
10876 F9E7            LDA A9      immediate   A:AA X:55 Y:E1 P:C5 SP:F9
10879 F9E9            RTS 60        implied   A:1 X:55 Y:E1 P:45 SP:F9
10886 D843            STA 8D       absolute   A:1 X:55 Y:E1 P:45 SP:FB
10891 D846            ROR 6E       absolute   A:1 X:55 Y:E1 P:45 SP:FB
10898 D849            LDA AD       absolute   A:1 X:55 Y:E1 P:47 SP:FB
10903 D84C            JSR 20       absolute   A:80 X:55 Y:E1 P:C5 SP:FB
10908 F9EA            BCC 90      immediate   A:80 X:55 Y:E1 P:C5 SP:F9
10911 F9EC            BEQ F0      immediate   A:80 X:55 Y:E1 P:C5 SP:F9
10914 F9EE            BPL 10      immediate   A:80 X:55 Y:E1 P:C5 SP:F9
10917 F9F0            BVC 50      immediate   A:80 X:55 Y:E1 P:C5 SP:F9
10920 F9F2            CMP C9      immediate   A:80 X:55 Y:E1 P:C5 SP:F9
10923 F9F4            BNE D0      immediate   A:80 X:55 Y:E1 P:47 SP:F9
10926 F9F6            CLV B8        implied   A:80 X:55 Y:E1 P:47 SP:F9
10929 F9F7            CLC 18        implied   A:80 X:55 Y:E1 P:7 SP:F9
10932 F9F8            LDA A9      immediate   A:80 X:55 Y:E1 P:6 SP:F9
10935 F9FA            RTS 60        implied   A:55 X:55 Y:E1 P:4 SP:F9
10942 D84F            INY C8        implied   A:55 X:55 Y:E1 P:4 SP:FB
10945 D850            STA 8D       absolute   A:55 X:55 Y:E2 P:84 SP:FB
10950 D853            ROR 6E       absolute   A:55 X:55 Y:E2 P:84 SP:FB
10957 D856            LDA AD       absolute   A:55 X:55 Y:E2 P:5 SP:FB
10962 D859            JSR 20       absolute   A:2A X:55 Y:E2 P:5 SP:FB
10967 F9FB            BCC 90      immediate   A:2A X:55 Y:E2 P:5 SP:F9
10970 F9FD            BEQ F0      immediate   A:2A X:55 Y:E2 P:5 SP:F9
10973 F9FF            BMI 30      immediate   A:2A X:55 Y:E2 P:5 SP:F9
10976 FA01            BVS 70      immediate   A:2A X:55 Y:E2 P:5 SP:F9
10979 FA03            CMP C9      immediate   A:2A X:55 Y:E2 P:5 SP:F9
10982 FA05            BNE D0      immediate   A:2A X:55 Y:E2 P:7 SP:F9
10985 FA07            RTS 60        implied   A:2A X:55 Y:E2 P:7 SP:F9
10992 D85C            INY C8        implied   A:2A X:55 Y:E2 P:7 SP:FB
10995 D85D            JSR 20       absolute   A:2A X:55 Y:E3 P:85 SP:FB
11000 FA0A            BIT 24       zeropage   A:2A X:55 Y:E3 P:85 SP:F9
11004 FA0C            SEC 38        implied   A:2A X:55 Y:E3 P:C5 SP:F9
11007 FA0D            LDA A9      immediate   A:2A X:55 Y:E3 P:C5 SP:F9
11010 FA0F            RTS 60        implied   A:80 X:55 Y:E3 P:C5 SP:F9
11017 D860            STA 8D       absolute   A:80 X:55 Y:E3 P:C5 SP:FB
11022 D863            ROL 2E       absolute   A:80 X:55 Y:E3 P:C5 SP:FB
11029 D866            LDA AD       absolute   A:80 X:55 Y:E3 P:47 SP:FB
11034 D869            JSR 20       absolute   A:1 X:55 Y:E3 P:45 SP:FB
11039 FA10            BCC 90      immediate   A:1 X:55 Y:E3 P:45 SP:F9
11042 FA12            BEQ F0      immediate   A:1 X:55 Y:E3 P:45 SP:F9
11045 FA14            BMI 30      immediate   A:1 X:55 Y:E3 P:45 SP:F9
11048 FA16            BVC 50      immediate   A:1 X:55 Y:E3 P:45 SP:F9
11051 FA18            CMP C9      immediate   A:1 X:55 Y:E3 P:45 SP:F9
11054 FA1A            BNE D0      immediate   A:1 X:55 Y:E3 P:47 SP:F9
11057 FA1C            CLV B8        implied   A:1 X:55 Y:E3 P:47 SP:F9
11060 FA1D            CLC 18        implied   A:1 X:55 Y:E3 P:7 SP:F9
11063 FA1E            LDA A9      immediate   A:1 X:55 Y:E3 P:6 SP:F9
11066 FA20            RTS 60        implied   A:55 X:55 Y:E3 P:4 SP:F9
11073 D86C            INY C8        implied   A:55 X:55 Y:E3 P:4 SP:FB
11076 D86D            STA 8D       absolute   A:55 X:55 Y:E4 P:84 SP:FB
11081 D870            ROL 2E       absolute   A:55 X:55 Y:E4 P:84 SP:FB
11088 D873            LDA AD       absolute   A:55 X:55 Y:E4 P:84 SP:FB
11093 D876            JSR 20       absolute   A:AA X:55 Y:E4 P:84 SP:FB
11098 FA21            BCS B0      immediate   A:AA X:55 Y:E4 P:84 SP:F9
11101 FA23            BEQ F0      immediate   A:AA X:55 Y:E4 P:84 SP:F9
11104 FA25            BPL 10      immediate   A:AA X:55 Y:E4 P:84 SP:F9
11107 FA27            BVS 70      immediate   A:AA X:55 Y:E4 P:84 SP:F9
11110 FA29            CMP C9      immediate   A:AA X:55 Y:E4 P:84 SP:F9
11113 FA2B            BNE D0      immediate   A:AA X:55 Y:E4 P:7 SP:F9
11116 FA2D            RTS 60        implied   A:AA X:55 Y:E4 P:7 SP:F9
11123 D879            LDA A9      immediate   A:AA X:55 Y:E4 P:7 SP:FB
11126 D87B            STA 8D       absolute   A:FF X:55 Y:E4 P:85 SP:FB
11131 D87E            STA 85       zeropage   A:FF X:55 Y:E4 P:85 SP:FB
11135 D880            BIT 24       zeropage   A:FF X:55 Y:E4 P:85 SP:FB
11139 D882            SEC 38        implied   A:FF X:55 Y:E4 P:C5 SP:FB
11142 D883            INC EE       absolute   A:FF X:55 Y:E4 P:C5 SP:FB
11149 D886            BNE D0      immediate   A:FF X:55 Y:E4 P:47 SP:FB
11152 D888            BMI 30      immediate   A:FF X:55 Y:E4 P:47 SP:FB
11155 D88A            BVC 50      immediate   A:FF X:55 Y:E4 P:47 SP:FB
11158 D88C            BCC 90      immediate   A:FF X:55 Y:E4 P:47 SP:FB
11161 D88E            LDA AD       absolute   A:FF X:55 Y:E4 P:47 SP:FB
11166 D891            CMP C9      immediate   A:0 X:55 Y:E4 P:47 SP:FB
11169 D893            BEQ F0      immediate   A:0 X:55 Y:E4 P:47 SP:FB
11172 D899            LDA A9      immediate   A:0 X:55 Y:E4 P:47 SP:FB
11175 D89B            STA 8D       absolute   A:7F X:55 Y:E4 P:45 SP:FB
11180 D89E            CLV B8        implied   A:7F X:55 Y:E4 P:45 SP:FB
11183 D89F            CLC 18        implied   A:7F X:55 Y:E4 P:5 SP:FB
11186 D8A0            INC EE       absolute   A:7F X:55 Y:E4 P:4 SP:FB
11193 D8A3            BEQ F0      immediate   A:7F X:55 Y:E4 P:84 SP:FB
11196 D8A5            BPL 10      immediate   A:7F X:55 Y:E4 P:84 SP:FB
11199 D8A7            BVS 70      immediate   A:7F X:55 Y:E4 P:84 SP:FB
11202 D8A9            BCS B0      immediate   A:7F X:55 Y:E4 P:84 SP:FB
11205 D8AB            LDA AD       absolute   A:7F X:55 Y:E4 P:84 SP:FB
11210 D8AE            CMP C9      immediate   A:80 X:55 Y:E4 P:84 SP:FB
11213 D8B0            BEQ F0      immediate   A:80 X:55 Y:E4 P:7 SP:FB
11216 D8B6            LDA A9      immediate   A:80 X:55 Y:E4 P:7 SP:FB
11219 D8B8            STA 8D       absolute   A:0 X:55 Y:E4 P:7 SP:FB
11224 D8BB            BIT 24       zeropage   A:0 X:55 Y:E4 P:7 SP:FB
11228 D8BD            SEC 38        implied   A:0 X:55 Y:E4 P:C7 SP:FB
11231 D8BE            DEC CE       absolute   A:0 X:55 Y:E4 P:C7 SP:FB
11238 D8C1            BEQ F0      immediate   A:0 X:55 Y:E4 P:C5 SP:FB
11241 D8C3            BPL 10      immediate   A:0 X:55 Y:E4 P:C5 SP:FB
11244 D8C5            BVC 50      immediate   A:0 X:55 Y:E4 P:C5 SP:FB
11247 D8C7            BCC 90      immediate   A:0 X:55 Y:E4 P:C5 SP:FB
11250 D8C9            LDA AD       absolute   A:0 X:55 Y:E4 P:C5 SP:FB
11255 D8CC            CMP C9      immediate   A:FF X:55 Y:E4 P:C5 SP:FB
11258 D8CE            BEQ F0      immediate   A:FF X:55 Y:E4 P:47 SP:FB
11261 D8D4            LDA A9      immediate   A:FF X:55 Y:E4 P:47 SP:FB
11264 D8D6            STA 8D       absolute   A:80 X:55 Y:E4 P:C5 SP:FB
11269 D8D9            CLV B8        implied   A:80 X:55 Y:E4 P:C5 SP:FB
11272 D8DA            CLC 18        implied   A:80 X:55 Y:E4 P:85 SP:FB
11275 D8DB            DEC CE       absolute   A:80 X:55 Y:E4 P:84 SP:FB
11282 D8DE            BEQ F0      immediate   A:80 X:55 Y:E4 P:4 SP:FB
11285 D8E0            BMI 30      immediate   A:80 X:55 Y:E4 P:4 SP:FB
11288 D8E2            BVS 70      immediate   A:80 X:55 Y:E4 P:4 SP:FB
11291 D8E4            BCS B0      immediate   A:80 X:55 Y:E4 P:4 SP:FB
11294 D8E6            LDA AD       absolute   A:80 X:55 Y:E4 P:4 SP:FB
11299 D8E9            CMP C9      immediate   A:7F X:55 Y:E4 P:4 SP:FB
11302 D8EB            BEQ F0      immediate   A:7F X:55 Y:E4 P:7 SP:FB
11305 D8F1            LDA A9      immediate   A:7F X:55 Y:E4 P:7 SP:FB
11308 D8F3            STA 8D       absolute   A:1 X:55 Y:E4 P:5 SP:FB
11313 D8F6            DEC CE       absolute   A:1 X:55 Y:E4 P:5 SP:FB
11320 D8F9            BEQ F0      immediate   A:1 X:55 Y:E4 P:7 SP:FB
11323 D8FF            RTS 60        implied   A:1 X:55 Y:E4 P:7 SP:FB
11330 C618            JSR 20       absolute   A:1 X:55 Y:E4 P:7 SP:FD
11335 D900            LDA A9      immediate   A:1 X:55 Y:E4 P:7 SP:FB
11338 D902            STA 85       zeropage   A:A3 X:55 Y:E4 P:85 SP:FB
11342 D904            LDA A9      immediate   A:A3 X:55 Y:E4 P:85 SP:FB
11345 D906            STA 8D       absolute   A:89 X:55 Y:E4 P:85 SP:FB
11350 D909            LDA A9      immediate   A:89 X:55 Y:E4 P:85 SP:FB
11353 D90B            STA 8D       absolute   A:12 X:55 Y:E4 P:5 SP:FB
11358 D90E            LDA A9      immediate   A:12 X:55 Y:E4 P:5 SP:FB
11361 D910            STA 85       zeropage   A:FF X:55 Y:E4 P:85 SP:FB
11365 D912            LDX A2      immediate   A:FF X:55 Y:E4 P:85 SP:FB
11368 D914            LDA A9      immediate   A:FF X:65 Y:E4 P:5 SP:FB
11371 D916            STA 85       zeropage   A:0 X:65 Y:E4 P:7 SP:FB
11375 D918            LDA A9      immediate   A:0 X:65 Y:E4 P:7 SP:FB
11378 D91A            STA 85       zeropage   A:3 X:65 Y:E4 P:5 SP:FB
11382 D91C            LDY A0      immediate   A:3 X:65 Y:E4 P:5 SP:FB
11385 D91E            SEC 38        implied   A:3 X:65 Y:0 P:7 SP:FB
11388 D91F            LDA A9      immediate   A:3 X:65 Y:0 P:7 SP:FB
11391 D921            CLV B8        implied   A:0 X:65 Y:0 P:7 SP:FB
11394 D922            LDA B1   (zeropage),y   A:0 X:65 Y:0 P:7 SP:FB
11400 D924            BEQ F0      immediate   A:89 X:65 Y:0 P:85 SP:FB
11403 D926            BCC 90      immediate   A:89 X:65 Y:0 P:85 SP:FB
11406 D928            BVS 70      immediate   A:89 X:65 Y:0 P:85 SP:FB
11409 D92A            CMP C9      immediate   A:89 X:65 Y:0 P:85 SP:FB
11412 D92C            BNE D0      immediate   A:89 X:65 Y:0 P:7 SP:FB
11415 D92E            CPX E0      immediate   A:89 X:65 Y:0 P:7 SP:FB
11418 D930            BEQ F0      immediate   A:89 X:65 Y:0 P:7 SP:FB
11421 D936            LDA A9      immediate   A:89 X:65 Y:0 P:7 SP:FB
11424 D938            STA 85       zeropage   A:FF X:65 Y:0 P:85 SP:FB
11428 D93A            STA 85       zeropage   A:FF X:65 Y:0 P:85 SP:FB
11432 D93C            BIT 24       zeropage   A:FF X:65 Y:0 P:85 SP:FB
11436 D93E            LDY A0      immediate   A:FF X:65 Y:0 P:C5 SP:FB
11439 D940            LDA B1   (zeropage),y   A:FF X:65 Y:34 P:45 SP:FB
11445 D942            CMP C9      immediate   A:A3 X:65 Y:34 P:C5 SP:FB
11448 D944            BNE D0      immediate   A:A3 X:65 Y:34 P:47 SP:FB
11451 D946            BCS B0      immediate   A:A3 X:65 Y:34 P:47 SP:FB
11454 D94C            LDA A5       zeropage   A:A3 X:65 Y:34 P:47 SP:FB
11458 D94E            PHA 48        implied   A:0 X:65 Y:34 P:47 SP:FB
11462 D94F            LDA A9      immediate   A:0 X:65 Y:34 P:47 SP:FA
11465 D951            STA 85       zeropage   A:46 X:65 Y:34 P:45 SP:FA
11469 D953            LDA A9      immediate   A:46 X:65 Y:34 P:45 SP:FA
11472 D955            STA 85       zeropage   A:1 X:65 Y:34 P:45 SP:FA
11476 D957            LDY A0      immediate   A:1 X:65 Y:34 P:45 SP:FA
11479 D959            LDA B1   (zeropage),y   A:1 X:65 Y:FF P:C5 SP:FA
11485 D95B            CMP C9      immediate   A:12 X:65 Y:FF P:45 SP:FA
11488 D95D            BEQ F0      immediate   A:12 X:65 Y:FF P:47 SP:FA
11491 D963            PLA 68        implied   A:12 X:65 Y:FF P:47 SP:FA
11496 D964            STA 85       zeropage   A:0 X:65 Y:FF P:47 SP:FB
11500 D966            LDX A2      immediate   A:0 X:65 Y:FF P:47 SP:FB
11503 D968            LDA A9      immediate   A:0 X:ED Y:FF P:C5 SP:FB
11506 D96A            STA 85       zeropage   A:0 X:ED Y:FF P:47 SP:FB
11510 D96C            LDA A9      immediate   A:0 X:ED Y:FF P:47 SP:FB
11513 D96E            STA 85       zeropage   A:4 X:ED Y:FF P:45 SP:FB
11517 D970            LDY A0      immediate   A:4 X:ED Y:FF P:45 SP:FB
11520 D972            CLC 18        implied   A:4 X:ED Y:0 P:47 SP:FB
11523 D973            LDA A9      immediate   A:4 X:ED Y:0 P:46 SP:FB
11526 D975            STA 85       zeropage   A:FF X:ED Y:0 P:C4 SP:FB
11530 D977            BIT 24       zeropage   A:FF X:ED Y:0 P:C4 SP:FB
11534 D979            LDA A9      immediate   A:FF X:ED Y:0 P:C4 SP:FB
11537 D97B            STA 8D       absolute   A:AA X:ED Y:0 P:C4 SP:FB
11542 D97E            LDA A9      immediate   A:AA X:ED Y:0 P:C4 SP:FB
11545 D980            ORA 11   (zeropage),y   A:55 X:ED Y:0 P:44 SP:FB
11551 D982            BCS B0      immediate   A:FF X:ED Y:0 P:C4 SP:FB
11554 D984            BPL 10      immediate   A:FF X:ED Y:0 P:C4 SP:FB
11557 D986            CMP C9      immediate   A:FF X:ED Y:0 P:C4 SP:FB
11560 D988            BNE D0      immediate   A:FF X:ED Y:0 P:47 SP:FB
11563 D98A            BVS 70      immediate   A:FF X:ED Y:0 P:47 SP:FB
11566 D98E            INX E8        implied   A:FF X:ED Y:0 P:47 SP:FB
11569 D98F            SEC 38        implied   A:FF X:EE Y:0 P:C5 SP:FB
11572 D990            CLV B8        implied   A:FF X:EE Y:0 P:C5 SP:FB
11575 D991            LDA A9      immediate   A:FF X:EE Y:0 P:85 SP:FB
11578 D993            ORA 11   (zeropage),y   A:0 X:EE Y:0 P:7 SP:FB
11584 D995            BEQ F0      immediate   A:AA X:EE Y:0 P:85 SP:FB
11587 D997            BVS 70      immediate   A:AA X:EE Y:0 P:85 SP:FB
11590 D999            BCC 90      immediate   A:AA X:EE Y:0 P:85 SP:FB
11593 D99B            BMI 30      immediate   A:AA X:EE Y:0 P:85 SP:FB
11596 D99F            INX E8        implied   A:AA X:EE Y:0 P:85 SP:FB
11599 D9A0            CLC 18        implied   A:AA X:EF Y:0 P:85 SP:FB
11602 D9A1            BIT 24       zeropage   A:AA X:EF Y:0 P:84 SP:FB
11606 D9A3            LDA A9      immediate   A:AA X:EF Y:0 P:C4 SP:FB
11609 D9A5            AND 31   (zeropage),y   A:55 X:EF Y:0 P:44 SP:FB
11615 D9A7            BNE D0      immediate   A:0 X:EF Y:0 P:46 SP:FB
11618 D9A9            BVC 50      immediate   A:0 X:EF Y:0 P:46 SP:FB
11621 D9AB            BCS B0      immediate   A:0 X:EF Y:0 P:46 SP:FB
11624 D9AD            BPL 10      immediate   A:0 X:EF Y:0 P:46 SP:FB
11627 D9B1            INX E8        implied   A:0 X:EF Y:0 P:46 SP:FB
11630 D9B2            SEC 38        implied   A:0 X:F0 Y:0 P:C4 SP:FB
11633 D9B3            CLV B8        implied   A:0 X:F0 Y:0 P:C5 SP:FB
11636 D9B4            LDA A9      immediate   A:0 X:F0 Y:0 P:85 SP:FB
11639 D9B6            STA 8D       absolute   A:EF X:F0 Y:0 P:85 SP:FB
11644 D9B9            LDA A9      immediate   A:EF X:F0 Y:0 P:85 SP:FB
11647 D9BB            AND 31   (zeropage),y   A:F8 X:F0 Y:0 P:85 SP:FB
11653 D9BD            BCC 90      immediate   A:E8 X:F0 Y:0 P:85 SP:FB
11656 D9BF            BPL 10      immediate   A:E8 X:F0 Y:0 P:85 SP:FB
11659 D9C1            CMP C9      immediate   A:E8 X:F0 Y:0 P:85 SP:FB
11662 D9C3            BNE D0      immediate   A:E8 X:F0 Y:0 P:7 SP:FB
11665 D9C5            BVC 50      immediate   A:E8 X:F0 Y:0 P:7 SP:FB
11668 D9C9            INX E8        implied   A:E8 X:F0 Y:0 P:7 SP:FB
11671 D9CA            CLC 18        implied   A:E8 X:F1 Y:0 P:85 SP:FB
11674 D9CB            BIT 24       zeropage   A:E8 X:F1 Y:0 P:84 SP:FB
11678 D9CD            LDA A9      immediate   A:E8 X:F1 Y:0 P:C4 SP:FB
11681 D9CF            STA 8D       absolute   A:AA X:F1 Y:0 P:C4 SP:FB
11686 D9D2            LDA A9      immediate   A:AA X:F1 Y:0 P:C4 SP:FB
11689 D9D4            EOR 51   (zeropage),y   A:5F X:F1 Y:0 P:44 SP:FB
11695 D9D6            BCS B0      immediate   A:F5 X:F1 Y:0 P:C4 SP:FB
11698 D9D8            BPL 10      immediate   A:F5 X:F1 Y:0 P:C4 SP:FB
11701 D9DA            CMP C9      immediate   A:F5 X:F1 Y:0 P:C4 SP:FB
11704 D9DC            BNE D0      immediate   A:F5 X:F1 Y:0 P:47 SP:FB
11707 D9DE            BVS 70      immediate   A:F5 X:F1 Y:0 P:47 SP:FB
11710 D9E2            INX E8        implied   A:F5 X:F1 Y:0 P:47 SP:FB
11713 D9E3            SEC 38        implied   A:F5 X:F2 Y:0 P:C5 SP:FB
11716 D9E4            CLV B8        implied   A:F5 X:F2 Y:0 P:C5 SP:FB
11719 D9E5            LDA A9      immediate   A:F5 X:F2 Y:0 P:85 SP:FB
11722 D9E7            STA 8D       absolute   A:70 X:F2 Y:0 P:5 SP:FB
11727 D9EA            EOR 51   (zeropage),y   A:70 X:F2 Y:0 P:5 SP:FB
11733 D9EC            BNE D0      immediate   A:0 X:F2 Y:0 P:7 SP:FB
11736 D9EE            BVS 70      immediate   A:0 X:F2 Y:0 P:7 SP:FB
11739 D9F0            BCC 90      immediate   A:0 X:F2 Y:0 P:7 SP:FB
11742 D9F2            BPL 10      immediate   A:0 X:F2 Y:0 P:7 SP:FB
11745 D9F6            INX E8        implied   A:0 X:F2 Y:0 P:7 SP:FB
11748 D9F7            CLC 18        implied   A:0 X:F3 Y:0 P:85 SP:FB
11751 D9F8            BIT 24       zeropage   A:0 X:F3 Y:0 P:84 SP:FB
11755 D9FA            LDA A9      immediate   A:0 X:F3 Y:0 P:C6 SP:FB
11758 D9FC            STA 8D       absolute   A:69 X:F3 Y:0 P:44 SP:FB
11763 D9FF            LDA A9      immediate   A:69 X:F3 Y:0 P:44 SP:FB
11766 DA01            ADC 71   (zeropage),y   A:0 X:F3 Y:0 P:46 SP:FB
11772 DA03            BMI 30      immediate   A:69 X:F3 Y:0 P:4 SP:FB
11775 DA05            BCS B0      immediate   A:69 X:F3 Y:0 P:4 SP:FB
11778 DA07            CMP C9      immediate   A:69 X:F3 Y:0 P:4 SP:FB
11781 DA09            BNE D0      immediate   A:69 X:F3 Y:0 P:7 SP:FB
11784 DA0B            BVC 50      immediate   A:69 X:F3 Y:0 P:7 SP:FB
11787 DA0F            INX E8        implied   A:69 X:F3 Y:0 P:7 SP:FB
11790 DA10            SEC 38        implied   A:69 X:F4 Y:0 P:85 SP:FB
11793 DA11            BIT 24       zeropage   A:69 X:F4 Y:0 P:85 SP:FB
11797 DA13            LDA A9      immediate   A:69 X:F4 Y:0 P:C5 SP:FB
11800 DA15            ADC 71   (zeropage),y   A:0 X:F4 Y:0 P:47 SP:FB
11806 DA17            BMI 30      immediate   A:6A X:F4 Y:0 P:4 SP:FB
11809 DA19            BCS B0      immediate   A:6A X:F4 Y:0 P:4 SP:FB
11812 DA1B            CMP C9      immediate   A:6A X:F4 Y:0 P:4 SP:FB
11815 DA1D            BNE D0      immediate   A:6A X:F4 Y:0 P:7 SP:FB
11818 DA1F            BVC 50      immediate   A:6A X:F4 Y:0 P:7 SP:FB
11821 DA23            INX E8        implied   A:6A X:F4 Y:0 P:7 SP:FB
11824 DA24            SEC 38        implied   A:6A X:F5 Y:0 P:85 SP:FB
11827 DA25            CLV B8        implied   A:6A X:F5 Y:0 P:85 SP:FB
11830 DA26            LDA A9      immediate   A:6A X:F5 Y:0 P:85 SP:FB
11833 DA28            STA 8D       absolute   A:7F X:F5 Y:0 P:5 SP:FB
11838 DA2B            ADC 71   (zeropage),y   A:7F X:F5 Y:0 P:5 SP:FB
11844 DA2D            BPL 10      immediate   A:FF X:F5 Y:0 P:C4 SP:FB
11847 DA2F            BCS B0      immediate   A:FF X:F5 Y:0 P:C4 SP:FB
11850 DA31            CMP C9      immediate   A:FF X:F5 Y:0 P:C4 SP:FB
11853 DA33            BNE D0      immediate   A:FF X:F5 Y:0 P:47 SP:FB
11856 DA35            BVS 70      immediate   A:FF X:F5 Y:0 P:47 SP:FB
11859 DA39            INX E8        implied   A:FF X:F5 Y:0 P:47 SP:FB
11862 DA3A            CLC 18        implied   A:FF X:F6 Y:0 P:C5 SP:FB
11865 DA3B            BIT 24       zeropage   A:FF X:F6 Y:0 P:C4 SP:FB
11869 DA3D            LDA A9      immediate   A:FF X:F6 Y:0 P:C4 SP:FB
11872 DA3F            STA 8D       absolute   A:80 X:F6 Y:0 P:C4 SP:FB
11877 DA42            LDA A9      immediate   A:80 X:F6 Y:0 P:C4 SP:FB
11880 DA44            ADC 71   (zeropage),y   A:7F X:F6 Y:0 P:44 SP:FB
11886 DA46            BPL 10      immediate   A:FF X:F6 Y:0 P:84 SP:FB
11889 DA48            BCS B0      immediate   A:FF X:F6 Y:0 P:84 SP:FB
11892 DA4A            CMP C9      immediate   A:FF X:F6 Y:0 P:84 SP:FB
11895 DA4C            BNE D0      immediate   A:FF X:F6 Y:0 P:7 SP:FB
11898 DA4E            BVC 50      immediate   A:FF X:F6 Y:0 P:7 SP:FB
11901 DA52            INX E8        implied   A:FF X:F6 Y:0 P:7 SP:FB
11904 DA53            SEC 38        implied   A:FF X:F7 Y:0 P:85 SP:FB
11907 DA54            CLV B8        implied   A:FF X:F7 Y:0 P:85 SP:FB
11910 DA55            LDA A9      immediate   A:FF X:F7 Y:0 P:85 SP:FB
11913 DA57            STA 8D       absolute   A:80 X:F7 Y:0 P:85 SP:FB
11918 DA5A            LDA A9      immediate   A:80 X:F7 Y:0 P:85 SP:FB
11921 DA5C            ADC 71   (zeropage),y   A:7F X:F7 Y:0 P:5 SP:FB
11927 DA5E            BNE D0      immediate   A:0 X:F7 Y:0 P:7 SP:FB
11930 DA60            BMI 30      immediate   A:0 X:F7 Y:0 P:7 SP:FB
11933 DA62            BVS 70      immediate   A:0 X:F7 Y:0 P:7 SP:FB
11936 DA64            BCS B0      immediate   A:0 X:F7 Y:0 P:7 SP:FB
11939 DA68            INX E8        implied   A:0 X:F7 Y:0 P:7 SP:FB
11942 DA69            BIT 24       zeropage   A:0 X:F8 Y:0 P:85 SP:FB
11946 DA6B            LDA A9      immediate   A:0 X:F8 Y:0 P:C7 SP:FB
11949 DA6D            STA 8D       absolute   A:40 X:F8 Y:0 P:45 SP:FB
11954 DA70            CMP D1   (zeropage),y   A:40 X:F8 Y:0 P:45 SP:FB
11960 DA72            BMI 30      immediate   A:40 X:F8 Y:0 P:47 SP:FB
11963 DA74            BCC 90      immediate   A:40 X:F8 Y:0 P:47 SP:FB
11966 DA76            BNE D0      immediate   A:40 X:F8 Y:0 P:47 SP:FB
11969 DA78            BVS 70      immediate   A:40 X:F8 Y:0 P:47 SP:FB
11972 DA7C            INX E8        implied   A:40 X:F8 Y:0 P:47 SP:FB
11975 DA7D            CLV B8        implied   A:40 X:F9 Y:0 P:C5 SP:FB
11978 DA7E            DEC CE       absolute   A:40 X:F9 Y:0 P:85 SP:FB
11985 DA81            CMP D1   (zeropage),y   A:40 X:F9 Y:0 P:5 SP:FB
11991 DA83            BEQ F0      immediate   A:40 X:F9 Y:0 P:5 SP:FB
11994 DA85            BMI 30      immediate   A:40 X:F9 Y:0 P:5 SP:FB
11997 DA87            BCC 90      immediate   A:40 X:F9 Y:0 P:5 SP:FB
12000 DA89            BVC 50      immediate   A:40 X:F9 Y:0 P:5 SP:FB
12003 DA8D            INX E8        implied   A:40 X:F9 Y:0 P:5 SP:FB
12006 DA8E            INC EE       absolute   A:40 X:FA Y:0 P:85 SP:FB
12013 DA91            INC EE       absolute   A:40 X:FA Y:0 P:5 SP:FB
12020 DA94            CMP D1   (zeropage),y   A:40 X:FA Y:0 P:5 SP:FB
12026 DA96            BEQ F0      immediate   A:40 X:FA Y:0 P:84 SP:FB
12029 DA98            BMI 30      immediate   A:40 X:FA Y:0 P:84 SP:FB
12032 DA9C            INX E8        implied   A:40 X:FA Y:0 P:84 SP:FB
12035 DA9D            LDA A9      immediate   A:40 X:FB Y:0 P:84 SP:FB
12038 DA9F            STA 8D       absolute   A:0 X:FB Y:0 P:6 SP:FB
12043 DAA2            LDA A9      immediate   A:0 X:FB Y:0 P:6 SP:FB
12046 DAA4            CMP D1   (zeropage),y   A:80 X:FB Y:0 P:84 SP:FB
12052 DAA6            BEQ F0      immediate   A:80 X:FB Y:0 P:85 SP:FB
12055 DAA8            BPL 10      immediate   A:80 X:FB Y:0 P:85 SP:FB
12058 DAAA            BCS B0      immediate   A:80 X:FB Y:0 P:85 SP:FB
12061 DAAE            INX E8        implied   A:80 X:FB Y:0 P:85 SP:FB
12064 DAAF            LDY A0      immediate   A:80 X:FC Y:0 P:85 SP:FB
12067 DAB1            STY 8C       absolute   A:80 X:FC Y:80 P:85 SP:FB
12072 DAB4            LDY A0      immediate   A:80 X:FC Y:80 P:85 SP:FB
12075 DAB6            CMP D1   (zeropage),y   A:80 X:FC Y:0 P:7 SP:FB
12081 DAB8            BNE D0      immediate   A:80 X:FC Y:0 P:7 SP:FB
12084 DABA            BMI 30      immediate   A:80 X:FC Y:0 P:7 SP:FB
12087 DABC            BCS B0      immediate   A:80 X:FC Y:0 P:7 SP:FB
12090 DAC0            INX E8        implied   A:80 X:FC Y:0 P:7 SP:FB
12093 DAC1            INC EE       absolute   A:80 X:FD Y:0 P:85 SP:FB
12100 DAC4            CMP D1   (zeropage),y   A:80 X:FD Y:0 P:85 SP:FB
12106 DAC6            BCS B0      immediate   A:80 X:FD Y:0 P:84 SP:FB
12109 DAC8            BEQ F0      immediate   A:80 X:FD Y:0 P:84 SP:FB
12112 DACA            BMI 30      immediate   A:80 X:FD Y:0 P:84 SP:FB
12115 DACE            INX E8        implied   A:80 X:FD Y:0 P:84 SP:FB
12118 DACF            DEC CE       absolute   A:80 X:FE Y:0 P:84 SP:FB
12125 DAD2            DEC CE       absolute   A:80 X:FE Y:0 P:84 SP:FB
12132 DAD5            CMP D1   (zeropage),y   A:80 X:FE Y:0 P:4 SP:FB
12138 DAD7            BCC 90      immediate   A:80 X:FE Y:0 P:5 SP:FB
12141 DAD9            BEQ F0      immediate   A:80 X:FE Y:0 P:5 SP:FB
12144 DADB            BPL 10      immediate   A:80 X:FE Y:0 P:5 SP:FB
12147 DADF            RTS 60        implied   A:80 X:FE Y:0 P:5 SP:FB
12154 C61B            LDA A5       zeropage   A:80 X:FE Y:0 P:5 SP:FD
12158 C61D            STA 85       zeropage   A:0 X:FE Y:0 P:7 SP:FD
12162 C61F            LDA A9      immediate   A:0 X:FE Y:0 P:7 SP:FD
12165 C621            STA 85       zeropage   A:0 X:FE Y:0 P:7 SP:FD
12169 C623            JSR 20       absolute   A:0 X:FE Y:0 P:7 SP:FD
12174 DAE0            LDA A9      immediate   A:0 X:FE Y:0 P:7 SP:FB
12177 DAE2            STA 85       zeropage   A:0 X:FE Y:0 P:7 SP:FB
12181 DAE4            LDA A9      immediate   A:0 X:FE Y:0 P:7 SP:FB
12184 DAE6            STA 85       zeropage   A:4 X:FE Y:0 P:5 SP:FB
12188 DAE8            LDY A0      immediate   A:4 X:FE Y:0 P:5 SP:FB
12191 DAEA            LDX A2      immediate   A:4 X:FE Y:0 P:7 SP:FB
12194 DAEC            BIT 24       zeropage   A:4 X:1 Y:0 P:5 SP:FB
12198 DAEE            LDA A9      immediate   A:4 X:1 Y:0 P:C5 SP:FB
12201 DAF0            STA 8D       absolute   A:40 X:1 Y:0 P:45 SP:FB
12206 DAF3            SEC 38        implied   A:40 X:1 Y:0 P:45 SP:FB
12209 DAF4            SBC F1   (zeropage),y   A:40 X:1 Y:0 P:45 SP:FB
12215 DAF6            BMI 30      immediate   A:0 X:1 Y:0 P:7 SP:FB
12218 DAF8            BCC 90      immediate   A:0 X:1 Y:0 P:7 SP:FB
12221 DAFA            BNE D0      immediate   A:0 X:1 Y:0 P:7 SP:FB
12224 DAFC            BVS 70      immediate   A:0 X:1 Y:0 P:7 SP:FB
12227 DAFE            CMP C9      immediate   A:0 X:1 Y:0 P:7 SP:FB
12230 DB00            BEQ F0      immediate   A:0 X:1 Y:0 P:7 SP:FB
12233 DB04            INX E8        implied   A:0 X:1 Y:0 P:7 SP:FB
12236 DB05            CLV B8        implied   A:0 X:2 Y:0 P:5 SP:FB
12239 DB06            SEC 38        implied   A:0 X:2 Y:0 P:5 SP:FB
12242 DB07            LDA A9      immediate   A:0 X:2 Y:0 P:5 SP:FB
12245 DB09            DEC CE       absolute   A:40 X:2 Y:0 P:5 SP:FB
12252 DB0C            SBC F1   (zeropage),y   A:40 X:2 Y:0 P:5 SP:FB
12258 DB0E            BEQ F0      immediate   A:1 X:2 Y:0 P:5 SP:FB
12261 DB10            BMI 30      immediate   A:1 X:2 Y:0 P:5 SP:FB
12264 DB12            BCC 90      immediate   A:1 X:2 Y:0 P:5 SP:FB
12267 DB14            BVS 70      immediate   A:1 X:2 Y:0 P:5 SP:FB
12270 DB16            CMP C9      immediate   A:1 X:2 Y:0 P:5 SP:FB
12273 DB18            BEQ F0      immediate   A:1 X:2 Y:0 P:7 SP:FB
12276 DB1C            INX E8        implied   A:1 X:2 Y:0 P:7 SP:FB
12279 DB1D            LDA A9      immediate   A:1 X:3 Y:0 P:5 SP:FB
12282 DB1F            SEC 38        implied   A:40 X:3 Y:0 P:5 SP:FB
12285 DB20            BIT 24       zeropage   A:40 X:3 Y:0 P:5 SP:FB
12289 DB22            INC EE       absolute   A:40 X:3 Y:0 P:C5 SP:FB
12296 DB25            INC EE       absolute   A:40 X:3 Y:0 P:45 SP:FB
12303 DB28            SBC F1   (zeropage),y   A:40 X:3 Y:0 P:45 SP:FB
12309 DB2A            BCS B0      immediate   A:FF X:3 Y:0 P:84 SP:FB
12312 DB2C            BEQ F0      immediate   A:FF X:3 Y:0 P:84 SP:FB
12315 DB2E            BPL 10      immediate   A:FF X:3 Y:0 P:84 SP:FB
12318 DB30            BVS 70      immediate   A:FF X:3 Y:0 P:84 SP:FB
12321 DB32            CMP C9      immediate   A:FF X:3 Y:0 P:84 SP:FB
12324 DB34            BEQ F0      immediate   A:FF X:3 Y:0 P:7 SP:FB
12327 DB38            INX E8        implied   A:FF X:3 Y:0 P:7 SP:FB
12330 DB39            CLC 18        implied   A:FF X:4 Y:0 P:5 SP:FB
12333 DB3A            LDA A9      immediate   A:FF X:4 Y:0 P:4 SP:FB
12336 DB3C            STA 8D       absolute   A:0 X:4 Y:0 P:6 SP:FB
12341 DB3F            LDA A9      immediate   A:0 X:4 Y:0 P:6 SP:FB
12344 DB41            SBC F1   (zeropage),y   A:80 X:4 Y:0 P:84 SP:FB
12350 DB43            BCC 90      immediate   A:7F X:4 Y:0 P:45 SP:FB
12353 DB45            CMP C9      immediate   A:7F X:4 Y:0 P:45 SP:FB
12356 DB47            BEQ F0      immediate   A:7F X:4 Y:0 P:47 SP:FB
12359 DB4B            INX E8        implied   A:7F X:4 Y:0 P:47 SP:FB
12362 DB4C            SEC 38        implied   A:7F X:5 Y:0 P:45 SP:FB
12365 DB4D            LDA A9      immediate   A:7F X:5 Y:0 P:45 SP:FB
12368 DB4F            STA 8D       absolute   A:7F X:5 Y:0 P:45 SP:FB
12373 DB52            LDA A9      immediate   A:7F X:5 Y:0 P:45 SP:FB
12376 DB54            SBC F1   (zeropage),y   A:81 X:5 Y:0 P:C5 SP:FB
12382 DB56            BVC 50      immediate   A:2 X:5 Y:0 P:45 SP:FB
12385 DB58            BCC 90      immediate   A:2 X:5 Y:0 P:45 SP:FB
12388 DB5A            CMP C9      immediate   A:2 X:5 Y:0 P:45 SP:FB
12391 DB5C            BEQ F0      immediate   A:2 X:5 Y:0 P:47 SP:FB
12394 DB60            INX E8        implied   A:2 X:5 Y:0 P:47 SP:FB
12397 DB61            LDA A9      immediate   A:2 X:6 Y:0 P:45 SP:FB
12400 DB63            LDA A9      immediate   A:0 X:6 Y:0 P:47 SP:FB
12403 DB65            STA 91   (zeropage),y   A:87 X:6 Y:0 P:C5 SP:FB
12410 DB67            LDA AD       absolute   A:87 X:6 Y:0 P:C5 SP:FB
12415 DB6A            CMP C9      immediate   A:87 X:6 Y:0 P:C5 SP:FB
12418 DB6C            BEQ F0      immediate   A:87 X:6 Y:0 P:47 SP:FB
12421 DB70            INX E8        implied   A:87 X:6 Y:0 P:47 SP:FB
12424 DB71            LDA A9      immediate   A:87 X:7 Y:0 P:45 SP:FB
12427 DB73            STA 8D       absolute   A:7E X:7 Y:0 P:45 SP:FB
12432 DB76            LDA A9      immediate   A:7E X:7 Y:0 P:45 SP:FB
12435 DB78            STA 8D       absolute   A:DB X:7 Y:0 P:C5 SP:FB
12440 DB7B            JMP 6C   jumpindirect   A:DB X:7 Y:0 P:C5 SP:FB
12441 DB7E            LDA A9      immediate   A:DB X:7 Y:0 P:C5 SP:FB
12444 DB80            STA 8D       absolute   A:0 X:7 Y:0 P:47 SP:FB
12449 DB83            LDA A9      immediate   A:0 X:7 Y:0 P:47 SP:FB
12452 DB85            STA 8D       absolute   A:1 X:7 Y:0 P:45 SP:FB
12457 DB88            LDA A9      immediate   A:1 X:7 Y:0 P:45 SP:FB
12460 DB8A            STA 8D       absolute   A:3 X:7 Y:0 P:45 SP:FB
12465 DB8D            LDA A9      immediate   A:3 X:7 Y:0 P:45 SP:FB
12468 DB8F            STA 8D       absolute   A:A9 X:7 Y:0 P:C5 SP:FB
12473 DB92            LDA A9      immediate   A:A9 X:7 Y:0 P:C5 SP:FB
12476 DB94            STA 8D       absolute   A:55 X:7 Y:0 P:45 SP:FB
12481 DB97            LDA A9      immediate   A:55 X:7 Y:0 P:45 SP:FB
12484 DB99            STA 8D       absolute   A:60 X:7 Y:0 P:45 SP:FB
12489 DB9C            LDA A9      immediate   A:60 X:7 Y:0 P:45 SP:FB
12492 DB9E            STA 8D       absolute   A:A9 X:7 Y:0 P:C5 SP:FB
12497 DBA1            LDA A9      immediate   A:A9 X:7 Y:0 P:C5 SP:FB
12500 DBA3            STA 8D       absolute   A:AA X:7 Y:0 P:C5 SP:FB
12505 DBA6            LDA A9      immediate   A:AA X:7 Y:0 P:C5 SP:FB
12508 DBA8            STA 8D       absolute   A:60 X:7 Y:0 P:45 SP:FB
12513 DBAB            JSR 20       absolute   A:60 X:7 Y:0 P:45 SP:FB
12518 DBB5            JMP 6C   jumpindirect   A:60 X:7 Y:0 P:45 SP:F9
12519 0300            LDA A9      immediate   A:60 X:7 Y:0 P:45 SP:F9
12522 0302            RTS 60        implied   A:AA X:7 Y:0 P:C5 SP:F9
12529 DBAE            CMP C9      immediate   A:AA X:7 Y:0 P:C5 SP:FB
12532 DBB0            BEQ F0      immediate   A:AA X:7 Y:0 P:47 SP:FB
12535 DBB4            RTS 60        implied   A:AA X:7 Y:0 P:47 SP:FB
12542 C626            JSR 20       absolute   A:AA X:7 Y:0 P:47 SP:FD
12547 DF4A            LDA A9      immediate   A:AA X:7 Y:0 P:47 SP:FB
12550 DF4C            STA 8D       absolute   A:89 X:7 Y:0 P:C5 SP:FB
12555 DF4F            LDA A9      immediate   A:89 X:7 Y:0 P:C5 SP:FB
12558 DF51            STA 85       zeropage   A:A3 X:7 Y:0 P:C5 SP:FB
12562 DF53            LDA A9      immediate   A:A3 X:7 Y:0 P:C5 SP:FB
12565 DF55            STA 8D       absolute   A:12 X:7 Y:0 P:45 SP:FB
12570 DF58            LDX A2      immediate   A:12 X:7 Y:0 P:45 SP:FB
12573 DF5A            LDY A0      immediate   A:12 X:65 Y:0 P:45 SP:FB
12576 DF5C            SEC 38        implied   A:12 X:65 Y:0 P:47 SP:FB
12579 DF5D            LDA A9      immediate   A:12 X:65 Y:0 P:47 SP:FB
12582 DF5F            CLV B8        implied   A:0 X:65 Y:0 P:47 SP:FB
12585 DF60            LDA B9     absolute,y   A:0 X:65 Y:0 P:7 SP:FB
12590 DF63            BEQ F0      immediate   A:89 X:65 Y:0 P:85 SP:FB
12593 DF65            BCC 90      immediate   A:89 X:65 Y:0 P:85 SP:FB
12596 DF67            BVS 70      immediate   A:89 X:65 Y:0 P:85 SP:FB
12599 DF69            CMP C9      immediate   A:89 X:65 Y:0 P:85 SP:FB
12602 DF6B            BNE D0      immediate   A:89 X:65 Y:0 P:7 SP:FB
12605 DF6D            CPX E0      immediate   A:89 X:65 Y:0 P:7 SP:FB
12608 DF6F            BEQ F0      immediate   A:89 X:65 Y:0 P:7 SP:FB
12611 DF75            LDA A9      immediate   A:89 X:65 Y:0 P:7 SP:FB
12614 DF77            STA 85       zeropage   A:FF X:65 Y:0 P:85 SP:FB
12618 DF79            BIT 24       zeropage   A:FF X:65 Y:0 P:85 SP:FB
12622 DF7B            LDY A0      immediate   A:FF X:65 Y:0 P:C5 SP:FB
12625 DF7D            LDA B9     absolute,y   A:FF X:65 Y:34 P:45 SP:FB
12630 DF80            CMP C9      immediate   A:A3 X:65 Y:34 P:C5 SP:FB
12633 DF82            BNE D0      immediate   A:A3 X:65 Y:34 P:47 SP:FB
12636 DF84            BCS B0      immediate   A:A3 X:65 Y:34 P:47 SP:FB
12639 DF8A            LDA A9      immediate   A:A3 X:65 Y:34 P:47 SP:FB
12642 DF8C            STA 85       zeropage   A:46 X:65 Y:34 P:45 SP:FB
12646 DF8E            LDY A0      immediate   A:46 X:65 Y:34 P:45 SP:FB
12649 DF90            LDA B9     absolute,y   A:46 X:65 Y:FF P:C5 SP:FB
12654 DF93            CMP C9      immediate   A:12 X:65 Y:FF P:45 SP:FB
12657 DF95            BEQ F0      immediate   A:12 X:65 Y:FF P:47 SP:FB
12660 DF9B            LDX A2      immediate   A:12 X:65 Y:FF P:47 SP:FB
12663 DF9D            CLC 18        implied   A:12 X:39 Y:FF P:45 SP:FB
12666 DF9E            LDA A9      immediate   A:12 X:39 Y:FF P:44 SP:FB
12669 DFA0            STA 85       zeropage   A:FF X:39 Y:FF P:C4 SP:FB
12673 DFA2            BIT 24       zeropage   A:FF X:39 Y:FF P:C4 SP:FB
12677 DFA4            LDA A9      immediate   A:FF X:39 Y:FF P:C4 SP:FB
12680 DFA6            STA 8D       absolute   A:AA X:39 Y:FF P:C4 SP:FB
12685 DFA9            LDA A9      immediate   A:AA X:39 Y:FF P:C4 SP:FB
12688 DFAB            LDY A0      immediate   A:55 X:39 Y:FF P:44 SP:FB
12691 DFAD            ORA 19     absolute,y   A:55 X:39 Y:0 P:46 SP:FB
12696 DFB0            BCS B0      immediate   A:FF X:39 Y:0 P:C4 SP:FB
12699 DFB2            BPL 10      immediate   A:FF X:39 Y:0 P:C4 SP:FB
12702 DFB4            CMP C9      immediate   A:FF X:39 Y:0 P:C4 SP:FB
12705 DFB6            BNE D0      immediate   A:FF X:39 Y:0 P:47 SP:FB
12708 DFB8            BVS 70      immediate   A:FF X:39 Y:0 P:47 SP:FB
12711 DFBC            INX E8        implied   A:FF X:39 Y:0 P:47 SP:FB
12714 DFBD            SEC 38        implied   A:FF X:3A Y:0 P:45 SP:FB
12717 DFBE            CLV B8        implied   A:FF X:3A Y:0 P:45 SP:FB
12720 DFBF            LDA A9      immediate   A:FF X:3A Y:0 P:5 SP:FB
12723 DFC1            ORA 19     absolute,y   A:0 X:3A Y:0 P:7 SP:FB
12728 DFC4            BEQ F0      immediate   A:AA X:3A Y:0 P:85 SP:FB
12731 DFC6            BVS 70      immediate   A:AA X:3A Y:0 P:85 SP:FB
12734 DFC8            BCC 90      immediate   A:AA X:3A Y:0 P:85 SP:FB
12737 DFCA            BMI 30      immediate   A:AA X:3A Y:0 P:85 SP:FB
12740 DFCE            INX E8        implied   A:AA X:3A Y:0 P:85 SP:FB
12743 DFCF            CLC 18        implied   A:AA X:3B Y:0 P:5 SP:FB
12746 DFD0            BIT 24       zeropage   A:AA X:3B Y:0 P:4 SP:FB
12750 DFD2            LDA A9      immediate   A:AA X:3B Y:0 P:C4 SP:FB
12753 DFD4            AND 39     absolute,y   A:55 X:3B Y:0 P:44 SP:FB
12758 DFD7            BNE D0      immediate   A:0 X:3B Y:0 P:46 SP:FB
12761 DFD9            BVC 50      immediate   A:0 X:3B Y:0 P:46 SP:FB
12764 DFDB            BCS B0      immediate   A:0 X:3B Y:0 P:46 SP:FB
12767 DFDD            BPL 10      immediate   A:0 X:3B Y:0 P:46 SP:FB
12770 DFE1            INX E8        implied   A:0 X:3B Y:0 P:46 SP:FB
12773 DFE2            SEC 38        implied   A:0 X:3C Y:0 P:44 SP:FB
12776 DFE3            CLV B8        implied   A:0 X:3C Y:0 P:45 SP:FB
12779 DFE4            LDA A9      immediate   A:0 X:3C Y:0 P:5 SP:FB
12782 DFE6            STA 8D       absolute   A:EF X:3C Y:0 P:85 SP:FB
12787 DFE9            LDA A9      immediate   A:EF X:3C Y:0 P:85 SP:FB
12790 DFEB            AND 39     absolute,y   A:F8 X:3C Y:0 P:85 SP:FB
12795 DFEE            BCC 90      immediate   A:E8 X:3C Y:0 P:85 SP:FB
12798 DFF0            BPL 10      immediate   A:E8 X:3C Y:0 P:85 SP:FB
12801 DFF2            CMP C9      immediate   A:E8 X:3C Y:0 P:85 SP:FB
12804 DFF4            BNE D0      immediate   A:E8 X:3C Y:0 P:7 SP:FB
12807 DFF6            BVC 50      immediate   A:E8 X:3C Y:0 P:7 SP:FB
12810 DFFA            INX E8        implied   A:E8 X:3C Y:0 P:7 SP:FB
12813 DFFB            CLC 18        implied   A:E8 X:3D Y:0 P:5 SP:FB
12816 DFFC            BIT 24       zeropage   A:E8 X:3D Y:0 P:4 SP:FB
12820 DFFE            LDA A9      immediate   A:E8 X:3D Y:0 P:C4 SP:FB
12823 E000            STA 8D       absolute   A:AA X:3D Y:0 P:C4 SP:FB
12828 E003            LDA A9      immediate   A:AA X:3D Y:0 P:C4 SP:FB
12831 E005            EOR 59     absolute,y   A:5F X:3D Y:0 P:44 SP:FB
12836 E008            BCS B0      immediate   A:F5 X:3D Y:0 P:C4 SP:FB
12839 E00A            BPL 10      immediate   A:F5 X:3D Y:0 P:C4 SP:FB
12842 E00C            CMP C9      immediate   A:F5 X:3D Y:0 P:C4 SP:FB
12845 E00E            BNE D0      immediate   A:F5 X:3D Y:0 P:47 SP:FB
12848 E010            BVS 70      immediate   A:F5 X:3D Y:0 P:47 SP:FB
12851 E014            INX E8        implied   A:F5 X:3D Y:0 P:47 SP:FB
12854 E015            SEC 38        implied   A:F5 X:3E Y:0 P:45 SP:FB
12857 E016            CLV B8        implied   A:F5 X:3E Y:0 P:45 SP:FB
12860 E017            LDA A9      immediate   A:F5 X:3E Y:0 P:5 SP:FB
12863 E019            STA 8D       absolute   A:70 X:3E Y:0 P:5 SP:FB
12868 E01C            EOR 59     absolute,y   A:70 X:3E Y:0 P:5 SP:FB
12873 E01F            BNE D0      immediate   A:0 X:3E Y:0 P:7 SP:FB
12876 E021            BVS 70      immediate   A:0 X:3E Y:0 P:7 SP:FB
12879 E023            BCC 90      immediate   A:0 X:3E Y:0 P:7 SP:FB
12882 E025            BPL 10      immediate   A:0 X:3E Y:0 P:7 SP:FB
12885 E029            INX E8        implied   A:0 X:3E Y:0 P:7 SP:FB
12888 E02A            CLC 18        implied   A:0 X:3F Y:0 P:5 SP:FB
12891 E02B            BIT 24       zeropage   A:0 X:3F Y:0 P:4 SP:FB
12895 E02D            LDA A9      immediate   A:0 X:3F Y:0 P:C6 SP:FB
12898 E02F            STA 8D       absolute   A:69 X:3F Y:0 P:44 SP:FB
12903 E032            LDA A9      immediate   A:69 X:3F Y:0 P:44 SP:FB
12906 E034            ADC 79     absolute,y   A:0 X:3F Y:0 P:46 SP:FB
12911 E037            BMI 30      immediate   A:69 X:3F Y:0 P:4 SP:FB
12914 E039            BCS B0      immediate   A:69 X:3F Y:0 P:4 SP:FB
12917 E03B            CMP C9      immediate   A:69 X:3F Y:0 P:4 SP:FB
12920 E03D            BNE D0      immediate   A:69 X:3F Y:0 P:7 SP:FB
12923 E03F            BVC 50      immediate   A:69 X:3F Y:0 P:7 SP:FB
12926 E043            INX E8        implied   A:69 X:3F Y:0 P:7 SP:FB
12929 E044            SEC 38        implied   A:69 X:40 Y:0 P:5 SP:FB
12932 E045            BIT 24       zeropage   A:69 X:40 Y:0 P:5 SP:FB
12936 E047            LDA A9      immediate   A:69 X:40 Y:0 P:C5 SP:FB
12939 E049            ADC 79     absolute,y   A:0 X:40 Y:0 P:47 SP:FB
12944 E04C            BMI 30      immediate   A:6A X:40 Y:0 P:4 SP:FB
12947 E04E            BCS B0      immediate   A:6A X:40 Y:0 P:4 SP:FB
12950 E050            CMP C9      immediate   A:6A X:40 Y:0 P:4 SP:FB
12953 E052            BNE D0      immediate   A:6A X:40 Y:0 P:7 SP:FB
12956 E054            BVC 50      immediate   A:6A X:40 Y:0 P:7 SP:FB
12959 E058            INX E8        implied   A:6A X:40 Y:0 P:7 SP:FB
12962 E059            SEC 38        implied   A:6A X:41 Y:0 P:5 SP:FB
12965 E05A            CLV B8        implied   A:6A X:41 Y:0 P:5 SP:FB
12968 E05B            LDA A9      immediate   A:6A X:41 Y:0 P:5 SP:FB
12971 E05D            STA 8D       absolute   A:7F X:41 Y:0 P:5 SP:FB
12976 E060            ADC 79     absolute,y   A:7F X:41 Y:0 P:5 SP:FB
12981 E063            BPL 10      immediate   A:FF X:41 Y:0 P:C4 SP:FB
12984 E065            BCS B0      immediate   A:FF X:41 Y:0 P:C4 SP:FB
12987 E067            CMP C9      immediate   A:FF X:41 Y:0 P:C4 SP:FB
12990 E069            BNE D0      immediate   A:FF X:41 Y:0 P:47 SP:FB
12993 E06B            BVS 70      immediate   A:FF X:41 Y:0 P:47 SP:FB
12996 E06F            INX E8        implied   A:FF X:41 Y:0 P:47 SP:FB
12999 E070            CLC 18        implied   A:FF X:42 Y:0 P:45 SP:FB
13002 E071            BIT 24       zeropage   A:FF X:42 Y:0 P:44 SP:FB
13006 E073            LDA A9      immediate   A:FF X:42 Y:0 P:C4 SP:FB
13009 E075            STA 8D       absolute   A:80 X:42 Y:0 P:C4 SP:FB
13014 E078            LDA A9      immediate   A:80 X:42 Y:0 P:C4 SP:FB
13017 E07A            ADC 79     absolute,y   A:7F X:42 Y:0 P:44 SP:FB
13022 E07D            BPL 10      immediate   A:FF X:42 Y:0 P:84 SP:FB
13025 E07F            BCS B0      immediate   A:FF X:42 Y:0 P:84 SP:FB
13028 E081            CMP C9      immediate   A:FF X:42 Y:0 P:84 SP:FB
13031 E083            BNE D0      immediate   A:FF X:42 Y:0 P:7 SP:FB
13034 E085            BVC 50      immediate   A:FF X:42 Y:0 P:7 SP:FB
13037 E089            INX E8        implied   A:FF X:42 Y:0 P:7 SP:FB
13040 E08A            SEC 38        implied   A:FF X:43 Y:0 P:5 SP:FB
13043 E08B            CLV B8        implied   A:FF X:43 Y:0 P:5 SP:FB
13046 E08C            LDA A9      immediate   A:FF X:43 Y:0 P:5 SP:FB
13049 E08E            STA 8D       absolute   A:80 X:43 Y:0 P:85 SP:FB
13054 E091            LDA A9      immediate   A:80 X:43 Y:0 P:85 SP:FB
13057 E093            ADC 79     absolute,y   A:7F X:43 Y:0 P:5 SP:FB
13062 E096            BNE D0      immediate   A:0 X:43 Y:0 P:7 SP:FB
13065 E098            BMI 30      immediate   A:0 X:43 Y:0 P:7 SP:FB
13068 E09A            BVS 70      immediate   A:0 X:43 Y:0 P:7 SP:FB
13071 E09C            BCS B0      immediate   A:0 X:43 Y:0 P:7 SP:FB
13074 E0A0            INX E8        implied   A:0 X:43 Y:0 P:7 SP:FB
13077 E0A1            BIT 24       zeropage   A:0 X:44 Y:0 P:5 SP:FB
13081 E0A3            LDA A9      immediate   A:0 X:44 Y:0 P:C7 SP:FB
13084 E0A5            STA 8D       absolute   A:40 X:44 Y:0 P:45 SP:FB
13089 E0A8            CMP D9     absolute,y   A:40 X:44 Y:0 P:45 SP:FB
13094 E0AB            BMI 30      immediate   A:40 X:44 Y:0 P:47 SP:FB
13097 E0AD            BCC 90      immediate   A:40 X:44 Y:0 P:47 SP:FB
13100 E0AF            BNE D0      immediate   A:40 X:44 Y:0 P:47 SP:FB
13103 E0B1            BVS 70      immediate   A:40 X:44 Y:0 P:47 SP:FB
13106 E0B5            INX E8        implied   A:40 X:44 Y:0 P:47 SP:FB
13109 E0B6            CLV B8        implied   A:40 X:45 Y:0 P:45 SP:FB
13112 E0B7            DEC CE       absolute   A:40 X:45 Y:0 P:5 SP:FB
13119 E0BA            CMP D9     absolute,y   A:40 X:45 Y:0 P:5 SP:FB
13124 E0BD            BEQ F0      immediate   A:40 X:45 Y:0 P:5 SP:FB
13127 E0BF            BMI 30      immediate   A:40 X:45 Y:0 P:5 SP:FB
13130 E0C1            BCC 90      immediate   A:40 X:45 Y:0 P:5 SP:FB
13133 E0C3            BVC 50      immediate   A:40 X:45 Y:0 P:5 SP:FB
13136 E0C7            INX E8        implied   A:40 X:45 Y:0 P:5 SP:FB
13139 E0C8            INC EE       absolute   A:40 X:46 Y:0 P:5 SP:FB
13146 E0CB            INC EE       absolute   A:40 X:46 Y:0 P:5 SP:FB
13153 E0CE            CMP D9     absolute,y   A:40 X:46 Y:0 P:5 SP:FB
13158 E0D1            BEQ F0      immediate   A:40 X:46 Y:0 P:84 SP:FB
13161 E0D3            BMI 30      immediate   A:40 X:46 Y:0 P:84 SP:FB
13164 E0D7            INX E8        implied   A:40 X:46 Y:0 P:84 SP:FB
13167 E0D8            LDA A9      immediate   A:40 X:47 Y:0 P:4 SP:FB
13170 E0DA            STA 8D       absolute   A:0 X:47 Y:0 P:6 SP:FB
13175 E0DD            LDA A9      immediate   A:0 X:47 Y:0 P:6 SP:FB
13178 E0DF            CMP D9     absolute,y   A:80 X:47 Y:0 P:84 SP:FB
13183 E0E2            BEQ F0      immediate   A:80 X:47 Y:0 P:85 SP:FB
13186 E0E4            BPL 10      immediate   A:80 X:47 Y:0 P:85 SP:FB
13189 E0E6            BCS B0      immediate   A:80 X:47 Y:0 P:85 SP:FB
13192 E0EA            INX E8        implied   A:80 X:47 Y:0 P:85 SP:FB
13195 E0EB            LDY A0      immediate   A:80 X:48 Y:0 P:5 SP:FB
13198 E0ED            STY 8C       absolute   A:80 X:48 Y:80 P:85 SP:FB
13203 E0F0            LDY A0      immediate   A:80 X:48 Y:80 P:85 SP:FB
13206 E0F2            CMP D9     absolute,y   A:80 X:48 Y:0 P:7 SP:FB
13211 E0F5            BNE D0      immediate   A:80 X:48 Y:0 P:7 SP:FB
13214 E0F7            BMI 30      immediate   A:80 X:48 Y:0 P:7 SP:FB
13217 E0F9            BCS B0      immediate   A:80 X:48 Y:0 P:7 SP:FB
13220 E0FD            INX E8        implied   A:80 X:48 Y:0 P:7 SP:FB
13223 E0FE            INC EE       absolute   A:80 X:49 Y:0 P:5 SP:FB
13230 E101            CMP D9     absolute,y   A:80 X:49 Y:0 P:85 SP:FB
13235 E104            BCS B0      immediate   A:80 X:49 Y:0 P:84 SP:FB
13238 E106            BEQ F0      immediate   A:80 X:49 Y:0 P:84 SP:FB
13241 E108            BMI 30      immediate   A:80 X:49 Y:0 P:84 SP:FB
13244 E10C            INX E8        implied   A:80 X:49 Y:0 P:84 SP:FB
13247 E10D            DEC CE       absolute   A:80 X:4A Y:0 P:4 SP:FB
13254 E110            DEC CE       absolute   A:80 X:4A Y:0 P:84 SP:FB
13261 E113            CMP D9     absolute,y   A:80 X:4A Y:0 P:4 SP:FB
13266 E116            BCC 90      immediate   A:80 X:4A Y:0 P:5 SP:FB
13269 E118            BEQ F0      immediate   A:80 X:4A Y:0 P:5 SP:FB
13272 E11A            BPL 10      immediate   A:80 X:4A Y:0 P:5 SP:FB
13275 E11E            INX E8        implied   A:80 X:4A Y:0 P:5 SP:FB
13278 E11F            BIT 24       zeropage   A:80 X:4B Y:0 P:5 SP:FB
13282 E121            LDA A9      immediate   A:80 X:4B Y:0 P:C5 SP:FB
13285 E123            STA 8D       absolute   A:40 X:4B Y:0 P:45 SP:FB
13290 E126            SEC 38        implied   A:40 X:4B Y:0 P:45 SP:FB
13293 E127            SBC F9     absolute,y   A:40 X:4B Y:0 P:45 SP:FB
13298 E12A            BMI 30      immediate   A:0 X:4B Y:0 P:7 SP:FB
13301 E12C            BCC 90      immediate   A:0 X:4B Y:0 P:7 SP:FB
13304 E12E            BNE D0      immediate   A:0 X:4B Y:0 P:7 SP:FB
13307 E130            BVS 70      immediate   A:0 X:4B Y:0 P:7 SP:FB
13310 E132            CMP C9      immediate   A:0 X:4B Y:0 P:7 SP:FB
13313 E134            BEQ F0      immediate   A:0 X:4B Y:0 P:7 SP:FB
13316 E138            INX E8        implied   A:0 X:4B Y:0 P:7 SP:FB
13319 E139            CLV B8        implied   A:0 X:4C Y:0 P:5 SP:FB
13322 E13A            SEC 38        implied   A:0 X:4C Y:0 P:5 SP:FB
13325 E13B            LDA A9      immediate   A:0 X:4C Y:0 P:5 SP:FB
13328 E13D            DEC CE       absolute   A:40 X:4C Y:0 P:5 SP:FB
13335 E140            SBC F9     absolute,y   A:40 X:4C Y:0 P:5 SP:FB
13340 E143            BEQ F0      immediate   A:1 X:4C Y:0 P:5 SP:FB
13343 E145            BMI 30      immediate   A:1 X:4C Y:0 P:5 SP:FB
13346 E147            BCC 90      immediate   A:1 X:4C Y:0 P:5 SP:FB
13349 E149            BVS 70      immediate   A:1 X:4C Y:0 P:5 SP:FB
13352 E14B            CMP C9      immediate   A:1 X:4C Y:0 P:5 SP:FB
13355 E14D            BEQ F0      immediate   A:1 X:4C Y:0 P:7 SP:FB
13358 E151            INX E8        implied   A:1 X:4C Y:0 P:7 SP:FB
13361 E152            LDA A9      immediate   A:1 X:4D Y:0 P:5 SP:FB
13364 E154            SEC 38        implied   A:40 X:4D Y:0 P:5 SP:FB
13367 E155            BIT 24       zeropage   A:40 X:4D Y:0 P:5 SP:FB
13371 E157            INC EE       absolute   A:40 X:4D Y:0 P:C5 SP:FB
13378 E15A            INC EE       absolute   A:40 X:4D Y:0 P:45 SP:FB
13385 E15D            SBC F9     absolute,y   A:40 X:4D Y:0 P:45 SP:FB
13390 E160            BCS B0      immediate   A:FF X:4D Y:0 P:84 SP:FB
13393 E162            BEQ F0      immediate   A:FF X:4D Y:0 P:84 SP:FB
13396 E164            BPL 10      immediate   A:FF X:4D Y:0 P:84 SP:FB
13399 E166            BVS 70      immediate   A:FF X:4D Y:0 P:84 SP:FB
13402 E168            CMP C9      immediate   A:FF X:4D Y:0 P:84 SP:FB
13405 E16A            BEQ F0      immediate   A:FF X:4D Y:0 P:7 SP:FB
13408 E16E            INX E8        implied   A:FF X:4D Y:0 P:7 SP:FB
13411 E16F            CLC 18        implied   A:FF X:4E Y:0 P:5 SP:FB
13414 E170            LDA A9      immediate   A:FF X:4E Y:0 P:4 SP:FB
13417 E172            STA 8D       absolute   A:0 X:4E Y:0 P:6 SP:FB
13422 E175            LDA A9      immediate   A:0 X:4E Y:0 P:6 SP:FB
13425 E177            SBC F9     absolute,y   A:80 X:4E Y:0 P:84 SP:FB
13430 E17A            BCC 90      immediate   A:7F X:4E Y:0 P:45 SP:FB
13433 E17C            CMP C9      immediate   A:7F X:4E Y:0 P:45 SP:FB
13436 E17E            BEQ F0      immediate   A:7F X:4E Y:0 P:47 SP:FB
13439 E182            INX E8        implied   A:7F X:4E Y:0 P:47 SP:FB
13442 E183            SEC 38        implied   A:7F X:4F Y:0 P:45 SP:FB
13445 E184            LDA A9      immediate   A:7F X:4F Y:0 P:45 SP:FB
13448 E186            STA 8D       absolute   A:7F X:4F Y:0 P:45 SP:FB
13453 E189            LDA A9      immediate   A:7F X:4F Y:0 P:45 SP:FB
13456 E18B            SBC F9     absolute,y   A:81 X:4F Y:0 P:C5 SP:FB
13461 E18E            BVC 50      immediate   A:2 X:4F Y:0 P:45 SP:FB
13464 E190            BCC 90      immediate   A:2 X:4F Y:0 P:45 SP:FB
13467 E192            CMP C9      immediate   A:2 X:4F Y:0 P:45 SP:FB
13470 E194            BEQ F0      immediate   A:2 X:4F Y:0 P:47 SP:FB
13473 E198            INX E8        implied   A:2 X:4F Y:0 P:47 SP:FB
13476 E199            LDA A9      immediate   A:2 X:50 Y:0 P:45 SP:FB
13479 E19B            LDA A9      immediate   A:0 X:50 Y:0 P:47 SP:FB
13482 E19D            STA 99     absolute,y   A:87 X:50 Y:0 P:C5 SP:FB
13488 E1A0            LDA AD       absolute   A:87 X:50 Y:0 P:C5 SP:FB
13493 E1A3            CMP C9      immediate   A:87 X:50 Y:0 P:C5 SP:FB
13496 E1A5            BEQ F0      immediate   A:87 X:50 Y:0 P:47 SP:FB
13499 E1A9            RTS 60        implied   A:87 X:50 Y:0 P:47 SP:FB
13506 C629            JSR 20       absolute   A:87 X:50 Y:0 P:47 SP:FD
13511 DBB8            LDA A9      immediate   A:87 X:50 Y:0 P:47 SP:FB
13514 DBBA            STA 85       zeropage   A:FF X:50 Y:0 P:C5 SP:FB
13518 DBBC            LDA A9      immediate   A:FF X:50 Y:0 P:C5 SP:FB
13521 DBBE            STA 85       zeropage   A:AA X:50 Y:0 P:C5 SP:FB
13525 DBC0            LDA A9      immediate   A:AA X:50 Y:0 P:C5 SP:FB
13528 DBC2            STA 85       zeropage   A:BB X:50 Y:0 P:C5 SP:FB
13532 DBC4            LDX A2      immediate   A:BB X:50 Y:0 P:C5 SP:FB
13535 DBC6            LDA A9      immediate   A:BB X:0 Y:0 P:47 SP:FB
13538 DBC8            BIT 24       zeropage   A:66 X:0 Y:0 P:45 SP:FB
13542 DBCA            SEC 38        implied   A:66 X:0 Y:0 P:C5 SP:FB
13545 DBCB            LDY A0      immediate   A:66 X:0 Y:0 P:C5 SP:FB
13548 DBCD            LDY B4     zeropage,x   A:66 X:0 Y:0 P:47 SP:FB
13553 DBCF            BPL 10      immediate   A:66 X:0 Y:AA P:C5 SP:FB
13556 DBD1            BEQ F0      immediate   A:66 X:0 Y:AA P:C5 SP:FB
13559 DBD3            BVC 50      immediate   A:66 X:0 Y:AA P:C5 SP:FB
13562 DBD5            BCC 90      immediate   A:66 X:0 Y:AA P:C5 SP:FB
13565 DBD7            CMP C9      immediate   A:66 X:0 Y:AA P:C5 SP:FB
13568 DBD9            BNE D0      immediate   A:66 X:0 Y:AA P:47 SP:FB
13571 DBDB            CPX E0      immediate   A:66 X:0 Y:AA P:47 SP:FB
13574 DBDD            BNE D0      immediate   A:66 X:0 Y:AA P:47 SP:FB
13577 DBDF            CPY C0      immediate   A:66 X:0 Y:AA P:47 SP:FB
13580 DBE1            BEQ F0      immediate   A:66 X:0 Y:AA P:47 SP:FB
13583 DBE7            LDX A2      immediate   A:66 X:0 Y:AA P:47 SP:FB
13586 DBE9            LDA A9      immediate   A:66 X:8A Y:AA P:C5 SP:FB
13589 DBEB            CLV B8        implied   A:66 X:8A Y:AA P:45 SP:FB
13592 DBEC            CLC 18        implied   A:66 X:8A Y:AA P:5 SP:FB
13595 DBED            LDY A0      immediate   A:66 X:8A Y:AA P:4 SP:FB
13598 DBEF            LDY B4     zeropage,x   A:66 X:8A Y:0 P:6 SP:FB
13603 DBF1            BPL 10      immediate   A:66 X:8A Y:BB P:84 SP:FB
13606 DBF3            BEQ F0      immediate   A:66 X:8A Y:BB P:84 SP:FB
13609 DBF5            BVS 70      immediate   A:66 X:8A Y:BB P:84 SP:FB
13612 DBF7            BCS B0      immediate   A:66 X:8A Y:BB P:84 SP:FB
13615 DBF9            CPY C0      immediate   A:66 X:8A Y:BB P:84 SP:FB
13618 DBFB            BNE D0      immediate   A:66 X:8A Y:BB P:7 SP:FB
13621 DBFD            CMP C9      immediate   A:66 X:8A Y:BB P:7 SP:FB
13624 DBFF            BNE D0      immediate   A:66 X:8A Y:BB P:7 SP:FB
13627 DC01            CPX E0      immediate   A:66 X:8A Y:BB P:7 SP:FB
13630 DC03            BEQ F0      immediate   A:66 X:8A Y:BB P:7 SP:FB
13633 DC09            BIT 24       zeropage   A:66 X:8A Y:BB P:7 SP:FB
13637 DC0B            SEC 38        implied   A:66 X:8A Y:BB P:C5 SP:FB
13640 DC0C            LDY A0      immediate   A:66 X:8A Y:BB P:C5 SP:FB
13643 DC0E            LDX A2      immediate   A:66 X:8A Y:44 P:45 SP:FB
13646 DC10            STY 94     zeropage,x   A:66 X:0 Y:44 P:47 SP:FB
13651 DC12            LDA A5       zeropage   A:66 X:0 Y:44 P:47 SP:FB
13655 DC14            BCC 90      immediate   A:44 X:0 Y:44 P:45 SP:FB
13658 DC16            CMP C9      immediate   A:44 X:0 Y:44 P:45 SP:FB
13661 DC18            BNE D0      immediate   A:44 X:0 Y:44 P:47 SP:FB
13664 DC1A            BVC 50      immediate   A:44 X:0 Y:44 P:47 SP:FB
13667 DC1C            CLC 18        implied   A:44 X:0 Y:44 P:47 SP:FB
13670 DC1D            CLV B8        implied   A:44 X:0 Y:44 P:46 SP:FB
13673 DC1E            LDY A0      immediate   A:44 X:0 Y:44 P:6 SP:FB
13676 DC20            LDX A2      immediate   A:44 X:0 Y:99 P:84 SP:FB
13679 DC22            STY 94     zeropage,x   A:44 X:80 Y:99 P:84 SP:FB
13684 DC24            LDA A5       zeropage   A:44 X:80 Y:99 P:84 SP:FB
13688 DC26            BCS B0      immediate   A:99 X:80 Y:99 P:84 SP:FB
13691 DC28            CMP C9      immediate   A:99 X:80 Y:99 P:84 SP:FB
13694 DC2A            BNE D0      immediate   A:99 X:80 Y:99 P:7 SP:FB
13697 DC2C            BVC 50      immediate   A:99 X:80 Y:99 P:7 SP:FB
13700 DC32            LDY A0      immediate   A:99 X:80 Y:99 P:7 SP:FB
13703 DC34            LDA A9      immediate   A:99 X:80 Y:B P:5 SP:FB
13706 DC36            LDX A2      immediate   A:AA X:80 Y:B P:85 SP:FB
13709 DC38            STA 85       zeropage   A:AA X:78 Y:B P:5 SP:FB
13713 DC3A            JSR 20       absolute   A:AA X:78 Y:B P:5 SP:FB
13718 F7B6            CLC 18        implied   A:AA X:78 Y:B P:5 SP:F9
13721 F7B7            LDA A9      immediate   A:AA X:78 Y:B P:4 SP:F9
13724 F7B9            STA 85       zeropage   A:FF X:78 Y:B P:84 SP:F9
13728 F7BB            BIT 24       zeropage   A:FF X:78 Y:B P:84 SP:F9
13732 F7BD            LDA A9      immediate   A:FF X:78 Y:B P:C4 SP:F9
13735 F7BF            RTS 60        implied   A:55 X:78 Y:B P:44 SP:F9
13742 DC3D            ORA 15     zeropage,x   A:55 X:78 Y:B P:44 SP:FB
13747 DC3F            JSR 20       absolute   A:FF X:78 Y:B P:C4 SP:FB
13752 F7C0            BCS B0      immediate   A:FF X:78 Y:B P:C4 SP:F9
13755 F7C2            BPL 10      immediate   A:FF X:78 Y:B P:C4 SP:F9
13758 F7C4            CMP C9      immediate   A:FF X:78 Y:B P:C4 SP:F9
13761 F7C6            BNE D0      immediate   A:FF X:78 Y:B P:47 SP:F9
13764 F7C8            BVC 50      immediate   A:FF X:78 Y:B P:47 SP:F9
13767 F7CA            RTS 60        implied   A:FF X:78 Y:B P:47 SP:F9
13774 DC42            INY C8        implied   A:FF X:78 Y:B P:47 SP:FB
13777 DC43            LDA A9      immediate   A:FF X:78 Y:C P:45 SP:FB
13780 DC45            STA 85       zeropage   A:0 X:78 Y:C P:47 SP:FB
13784 DC47            JSR 20       absolute   A:0 X:78 Y:C P:47 SP:FB
13789 F7CE            SEC 38        implied   A:0 X:78 Y:C P:47 SP:F9
13792 F7CF            CLV B8        implied   A:0 X:78 Y:C P:47 SP:F9
13795 F7D0            LDA A9      immediate   A:0 X:78 Y:C P:7 SP:F9
13798 F7D2            RTS 60        implied   A:0 X:78 Y:C P:7 SP:F9
13805 DC4A            ORA 15     zeropage,x   A:0 X:78 Y:C P:7 SP:FB
13810 DC4C            JSR 20       absolute   A:0 X:78 Y:C P:7 SP:FB
13815 F7D3            BNE D0      immediate   A:0 X:78 Y:C P:7 SP:F9
13818 F7D5            BVS 70      immediate   A:0 X:78 Y:C P:7 SP:F9
13821 F7D7            BCC 90      immediate   A:0 X:78 Y:C P:7 SP:F9
13824 F7D9            BMI 30      immediate   A:0 X:78 Y:C P:7 SP:F9
13827 F7DB            RTS 60        implied   A:0 X:78 Y:C P:7 SP:F9
13834 DC4F            INY C8        implied   A:0 X:78 Y:C P:7 SP:FB
13837 DC50            LDA A9      immediate   A:0 X:78 Y:D P:5 SP:FB
13840 DC52            STA 85       zeropage   A:AA X:78 Y:D P:85 SP:FB
13844 DC54            JSR 20       absolute   A:AA X:78 Y:D P:85 SP:FB
13849 F7DF            CLC 18        implied   A:AA X:78 Y:D P:85 SP:F9
13852 F7E0            BIT 24       zeropage   A:AA X:78 Y:D P:84 SP:F9
13856 F7E2            LDA A9      immediate   A:AA X:78 Y:D P:C4 SP:F9
13859 F7E4            RTS 60        implied   A:55 X:78 Y:D P:44 SP:F9
13866 DC57            AND 35     zeropage,x   A:55 X:78 Y:D P:44 SP:FB
13871 DC59            JSR 20       absolute   A:0 X:78 Y:D P:46 SP:FB
13876 F7E5            BNE D0      immediate   A:0 X:78 Y:D P:46 SP:F9
13879 F7E7            BVC 50      immediate   A:0 X:78 Y:D P:46 SP:F9
13882 F7E9            BCS B0      immediate   A:0 X:78 Y:D P:46 SP:F9
13885 F7EB            BMI 30      immediate   A:0 X:78 Y:D P:46 SP:F9
13888 F7ED            RTS 60        implied   A:0 X:78 Y:D P:46 SP:F9
13895 DC5C            INY C8        implied   A:0 X:78 Y:D P:46 SP:FB
13898 DC5D            LDA A9      immediate   A:0 X:78 Y:E P:44 SP:FB
13901 DC5F            STA 85       zeropage   A:EF X:78 Y:E P:C4 SP:FB
13905 DC61            JSR 20       absolute   A:EF X:78 Y:E P:C4 SP:FB
13910 F7F1            SEC 38        implied   A:EF X:78 Y:E P:C4 SP:F9
13913 F7F2            CLV B8        implied   A:EF X:78 Y:E P:C5 SP:F9
13916 F7F3            LDA A9      immediate   A:EF X:78 Y:E P:85 SP:F9
13919 F7F5            RTS 60        implied   A:F8 X:78 Y:E P:85 SP:F9
13926 DC64            AND 35     zeropage,x   A:F8 X:78 Y:E P:85 SP:FB
13931 DC66            JSR 20       absolute   A:E8 X:78 Y:E P:85 SP:FB
13936 F7F6            BCC 90      immediate   A:E8 X:78 Y:E P:85 SP:F9
13939 F7F8            BPL 10      immediate   A:E8 X:78 Y:E P:85 SP:F9
13942 F7FA            CMP C9      immediate   A:E8 X:78 Y:E P:85 SP:F9
13945 F7FC            BNE D0      immediate   A:E8 X:78 Y:E P:7 SP:F9
13948 F7FE            BVS 70      immediate   A:E8 X:78 Y:E P:7 SP:F9
13951 F800            RTS 60        implied   A:E8 X:78 Y:E P:7 SP:F9
13958 DC69            INY C8        implied   A:E8 X:78 Y:E P:7 SP:FB
13961 DC6A            LDA A9      immediate   A:E8 X:78 Y:F P:5 SP:FB
13964 DC6C            STA 85       zeropage   A:AA X:78 Y:F P:85 SP:FB
13968 DC6E            JSR 20       absolute   A:AA X:78 Y:F P:85 SP:FB
13973 F804            CLC 18        implied   A:AA X:78 Y:F P:85 SP:F9
13976 F805            BIT 24       zeropage   A:AA X:78 Y:F P:84 SP:F9
13980 F807            LDA A9      immediate   A:AA X:78 Y:F P:C4 SP:F9
13983 F809            RTS 60        implied   A:5F X:78 Y:F P:44 SP:F9
13990 DC71            EOR 55     zeropage,x   A:5F X:78 Y:F P:44 SP:FB
13995 DC73            JSR 20       absolute   A:F5 X:78 Y:F P:C4 SP:FB
14000 F80A            BCS B0      immediate   A:F5 X:78 Y:F P:C4 SP:F9
14003 F80C            BPL 10      immediate   A:F5 X:78 Y:F P:C4 SP:F9
14006 F80E            CMP C9      immediate   A:F5 X:78 Y:F P:C4 SP:F9
14009 F810            BNE D0      immediate   A:F5 X:78 Y:F P:47 SP:F9
14012 F812            BVC 50      immediate   A:F5 X:78 Y:F P:47 SP:F9
14015 F814            RTS 60        implied   A:F5 X:78 Y:F P:47 SP:F9
14022 DC76            INY C8        implied   A:F5 X:78 Y:F P:47 SP:FB
14025 DC77            LDA A9      immediate   A:F5 X:78 Y:10 P:45 SP:FB
14028 DC79            STA 85       zeropage   A:70 X:78 Y:10 P:45 SP:FB
14032 DC7B            JSR 20       absolute   A:70 X:78 Y:10 P:45 SP:FB
14037 F818            SEC 38        implied   A:70 X:78 Y:10 P:45 SP:F9
14040 F819            CLV B8        implied   A:70 X:78 Y:10 P:45 SP:F9
14043 F81A            LDA A9      immediate   A:70 X:78 Y:10 P:5 SP:F9
14046 F81C            RTS 60        implied   A:70 X:78 Y:10 P:5 SP:F9
14053 DC7E            EOR 55     zeropage,x   A:70 X:78 Y:10 P:5 SP:FB
14058 DC80            JSR 20       absolute   A:0 X:78 Y:10 P:7 SP:FB
14063 F81D            BNE D0      immediate   A:0 X:78 Y:10 P:7 SP:F9
14066 F81F            BVS 70      immediate   A:0 X:78 Y:10 P:7 SP:F9
14069 F821            BCC 90      immediate   A:0 X:78 Y:10 P:7 SP:F9
14072 F823            BMI 30      immediate   A:0 X:78 Y:10 P:7 SP:F9
14075 F825            RTS 60        implied   A:0 X:78 Y:10 P:7 SP:F9
14082 DC83            INY C8        implied   A:0 X:78 Y:10 P:7 SP:FB
14085 DC84            LDA A9      immediate   A:0 X:78 Y:11 P:5 SP:FB
14088 DC86            STA 85       zeropage   A:69 X:78 Y:11 P:5 SP:FB
14092 DC88            JSR 20       absolute   A:69 X:78 Y:11 P:5 SP:FB
14097 F829            CLC 18        implied   A:69 X:78 Y:11 P:5 SP:F9
14100 F82A            BIT 24       zeropage   A:69 X:78 Y:11 P:4 SP:F9
14104 F82C            LDA A9      immediate   A:69 X:78 Y:11 P:C4 SP:F9
14107 F82E            RTS 60        implied   A:0 X:78 Y:11 P:46 SP:F9
14114 DC8B            ADC 75     zeropage,x   A:0 X:78 Y:11 P:46 SP:FB
14119 DC8D            JSR 20       absolute   A:69 X:78 Y:11 P:4 SP:FB
14124 F82F            BMI 30      immediate   A:69 X:78 Y:11 P:4 SP:F9
14127 F831            BCS B0      immediate   A:69 X:78 Y:11 P:4 SP:F9
14130 F833            CMP C9      immediate   A:69 X:78 Y:11 P:4 SP:F9
14133 F835            BNE D0      immediate   A:69 X:78 Y:11 P:7 SP:F9
14136 F837            BVS 70      immediate   A:69 X:78 Y:11 P:7 SP:F9
14139 F839            RTS 60        implied   A:69 X:78 Y:11 P:7 SP:F9
14146 DC90            INY C8        implied   A:69 X:78 Y:11 P:7 SP:FB
14149 DC91            JSR 20       absolute   A:69 X:78 Y:12 P:5 SP:FB
14154 F83D            SEC 38        implied   A:69 X:78 Y:12 P:5 SP:F9
14157 F83E            BIT 24       zeropage   A:69 X:78 Y:12 P:5 SP:F9
14161 F840            LDA A9      immediate   A:69 X:78 Y:12 P:C5 SP:F9
14164 F842            RTS 60        implied   A:0 X:78 Y:12 P:47 SP:F9
14171 DC94            ADC 75     zeropage,x   A:0 X:78 Y:12 P:47 SP:FB
14176 DC96            JSR 20       absolute   A:6A X:78 Y:12 P:4 SP:FB
14181 F843            BMI 30      immediate   A:6A X:78 Y:12 P:4 SP:F9
14184 F845            BCS B0      immediate   A:6A X:78 Y:12 P:4 SP:F9
14187 F847            CMP C9      immediate   A:6A X:78 Y:12 P:4 SP:F9
14190 F849            BNE D0      immediate   A:6A X:78 Y:12 P:7 SP:F9
14193 F84B            BVS 70      immediate   A:6A X:78 Y:12 P:7 SP:F9
14196 F84D            RTS 60        implied   A:6A X:78 Y:12 P:7 SP:F9
14203 DC99            INY C8        implied   A:6A X:78 Y:12 P:7 SP:FB
14206 DC9A            LDA A9      immediate   A:6A X:78 Y:13 P:5 SP:FB
14209 DC9C            STA 85       zeropage   A:7F X:78 Y:13 P:5 SP:FB
14213 DC9E            JSR 20       absolute   A:7F X:78 Y:13 P:5 SP:FB
14218 F851            SEC 38        implied   A:7F X:78 Y:13 P:5 SP:F9
14221 F852            CLV B8        implied   A:7F X:78 Y:13 P:5 SP:F9
14224 F853            LDA A9      immediate   A:7F X:78 Y:13 P:5 SP:F9
14227 F855            RTS 60        implied   A:7F X:78 Y:13 P:5 SP:F9
14234 DCA1            ADC 75     zeropage,x   A:7F X:78 Y:13 P:5 SP:FB
14239 DCA3            JSR 20       absolute   A:FF X:78 Y:13 P:C4 SP:FB
14244 F856            BPL 10      immediate   A:FF X:78 Y:13 P:C4 SP:F9
14247 F858            BCS B0      immediate   A:FF X:78 Y:13 P:C4 SP:F9
14250 F85A            CMP C9      immediate   A:FF X:78 Y:13 P:C4 SP:F9
14253 F85C            BNE D0      immediate   A:FF X:78 Y:13 P:47 SP:F9
14256 F85E            BVC 50      immediate   A:FF X:78 Y:13 P:47 SP:F9
14259 F860            RTS 60        implied   A:FF X:78 Y:13 P:47 SP:F9
14266 DCA6            INY C8        implied   A:FF X:78 Y:13 P:47 SP:FB
14269 DCA7            LDA A9      immediate   A:FF X:78 Y:14 P:45 SP:FB
14272 DCA9            STA 85       zeropage   A:80 X:78 Y:14 P:C5 SP:FB
14276 DCAB            JSR 20       absolute   A:80 X:78 Y:14 P:C5 SP:FB
14281 F864            CLC 18        implied   A:80 X:78 Y:14 P:C5 SP:F9
14284 F865            BIT 24       zeropage   A:80 X:78 Y:14 P:C4 SP:F9
14288 F867            LDA A9      immediate   A:80 X:78 Y:14 P:C4 SP:F9
14291 F869            RTS 60        implied   A:7F X:78 Y:14 P:44 SP:F9
14298 DCAE            ADC 75     zeropage,x   A:7F X:78 Y:14 P:44 SP:FB
14303 DCB0            JSR 20       absolute   A:FF X:78 Y:14 P:84 SP:FB
14308 F86A            BPL 10      immediate   A:FF X:78 Y:14 P:84 SP:F9
14311 F86C            BCS B0      immediate   A:FF X:78 Y:14 P:84 SP:F9
14314 F86E            CMP C9      immediate   A:FF X:78 Y:14 P:84 SP:F9
14317 F870            BNE D0      immediate   A:FF X:78 Y:14 P:7 SP:F9
14320 F872            BVS 70      immediate   A:FF X:78 Y:14 P:7 SP:F9
14323 F874            RTS 60        implied   A:FF X:78 Y:14 P:7 SP:F9
14330 DCB3            INY C8        implied   A:FF X:78 Y:14 P:7 SP:FB
14333 DCB4            JSR 20       absolute   A:FF X:78 Y:15 P:5 SP:FB
14338 F878            SEC 38        implied   A:FF X:78 Y:15 P:5 SP:F9
14341 F879            CLV B8        implied   A:FF X:78 Y:15 P:5 SP:F9
14344 F87A            LDA A9      immediate   A:FF X:78 Y:15 P:5 SP:F9
14347 F87C            RTS 60        implied   A:7F X:78 Y:15 P:5 SP:F9
14354 DCB7            ADC 75     zeropage,x   A:7F X:78 Y:15 P:5 SP:FB
14359 DCB9            JSR 20       absolute   A:0 X:78 Y:15 P:7 SP:FB
14364 F87D            BNE D0      immediate   A:0 X:78 Y:15 P:7 SP:F9
14367 F87F            BMI 30      immediate   A:0 X:78 Y:15 P:7 SP:F9
14370 F881            BVS 70      immediate   A:0 X:78 Y:15 P:7 SP:F9
14373 F883            BCC 90      immediate   A:0 X:78 Y:15 P:7 SP:F9
14376 F885            RTS 60        implied   A:0 X:78 Y:15 P:7 SP:F9
14383 DCBC            INY C8        implied   A:0 X:78 Y:15 P:7 SP:FB
14386 DCBD            LDA A9      immediate   A:0 X:78 Y:16 P:5 SP:FB
14389 DCBF            STA 85       zeropage   A:40 X:78 Y:16 P:5 SP:FB
14393 DCC1            JSR 20       absolute   A:40 X:78 Y:16 P:5 SP:FB
14398 F889            BIT 24       zeropage   A:40 X:78 Y:16 P:5 SP:F9
14402 F88B            LDA A9      immediate   A:40 X:78 Y:16 P:C5 SP:F9
14405 F88D            RTS 60        implied   A:40 X:78 Y:16 P:45 SP:F9
14412 DCC4            CMP D5     zeropage,x   A:40 X:78 Y:16 P:45 SP:FB
14417 DCC6            JSR 20       absolute   A:40 X:78 Y:16 P:47 SP:FB
14422 F88E            BMI 30      immediate   A:40 X:78 Y:16 P:47 SP:F9
14425 F890            BCC 90      immediate   A:40 X:78 Y:16 P:47 SP:F9
14428 F892            BNE D0      immediate   A:40 X:78 Y:16 P:47 SP:F9
14431 F894            BVC 50      immediate   A:40 X:78 Y:16 P:47 SP:F9
14434 F896            RTS 60        implied   A:40 X:78 Y:16 P:47 SP:F9
14441 DCC9            INY C8        implied   A:40 X:78 Y:16 P:47 SP:FB
14444 DCCA            PHA 48        implied   A:40 X:78 Y:17 P:45 SP:FB
14448 DCCB            LDA A9      immediate   A:40 X:78 Y:17 P:45 SP:FA
14451 DCCD            STA 85       zeropage   A:3F X:78 Y:17 P:45 SP:FA
14455 DCCF            PLA 68        implied   A:3F X:78 Y:17 P:45 SP:FA
14460 DCD0            JSR 20       absolute   A:40 X:78 Y:17 P:45 SP:FB
14465 F89A            CLV B8        implied   A:40 X:78 Y:17 P:45 SP:F9
14468 F89B            RTS 60        implied   A:40 X:78 Y:17 P:5 SP:F9
14475 DCD3            CMP D5     zeropage,x   A:40 X:78 Y:17 P:5 SP:FB
14480 DCD5            JSR 20       absolute   A:40 X:78 Y:17 P:5 SP:FB
14485 F89C            BEQ F0      immediate   A:40 X:78 Y:17 P:5 SP:F9
14488 F89E            BMI 30      immediate   A:40 X:78 Y:17 P:5 SP:F9
14491 F8A0            BCC 90      immediate   A:40 X:78 Y:17 P:5 SP:F9
14494 F8A2            BVS 70      immediate   A:40 X:78 Y:17 P:5 SP:F9
14497 F8A4            RTS 60        implied   A:40 X:78 Y:17 P:5 SP:F9
14504 DCD8            INY C8        implied   A:40 X:78 Y:17 P:5 SP:FB
14507 DCD9            PHA 48        implied   A:40 X:78 Y:18 P:5 SP:FB
14511 DCDA            LDA A9      immediate   A:40 X:78 Y:18 P:5 SP:FA
14514 DCDC            STA 85       zeropage   A:41 X:78 Y:18 P:5 SP:FA
14518 DCDE            PLA 68        implied   A:41 X:78 Y:18 P:5 SP:FA
14523 DCDF            CMP D5     zeropage,x   A:40 X:78 Y:18 P:5 SP:FB
14528 DCE1            JSR 20       absolute   A:40 X:78 Y:18 P:84 SP:FB
14533 F8A8            BEQ F0      immediate   A:40 X:78 Y:18 P:84 SP:F9
14536 F8AA            BPL 10      immediate   A:40 X:78 Y:18 P:84 SP:F9
14539 F8AC            BPL 10      immediate   A:40 X:78 Y:18 P:84 SP:F9
14542 F8AE            RTS 60        implied   A:40 X:78 Y:18 P:84 SP:F9
14549 DCE4            INY C8        implied   A:40 X:78 Y:18 P:84 SP:FB
14552 DCE5            PHA 48        implied   A:40 X:78 Y:19 P:4 SP:FB
14556 DCE6            LDA A9      immediate   A:40 X:78 Y:19 P:4 SP:FA
14559 DCE8            STA 85       zeropage   A:0 X:78 Y:19 P:6 SP:FA
14563 DCEA            PLA 68        implied   A:0 X:78 Y:19 P:6 SP:FA
14568 DCEB            JSR 20       absolute   A:40 X:78 Y:19 P:4 SP:FB
14573 F8B2            LDA A9      immediate   A:40 X:78 Y:19 P:4 SP:F9
14576 F8B4            RTS 60        implied   A:80 X:78 Y:19 P:84 SP:F9
14583 DCEE            CMP D5     zeropage,x   A:80 X:78 Y:19 P:84 SP:FB
14588 DCF0            JSR 20       absolute   A:80 X:78 Y:19 P:85 SP:FB
14593 F8B5            BEQ F0      immediate   A:80 X:78 Y:19 P:85 SP:F9
14596 F8B7            BPL 10      immediate   A:80 X:78 Y:19 P:85 SP:F9
14599 F8B9            BCC 90      immediate   A:80 X:78 Y:19 P:85 SP:F9
14602 F8BB            RTS 60        implied   A:80 X:78 Y:19 P:85 SP:F9
14609 DCF3            INY C8        implied   A:80 X:78 Y:19 P:85 SP:FB
14612 DCF4            PHA 48        implied   A:80 X:78 Y:1A P:5 SP:FB
14616 DCF5            LDA A9      immediate   A:80 X:78 Y:1A P:5 SP:FA
14619 DCF7            STA 85       zeropage   A:80 X:78 Y:1A P:85 SP:FA
14623 DCF9            PLA 68        implied   A:80 X:78 Y:1A P:85 SP:FA
14628 DCFA            CMP D5     zeropage,x   A:80 X:78 Y:1A P:85 SP:FB
14633 DCFC            JSR 20       absolute   A:80 X:78 Y:1A P:7 SP:FB
14638 F8BF            BNE D0      immediate   A:80 X:78 Y:1A P:7 SP:F9
14641 F8C1            BMI 30      immediate   A:80 X:78 Y:1A P:7 SP:F9
14644 F8C3            BCC 90      immediate   A:80 X:78 Y:1A P:7 SP:F9
14647 F8C5            RTS 60        implied   A:80 X:78 Y:1A P:7 SP:F9
14654 DCFF            INY C8        implied   A:80 X:78 Y:1A P:7 SP:FB
14657 DD00            PHA 48        implied   A:80 X:78 Y:1B P:5 SP:FB
14661 DD01            LDA A9      immediate   A:80 X:78 Y:1B P:5 SP:FA
14664 DD03            STA 85       zeropage   A:81 X:78 Y:1B P:85 SP:FA
14668 DD05            PLA 68        implied   A:81 X:78 Y:1B P:85 SP:FA
14673 DD06            CMP D5     zeropage,x   A:80 X:78 Y:1B P:85 SP:FB
14678 DD08            JSR 20       absolute   A:80 X:78 Y:1B P:84 SP:FB
14683 F8C9            BCS B0      immediate   A:80 X:78 Y:1B P:84 SP:F9
14686 F8CB            BEQ F0      immediate   A:80 X:78 Y:1B P:84 SP:F9
14689 F8CD            BPL 10      immediate   A:80 X:78 Y:1B P:84 SP:F9
14692 F8CF            RTS 60        implied   A:80 X:78 Y:1B P:84 SP:F9
14699 DD0B            INY C8        implied   A:80 X:78 Y:1B P:84 SP:FB
14702 DD0C            PHA 48        implied   A:80 X:78 Y:1C P:4 SP:FB
14706 DD0D            LDA A9      immediate   A:80 X:78 Y:1C P:4 SP:FA
14709 DD0F            STA 85       zeropage   A:7F X:78 Y:1C P:4 SP:FA
14713 DD11            PLA 68        implied   A:7F X:78 Y:1C P:4 SP:FA
14718 DD12            CMP D5     zeropage,x   A:80 X:78 Y:1C P:84 SP:FB
14723 DD14            JSR 20       absolute   A:80 X:78 Y:1C P:5 SP:FB
14728 F8D3            BCC 90      immediate   A:80 X:78 Y:1C P:5 SP:F9
14731 F8D5            BEQ F0      immediate   A:80 X:78 Y:1C P:5 SP:F9
14734 F8D7            BMI 30      immediate   A:80 X:78 Y:1C P:5 SP:F9
14737 F8D9            RTS 60        implied   A:80 X:78 Y:1C P:5 SP:F9
14744 DD17            INY C8        implied   A:80 X:78 Y:1C P:5 SP:FB
14747 DD18            LDA A9      immediate   A:80 X:78 Y:1D P:5 SP:FB
14750 DD1A            STA 85       zeropage   A:40 X:78 Y:1D P:5 SP:FB
14754 DD1C            JSR 20       absolute   A:40 X:78 Y:1D P:5 SP:FB
14759 F931            BIT 24       zeropage   A:40 X:78 Y:1D P:5 SP:F9
14763 F933            LDA A9      immediate   A:40 X:78 Y:1D P:C5 SP:F9
14766 F935            SEC 38        implied   A:40 X:78 Y:1D P:45 SP:F9
14769 F936            RTS 60        implied   A:40 X:78 Y:1D P:45 SP:F9
14776 DD1F            SBC F5     zeropage,x   A:40 X:78 Y:1D P:45 SP:FB
14781 DD21            JSR 20       absolute   A:0 X:78 Y:1D P:7 SP:FB
14786 F937            BMI 30      immediate   A:0 X:78 Y:1D P:7 SP:F9
14789 F939            BCC 90      immediate   A:0 X:78 Y:1D P:7 SP:F9
14792 F93B            BNE D0      immediate   A:0 X:78 Y:1D P:7 SP:F9
14795 F93D            BVS 70      immediate   A:0 X:78 Y:1D P:7 SP:F9
14798 F93F            CMP C9      immediate   A:0 X:78 Y:1D P:7 SP:F9
14801 F941            BNE D0      immediate   A:0 X:78 Y:1D P:7 SP:F9
14804 F943            RTS 60        implied   A:0 X:78 Y:1D P:7 SP:F9
14811 DD24            INY C8        implied   A:0 X:78 Y:1D P:7 SP:FB
14814 DD25            LDA A9      immediate   A:0 X:78 Y:1E P:5 SP:FB
14817 DD27            STA 85       zeropage   A:3F X:78 Y:1E P:5 SP:FB
14821 DD29            JSR 20       absolute   A:3F X:78 Y:1E P:5 SP:FB
14826 F947            CLV B8        implied   A:3F X:78 Y:1E P:5 SP:F9
14829 F948            SEC 38        implied   A:3F X:78 Y:1E P:5 SP:F9
14832 F949            LDA A9      immediate   A:3F X:78 Y:1E P:5 SP:F9
14835 F94B            RTS 60        implied   A:40 X:78 Y:1E P:5 SP:F9
14842 DD2C            SBC F5     zeropage,x   A:40 X:78 Y:1E P:5 SP:FB
14847 DD2E            JSR 20       absolute   A:1 X:78 Y:1E P:5 SP:FB
14852 F94C            BEQ F0      immediate   A:1 X:78 Y:1E P:5 SP:F9
14855 F94E            BMI 30      immediate   A:1 X:78 Y:1E P:5 SP:F9
14858 F950            BCC 90      immediate   A:1 X:78 Y:1E P:5 SP:F9
14861 F952            BVS 70      immediate   A:1 X:78 Y:1E P:5 SP:F9
14864 F954            CMP C9      immediate   A:1 X:78 Y:1E P:5 SP:F9
14867 F956            BNE D0      immediate   A:1 X:78 Y:1E P:7 SP:F9
14870 F958            RTS 60        implied   A:1 X:78 Y:1E P:7 SP:F9
14877 DD31            INY C8        implied   A:1 X:78 Y:1E P:7 SP:FB
14880 DD32            LDA A9      immediate   A:1 X:78 Y:1F P:5 SP:FB
14883 DD34            STA 85       zeropage   A:41 X:78 Y:1F P:5 SP:FB
14887 DD36            JSR 20       absolute   A:41 X:78 Y:1F P:5 SP:FB
14892 F95C            LDA A9      immediate   A:41 X:78 Y:1F P:5 SP:F9
14895 F95E            SEC 38        implied   A:40 X:78 Y:1F P:5 SP:F9
14898 F95F            BIT 24       zeropage   A:40 X:78 Y:1F P:5 SP:F9
14902 F961            RTS 60        implied   A:40 X:78 Y:1F P:C5 SP:F9
14909 DD39            SBC F5     zeropage,x   A:40 X:78 Y:1F P:C5 SP:FB
14914 DD3B            JSR 20       absolute   A:FF X:78 Y:1F P:84 SP:FB
14919 F962            BCS B0      immediate   A:FF X:78 Y:1F P:84 SP:F9
14922 F964            BEQ F0      immediate   A:FF X:78 Y:1F P:84 SP:F9
14925 F966            BPL 10      immediate   A:FF X:78 Y:1F P:84 SP:F9
14928 F968            BVS 70      immediate   A:FF X:78 Y:1F P:84 SP:F9
14931 F96A            CMP C9      immediate   A:FF X:78 Y:1F P:84 SP:F9
14934 F96C            BNE D0      immediate   A:FF X:78 Y:1F P:7 SP:F9
14937 F96E            RTS 60        implied   A:FF X:78 Y:1F P:7 SP:F9
14944 DD3E            INY C8        implied   A:FF X:78 Y:1F P:7 SP:FB
14947 DD3F            LDA A9      immediate   A:FF X:78 Y:20 P:5 SP:FB
14950 DD41            STA 85       zeropage   A:0 X:78 Y:20 P:7 SP:FB
14954 DD43            JSR 20       absolute   A:0 X:78 Y:20 P:7 SP:FB
14959 F972            CLC 18        implied   A:0 X:78 Y:20 P:7 SP:F9
14962 F973            LDA A9      immediate   A:0 X:78 Y:20 P:6 SP:F9
14965 F975            RTS 60        implied   A:80 X:78 Y:20 P:84 SP:F9
14972 DD46            SBC F5     zeropage,x   A:80 X:78 Y:20 P:84 SP:FB
14977 DD48            JSR 20       absolute   A:7F X:78 Y:20 P:45 SP:FB
14982 F976            BCC 90      immediate   A:7F X:78 Y:20 P:45 SP:F9
14985 F978            CMP C9      immediate   A:7F X:78 Y:20 P:45 SP:F9
14988 F97A            BNE D0      immediate   A:7F X:78 Y:20 P:47 SP:F9
14991 F97C            RTS 60        implied   A:7F X:78 Y:20 P:47 SP:F9
14998 DD4B            INY C8        implied   A:7F X:78 Y:20 P:47 SP:FB
15001 DD4C            LDA A9      immediate   A:7F X:78 Y:21 P:45 SP:FB
15004 DD4E            STA 85       zeropage   A:7F X:78 Y:21 P:45 SP:FB
15008 DD50            JSR 20       absolute   A:7F X:78 Y:21 P:45 SP:FB
15013 F980            SEC 38        implied   A:7F X:78 Y:21 P:45 SP:F9
15016 F981            LDA A9      immediate   A:7F X:78 Y:21 P:45 SP:F9
15019 F983            RTS 60        implied   A:81 X:78 Y:21 P:C5 SP:F9
15026 DD53            SBC F5     zeropage,x   A:81 X:78 Y:21 P:C5 SP:FB
15031 DD55            JSR 20       absolute   A:2 X:78 Y:21 P:45 SP:FB
15036 F984            BVC 50      immediate   A:2 X:78 Y:21 P:45 SP:F9
15039 F986            BCC 90      immediate   A:2 X:78 Y:21 P:45 SP:F9
15042 F988            CMP C9      immediate   A:2 X:78 Y:21 P:45 SP:F9
15045 F98A            BNE D0      immediate   A:2 X:78 Y:21 P:47 SP:F9
15048 F98C            RTS 60        implied   A:2 X:78 Y:21 P:47 SP:F9
15055 DD58            LDA A9      immediate   A:2 X:78 Y:21 P:47 SP:FB
15058 DD5A            STA 85       zeropage   A:AA X:78 Y:21 P:C5 SP:FB
15062 DD5C            LDA A9      immediate   A:AA X:78 Y:21 P:C5 SP:FB
15065 DD5E            STA 85       zeropage   A:BB X:78 Y:21 P:C5 SP:FB
15069 DD60            LDX A2      immediate   A:BB X:78 Y:21 P:C5 SP:FB
15072 DD62            LDY A0      immediate   A:BB X:0 Y:21 P:47 SP:FB
15075 DD64            BIT 24       zeropage   A:BB X:0 Y:66 P:45 SP:FB
15079 DD66            SEC 38        implied   A:BB X:0 Y:66 P:C5 SP:FB
15082 DD67            LDA A9      immediate   A:BB X:0 Y:66 P:C5 SP:FB
15085 DD69            LDA B5     zeropage,x   A:0 X:0 Y:66 P:47 SP:FB
15090 DD6B            BPL 10      immediate   A:AA X:0 Y:66 P:C5 SP:FB
15093 DD6D            BEQ F0      immediate   A:AA X:0 Y:66 P:C5 SP:FB
15096 DD6F            BVC 50      immediate   A:AA X:0 Y:66 P:C5 SP:FB
15099 DD71            BCC 90      immediate   A:AA X:0 Y:66 P:C5 SP:FB
15102 DD73            CPY C0      immediate   A:AA X:0 Y:66 P:C5 SP:FB
15105 DD75            BNE D0      immediate   A:AA X:0 Y:66 P:47 SP:FB
15108 DD77            CPX E0      immediate   A:AA X:0 Y:66 P:47 SP:FB
15111 DD79            BNE D0      immediate   A:AA X:0 Y:66 P:47 SP:FB
15114 DD7B            CMP C9      immediate   A:AA X:0 Y:66 P:47 SP:FB
15117 DD7D            BEQ F0      immediate   A:AA X:0 Y:66 P:47 SP:FB
15120 DD83            LDX A2      immediate   A:AA X:0 Y:66 P:47 SP:FB
15123 DD85            LDY A0      immediate   A:AA X:8A Y:66 P:C5 SP:FB
15126 DD87            CLV B8        implied   A:AA X:8A Y:66 P:45 SP:FB
15129 DD88            CLC 18        implied   A:AA X:8A Y:66 P:5 SP:FB
15132 DD89            LDA A9      immediate   A:AA X:8A Y:66 P:4 SP:FB
15135 DD8B            LDA B5     zeropage,x   A:0 X:8A Y:66 P:6 SP:FB
15140 DD8D            BPL 10      immediate   A:BB X:8A Y:66 P:84 SP:FB
15143 DD8F            BEQ F0      immediate   A:BB X:8A Y:66 P:84 SP:FB
15146 DD91            BVS 70      immediate   A:BB X:8A Y:66 P:84 SP:FB
15149 DD93            BCS B0      immediate   A:BB X:8A Y:66 P:84 SP:FB
15152 DD95            CMP C9      immediate   A:BB X:8A Y:66 P:84 SP:FB
15155 DD97            BNE D0      immediate   A:BB X:8A Y:66 P:7 SP:FB
15158 DD99            CPY C0      immediate   A:BB X:8A Y:66 P:7 SP:FB
15161 DD9B            BNE D0      immediate   A:BB X:8A Y:66 P:7 SP:FB
15164 DD9D            CPX E0      immediate   A:BB X:8A Y:66 P:7 SP:FB
15167 DD9F            BEQ F0      immediate   A:BB X:8A Y:66 P:7 SP:FB
15170 DDA5            BIT 24       zeropage   A:BB X:8A Y:66 P:7 SP:FB
15174 DDA7            SEC 38        implied   A:BB X:8A Y:66 P:C5 SP:FB
15177 DDA8            LDA A9      immediate   A:BB X:8A Y:66 P:C5 SP:FB
15180 DDAA            LDX A2      immediate   A:44 X:8A Y:66 P:45 SP:FB
15183 DDAC            STA 95     zeropage,x   A:44 X:0 Y:66 P:47 SP:FB
15188 DDAE            LDA A5       zeropage   A:44 X:0 Y:66 P:47 SP:FB
15192 DDB0            BCC 90      immediate   A:44 X:0 Y:66 P:45 SP:FB
15195 DDB2            CMP C9      immediate   A:44 X:0 Y:66 P:45 SP:FB
15198 DDB4            BNE D0      immediate   A:44 X:0 Y:66 P:47 SP:FB
15201 DDB6            BVC 50      immediate   A:44 X:0 Y:66 P:47 SP:FB
15204 DDB8            CLC 18        implied   A:44 X:0 Y:66 P:47 SP:FB
15207 DDB9            CLV B8        implied   A:44 X:0 Y:66 P:46 SP:FB
15210 DDBA            LDA A9      immediate   A:44 X:0 Y:66 P:6 SP:FB
15213 DDBC            LDX A2      immediate   A:99 X:0 Y:66 P:84 SP:FB
15216 DDBE            STA 95     zeropage,x   A:99 X:80 Y:66 P:84 SP:FB
15221 DDC0            LDA A5       zeropage   A:99 X:80 Y:66 P:84 SP:FB
15225 DDC2            BCS B0      immediate   A:99 X:80 Y:66 P:84 SP:FB
15228 DDC4            CMP C9      immediate   A:99 X:80 Y:66 P:84 SP:FB
15231 DDC6            BNE D0      immediate   A:99 X:80 Y:66 P:7 SP:FB
15234 DDC8            BVC 50      immediate   A:99 X:80 Y:66 P:7 SP:FB
15237 DDCE            LDY A0      immediate   A:99 X:80 Y:66 P:7 SP:FB
15240 DDD0            LDX A2      immediate   A:99 X:80 Y:25 P:5 SP:FB
15243 DDD2            JSR 20       absolute   A:99 X:78 Y:25 P:5 SP:FB
15248 F990            LDX A2      immediate   A:99 X:78 Y:25 P:5 SP:F9
15251 F992            LDA A9      immediate   A:99 X:55 Y:25 P:5 SP:F9
15254 F994            STA 85       zeropage   A:FF X:55 Y:25 P:85 SP:F9
15258 F996            NOP EA        implied   A:FF X:55 Y:25 P:85 SP:F9
15261 F997            BIT 24       zeropage   A:FF X:55 Y:25 P:85 SP:F9
15265 F999            SEC 38        implied   A:FF X:55 Y:25 P:C5 SP:F9
15268 F99A            LDA A9      immediate   A:FF X:55 Y:25 P:C5 SP:F9
15271 F99C            RTS 60        implied   A:1 X:55 Y:25 P:45 SP:F9
15278 DDD5            STA 95     zeropage,x   A:1 X:55 Y:25 P:45 SP:FB
15283 DDD7            LSR 56     zeropage,x   A:1 X:55 Y:25 P:45 SP:FB
15290 DDD9            LDA B5     zeropage,x   A:1 X:55 Y:25 P:47 SP:FB
15295 DDDB            JSR 20       absolute   A:0 X:55 Y:25 P:47 SP:FB
15300 F99D            BCC 90      immediate   A:0 X:55 Y:25 P:47 SP:F9
15303 F99F            BNE D0      immediate   A:0 X:55 Y:25 P:47 SP:F9
15306 F9A1            BMI 30      immediate   A:0 X:55 Y:25 P:47 SP:F9
15309 F9A3            BVC 50      immediate   A:0 X:55 Y:25 P:47 SP:F9
15312 F9A5            CMP C9      immediate   A:0 X:55 Y:25 P:47 SP:F9
15315 F9A7            BNE D0      immediate   A:0 X:55 Y:25 P:47 SP:F9
15318 F9A9            CLV B8        implied   A:0 X:55 Y:25 P:47 SP:F9
15321 F9AA            LDA A9      immediate   A:0 X:55 Y:25 P:7 SP:F9
15324 F9AC            RTS 60        implied   A:AA X:55 Y:25 P:85 SP:F9
15331 DDDE            INY C8        implied   A:AA X:55 Y:25 P:85 SP:FB
15334 DDDF            STA 95     zeropage,x   A:AA X:55 Y:26 P:5 SP:FB
15339 DDE1            LSR 56     zeropage,x   A:AA X:55 Y:26 P:5 SP:FB
15346 DDE3            LDA B5     zeropage,x   A:AA X:55 Y:26 P:4 SP:FB
15351 DDE5            JSR 20       absolute   A:55 X:55 Y:26 P:4 SP:FB
15356 F9AD            BCS B0      immediate   A:55 X:55 Y:26 P:4 SP:F9
15359 F9AF            BEQ F0      immediate   A:55 X:55 Y:26 P:4 SP:F9
15362 F9B1            BMI 30      immediate   A:55 X:55 Y:26 P:4 SP:F9
15365 F9B3            BVS 70      immediate   A:55 X:55 Y:26 P:4 SP:F9
15368 F9B5            CMP C9      immediate   A:55 X:55 Y:26 P:4 SP:F9
15371 F9B7            BNE D0      immediate   A:55 X:55 Y:26 P:7 SP:F9
15374 F9B9            RTS 60        implied   A:55 X:55 Y:26 P:7 SP:F9
15381 DDE8            INY C8        implied   A:55 X:55 Y:26 P:7 SP:FB
15384 DDE9            JSR 20       absolute   A:55 X:55 Y:27 P:5 SP:FB
15389 F9BD            BIT 24       zeropage   A:55 X:55 Y:27 P:5 SP:F9
15393 F9BF            SEC 38        implied   A:55 X:55 Y:27 P:C5 SP:F9
15396 F9C0            LDA A9      immediate   A:55 X:55 Y:27 P:C5 SP:F9
15399 F9C2            RTS 60        implied   A:80 X:55 Y:27 P:C5 SP:F9
15406 DDEC            STA 95     zeropage,x   A:80 X:55 Y:27 P:C5 SP:FB
15411 DDEE            ASL 16     zeropage,x   A:80 X:55 Y:27 P:C5 SP:FB
15418 DDF0            LDA B5     zeropage,x   A:80 X:55 Y:27 P:47 SP:FB
15423 DDF2            JSR 20       absolute   A:0 X:55 Y:27 P:47 SP:FB
15428 F9C3            BCC 90      immediate   A:0 X:55 Y:27 P:47 SP:F9
15431 F9C5            BNE D0      immediate   A:0 X:55 Y:27 P:47 SP:F9
15434 F9C7            BMI 30      immediate   A:0 X:55 Y:27 P:47 SP:F9
15437 F9C9            BVC 50      immediate   A:0 X:55 Y:27 P:47 SP:F9
15440 F9CB            CMP C9      immediate   A:0 X:55 Y:27 P:47 SP:F9
15443 F9CD            BNE D0      immediate   A:0 X:55 Y:27 P:47 SP:F9
15446 F9CF            CLV B8        implied   A:0 X:55 Y:27 P:47 SP:F9
15449 F9D0            LDA A9      immediate   A:0 X:55 Y:27 P:7 SP:F9
15452 F9D2            SEC 38        implied   A:55 X:55 Y:27 P:5 SP:F9
15455 F9D3            RTS 60        implied   A:55 X:55 Y:27 P:5 SP:F9
15462 DDF5            INY C8        implied   A:55 X:55 Y:27 P:5 SP:FB
15465 DDF6            STA 95     zeropage,x   A:55 X:55 Y:28 P:5 SP:FB
15470 DDF8            ASL 16     zeropage,x   A:55 X:55 Y:28 P:5 SP:FB
15477 DDFA            LDA B5     zeropage,x   A:55 X:55 Y:28 P:84 SP:FB
15482 DDFC            JSR 20       absolute   A:AA X:55 Y:28 P:84 SP:FB
15487 F9D4            BCS B0      immediate   A:AA X:55 Y:28 P:84 SP:F9
15490 F9D6            BEQ F0      immediate   A:AA X:55 Y:28 P:84 SP:F9
15493 F9D8            BPL 10      immediate   A:AA X:55 Y:28 P:84 SP:F9
15496 F9DA            BVS 70      immediate   A:AA X:55 Y:28 P:84 SP:F9
15499 F9DC            CMP C9      immediate   A:AA X:55 Y:28 P:84 SP:F9
15502 F9DE            BNE D0      immediate   A:AA X:55 Y:28 P:7 SP:F9
15505 F9E0            RTS 60        implied   A:AA X:55 Y:28 P:7 SP:F9
15512 DDFF            INY C8        implied   A:AA X:55 Y:28 P:7 SP:FB
15515 DE00            JSR 20       absolute   A:AA X:55 Y:29 P:5 SP:FB
15520 F9E4            BIT 24       zeropage   A:AA X:55 Y:29 P:5 SP:F9
15524 F9E6            SEC 38        implied   A:AA X:55 Y:29 P:C5 SP:F9
15527 F9E7            LDA A9      immediate   A:AA X:55 Y:29 P:C5 SP:F9
15530 F9E9            RTS 60        implied   A:1 X:55 Y:29 P:45 SP:F9
15537 DE03            STA 95     zeropage,x   A:1 X:55 Y:29 P:45 SP:FB
15542 DE05            ROR 76     zeropage,x   A:1 X:55 Y:29 P:45 SP:FB
15549 DE07            LDA B5     zeropage,x   A:1 X:55 Y:29 P:47 SP:FB
15554 DE09            JSR 20       absolute   A:80 X:55 Y:29 P:C5 SP:FB
15559 F9EA            BCC 90      immediate   A:80 X:55 Y:29 P:C5 SP:F9
15562 F9EC            BEQ F0      immediate   A:80 X:55 Y:29 P:C5 SP:F9
15565 F9EE            BPL 10      immediate   A:80 X:55 Y:29 P:C5 SP:F9
15568 F9F0            BVC 50      immediate   A:80 X:55 Y:29 P:C5 SP:F9
15571 F9F2            CMP C9      immediate   A:80 X:55 Y:29 P:C5 SP:F9
15574 F9F4            BNE D0      immediate   A:80 X:55 Y:29 P:47 SP:F9
15577 F9F6            CLV B8        implied   A:80 X:55 Y:29 P:47 SP:F9
15580 F9F7            CLC 18        implied   A:80 X:55 Y:29 P:7 SP:F9
15583 F9F8            LDA A9      immediate   A:80 X:55 Y:29 P:6 SP:F9
15586 F9FA            RTS 60        implied   A:55 X:55 Y:29 P:4 SP:F9
15593 DE0C            INY C8        implied   A:55 X:55 Y:29 P:4 SP:FB
15596 DE0D            STA 95     zeropage,x   A:55 X:55 Y:2A P:4 SP:FB
15601 DE0F            ROR 76     zeropage,x   A:55 X:55 Y:2A P:4 SP:FB
15608 DE11            LDA B5     zeropage,x   A:55 X:55 Y:2A P:5 SP:FB
15613 DE13            JSR 20       absolute   A:2A X:55 Y:2A P:5 SP:FB
15618 F9FB            BCC 90      immediate   A:2A X:55 Y:2A P:5 SP:F9
15621 F9FD            BEQ F0      immediate   A:2A X:55 Y:2A P:5 SP:F9
15624 F9FF            BMI 30      immediate   A:2A X:55 Y:2A P:5 SP:F9
15627 FA01            BVS 70      immediate   A:2A X:55 Y:2A P:5 SP:F9
15630 FA03            CMP C9      immediate   A:2A X:55 Y:2A P:5 SP:F9
15633 FA05            BNE D0      immediate   A:2A X:55 Y:2A P:7 SP:F9
15636 FA07            RTS 60        implied   A:2A X:55 Y:2A P:7 SP:F9
15643 DE16            INY C8        implied   A:2A X:55 Y:2A P:7 SP:FB
15646 DE17            JSR 20       absolute   A:2A X:55 Y:2B P:5 SP:FB
15651 FA0A            BIT 24       zeropage   A:2A X:55 Y:2B P:5 SP:F9
15655 FA0C            SEC 38        implied   A:2A X:55 Y:2B P:C5 SP:F9
15658 FA0D            LDA A9      immediate   A:2A X:55 Y:2B P:C5 SP:F9
15661 FA0F            RTS 60        implied   A:80 X:55 Y:2B P:C5 SP:F9
15668 DE1A            STA 95     zeropage,x   A:80 X:55 Y:2B P:C5 SP:FB
15673 DE1C            ROL 36     zeropage,x   A:80 X:55 Y:2B P:C5 SP:FB
15680 DE1E            LDA B5     zeropage,x   A:80 X:55 Y:2B P:47 SP:FB
15685 DE20            JSR 20       absolute   A:1 X:55 Y:2B P:45 SP:FB
15690 FA10            BCC 90      immediate   A:1 X:55 Y:2B P:45 SP:F9
15693 FA12            BEQ F0      immediate   A:1 X:55 Y:2B P:45 SP:F9
15696 FA14            BMI 30      immediate   A:1 X:55 Y:2B P:45 SP:F9
15699 FA16            BVC 50      immediate   A:1 X:55 Y:2B P:45 SP:F9
15702 FA18            CMP C9      immediate   A:1 X:55 Y:2B P:45 SP:F9
15705 FA1A            BNE D0      immediate   A:1 X:55 Y:2B P:47 SP:F9
15708 FA1C            CLV B8        implied   A:1 X:55 Y:2B P:47 SP:F9
15711 FA1D            CLC 18        implied   A:1 X:55 Y:2B P:7 SP:F9
15714 FA1E            LDA A9      immediate   A:1 X:55 Y:2B P:6 SP:F9
15717 FA20            RTS 60        implied   A:55 X:55 Y:2B P:4 SP:F9
15724 DE23            INY C8        implied   A:55 X:55 Y:2B P:4 SP:FB
15727 DE24            STA 95     zeropage,x   A:55 X:55 Y:2C P:4 SP:FB
15732 DE26            ROL 36     zeropage,x   A:55 X:55 Y:2C P:4 SP:FB
15739 DE28            LDA B5     zeropage,x   A:55 X:55 Y:2C P:84 SP:FB
15744 DE2A            JSR 20       absolute   A:AA X:55 Y:2C P:84 SP:FB
15749 FA21            BCS B0      immediate   A:AA X:55 Y:2C P:84 SP:F9
15752 FA23            BEQ F0      immediate   A:AA X:55 Y:2C P:84 SP:F9
15755 FA25            BPL 10      immediate   A:AA X:55 Y:2C P:84 SP:F9
15758 FA27            BVS 70      immediate   A:AA X:55 Y:2C P:84 SP:F9
15761 FA29            CMP C9      immediate   A:AA X:55 Y:2C P:84 SP:F9
15764 FA2B            BNE D0      immediate   A:AA X:55 Y:2C P:7 SP:F9
15767 FA2D            RTS 60        implied   A:AA X:55 Y:2C P:7 SP:F9
15774 DE2D            LDA A9      immediate   A:AA X:55 Y:2C P:7 SP:FB
15777 DE2F            STA 95     zeropage,x   A:FF X:55 Y:2C P:85 SP:FB
15782 DE31            STA 85       zeropage   A:FF X:55 Y:2C P:85 SP:FB
15786 DE33            BIT 24       zeropage   A:FF X:55 Y:2C P:85 SP:FB
15790 DE35            SEC 38        implied   A:FF X:55 Y:2C P:C5 SP:FB
15793 DE36            INC F6     zeropage,x   A:FF X:55 Y:2C P:C5 SP:FB
15800 DE38            BNE D0      immediate   A:FF X:55 Y:2C P:47 SP:FB
15803 DE3A            BMI 30      immediate   A:FF X:55 Y:2C P:47 SP:FB
15806 DE3C            BVC 50      immediate   A:FF X:55 Y:2C P:47 SP:FB
15809 DE3E            BCC 90      immediate   A:FF X:55 Y:2C P:47 SP:FB
15812 DE40            LDA B5     zeropage,x   A:FF X:55 Y:2C P:47 SP:FB
15817 DE42            CMP C9      immediate   A:0 X:55 Y:2C P:47 SP:FB
15820 DE44            BEQ F0      immediate   A:0 X:55 Y:2C P:47 SP:FB
15823 DE4A            LDA A9      immediate   A:0 X:55 Y:2C P:47 SP:FB
15826 DE4C            STA 95     zeropage,x   A:7F X:55 Y:2C P:45 SP:FB
15831 DE4E            CLV B8        implied   A:7F X:55 Y:2C P:45 SP:FB
15834 DE4F            CLC 18        implied   A:7F X:55 Y:2C P:5 SP:FB
15837 DE50            INC F6     zeropage,x   A:7F X:55 Y:2C P:4 SP:FB
15844 DE52            BEQ F0      immediate   A:7F X:55 Y:2C P:84 SP:FB
15847 DE54            BPL 10      immediate   A:7F X:55 Y:2C P:84 SP:FB
15850 DE56            BVS 70      immediate   A:7F X:55 Y:2C P:84 SP:FB
15853 DE58            BCS B0      immediate   A:7F X:55 Y:2C P:84 SP:FB
15856 DE5A            LDA B5     zeropage,x   A:7F X:55 Y:2C P:84 SP:FB
15861 DE5C            CMP C9      immediate   A:80 X:55 Y:2C P:84 SP:FB
15864 DE5E            BEQ F0      immediate   A:80 X:55 Y:2C P:7 SP:FB
15867 DE64            LDA A9      immediate   A:80 X:55 Y:2C P:7 SP:FB
15870 DE66            STA 95     zeropage,x   A:0 X:55 Y:2C P:7 SP:FB
15875 DE68            BIT 24       zeropage   A:0 X:55 Y:2C P:7 SP:FB
15879 DE6A            SEC 38        implied   A:0 X:55 Y:2C P:C7 SP:FB
15882 DE6B            DEC D6     zeropage,x   A:0 X:55 Y:2C P:C7 SP:FB
15889 DE6D            BEQ F0      immediate   A:0 X:55 Y:2C P:C5 SP:FB
15892 DE6F            BPL 10      immediate   A:0 X:55 Y:2C P:C5 SP:FB
15895 DE71            BVC 50      immediate   A:0 X:55 Y:2C P:C5 SP:FB
15898 DE73            BCC 90      immediate   A:0 X:55 Y:2C P:C5 SP:FB
15901 DE75            LDA B5     zeropage,x   A:0 X:55 Y:2C P:C5 SP:FB
15906 DE77            CMP C9      immediate   A:FF X:55 Y:2C P:C5 SP:FB
15909 DE79            BEQ F0      immediate   A:FF X:55 Y:2C P:47 SP:FB
15912 DE7F            LDA A9      immediate   A:FF X:55 Y:2C P:47 SP:FB
15915 DE81            STA 95     zeropage,x   A:80 X:55 Y:2C P:C5 SP:FB
15920 DE83            CLV B8        implied   A:80 X:55 Y:2C P:C5 SP:FB
15923 DE84            CLC 18        implied   A:80 X:55 Y:2C P:85 SP:FB
15926 DE85            DEC D6     zeropage,x   A:80 X:55 Y:2C P:84 SP:FB
15933 DE87            BEQ F0      immediate   A:80 X:55 Y:2C P:4 SP:FB
15936 DE89            BMI 30      immediate   A:80 X:55 Y:2C P:4 SP:FB
15939 DE8B            BVS 70      immediate   A:80 X:55 Y:2C P:4 SP:FB
15942 DE8D            BCS B0      immediate   A:80 X:55 Y:2C P:4 SP:FB
15945 DE8F            LDA B5     zeropage,x   A:80 X:55 Y:2C P:4 SP:FB
15950 DE91            CMP C9      immediate   A:7F X:55 Y:2C P:4 SP:FB
15953 DE93            BEQ F0      immediate   A:7F X:55 Y:2C P:7 SP:FB
15956 DE99            LDA A9      immediate   A:7F X:55 Y:2C P:7 SP:FB
15959 DE9B            STA 95     zeropage,x   A:1 X:55 Y:2C P:5 SP:FB
15964 DE9D            DEC D6     zeropage,x   A:1 X:55 Y:2C P:5 SP:FB
15971 DE9F            BEQ F0      immediate   A:1 X:55 Y:2C P:7 SP:FB
15974 DEA5            LDA A9      immediate   A:1 X:55 Y:2C P:7 SP:FB
15977 DEA7            STA 85       zeropage   A:33 X:55 Y:2C P:5 SP:FB
15981 DEA9            LDA A9      immediate   A:33 X:55 Y:2C P:5 SP:FB
15984 DEAB            LDY A0      immediate   A:44 X:55 Y:2C P:5 SP:FB
15987 DEAD            LDX A2      immediate   A:44 X:55 Y:78 P:5 SP:FB
15990 DEAF            SEC 38        implied   A:44 X:0 Y:78 P:7 SP:FB
15993 DEB0            BIT 24       zeropage   A:44 X:0 Y:78 P:7 SP:FB
15997 DEB2            LDX B6     zeropage,y   A:44 X:0 Y:78 P:C5 SP:FB
16002 DEB4            BCC 90      immediate   A:44 X:33 Y:78 P:45 SP:FB
16005 DEB6            BVC 50      immediate   A:44 X:33 Y:78 P:45 SP:FB
16008 DEB8            BMI 30      immediate   A:44 X:33 Y:78 P:45 SP:FB
16011 DEBA            BEQ F0      immediate   A:44 X:33 Y:78 P:45 SP:FB
16014 DEBC            CPX E0      immediate   A:44 X:33 Y:78 P:45 SP:FB
16017 DEBE            BNE D0      immediate   A:44 X:33 Y:78 P:47 SP:FB
16020 DEC0            CPY C0      immediate   A:44 X:33 Y:78 P:47 SP:FB
16023 DEC2            BNE D0      immediate   A:44 X:33 Y:78 P:47 SP:FB
16026 DEC4            CMP C9      immediate   A:44 X:33 Y:78 P:47 SP:FB
16029 DEC6            BEQ F0      immediate   A:44 X:33 Y:78 P:47 SP:FB
16032 DECC            LDA A9      immediate   A:44 X:33 Y:78 P:47 SP:FB
16035 DECE            STA 85       zeropage   A:97 X:33 Y:78 P:C5 SP:FB
16039 DED0            LDA A9      immediate   A:97 X:33 Y:78 P:C5 SP:FB
16042 DED2            LDY A0      immediate   A:47 X:33 Y:78 P:45 SP:FB
16045 DED4            LDX A2      immediate   A:47 X:33 Y:FF P:C5 SP:FB
16048 DED6            CLC 18        implied   A:47 X:0 Y:FF P:47 SP:FB
16051 DED7            CLV B8        implied   A:47 X:0 Y:FF P:46 SP:FB
16054 DED8            LDX B6     zeropage,y   A:47 X:0 Y:FF P:6 SP:FB
16059 DEDA            BCS B0      immediate   A:47 X:97 Y:FF P:84 SP:FB
16062 DEDC            BVS 70      immediate   A:47 X:97 Y:FF P:84 SP:FB
16065 DEDE            BPL 10      immediate   A:47 X:97 Y:FF P:84 SP:FB
16068 DEE0            BEQ F0      immediate   A:47 X:97 Y:FF P:84 SP:FB
16071 DEE2            CPX E0      immediate   A:47 X:97 Y:FF P:84 SP:FB
16074 DEE4            BNE D0      immediate   A:47 X:97 Y:FF P:7 SP:FB
16077 DEE6            CPY C0      immediate   A:47 X:97 Y:FF P:7 SP:FB
16080 DEE8            BNE D0      immediate   A:47 X:97 Y:FF P:7 SP:FB
16083 DEEA            CMP C9      immediate   A:47 X:97 Y:FF P:7 SP:FB
16086 DEEC            BEQ F0      immediate   A:47 X:97 Y:FF P:7 SP:FB
16089 DEF2            LDA A9      immediate   A:47 X:97 Y:FF P:7 SP:FB
16092 DEF4            STA 85       zeropage   A:0 X:97 Y:FF P:7 SP:FB
16096 DEF6            LDA A9      immediate   A:0 X:97 Y:FF P:7 SP:FB
16099 DEF8            LDY A0      immediate   A:47 X:97 Y:FF P:5 SP:FB
16102 DEFA            LDX A2      immediate   A:47 X:97 Y:FF P:85 SP:FB
16105 DEFC            CLC 18        implied   A:47 X:69 Y:FF P:5 SP:FB
16108 DEFD            CLV B8        implied   A:47 X:69 Y:FF P:4 SP:FB
16111 DEFE            STX 96     zeropage,y   A:47 X:69 Y:FF P:4 SP:FB
16116 DF00            BCS B0      immediate   A:47 X:69 Y:FF P:4 SP:FB
16119 DF02            BVS 70      immediate   A:47 X:69 Y:FF P:4 SP:FB
16122 DF04            BMI 30      immediate   A:47 X:69 Y:FF P:4 SP:FB
16125 DF06            BEQ F0      immediate   A:47 X:69 Y:FF P:4 SP:FB
16128 DF08            CPX E0      immediate   A:47 X:69 Y:FF P:4 SP:FB
16131 DF0A            BNE D0      immediate   A:47 X:69 Y:FF P:7 SP:FB
16134 DF0C            CPY C0      immediate   A:47 X:69 Y:FF P:7 SP:FB
16137 DF0E            BNE D0      immediate   A:47 X:69 Y:FF P:7 SP:FB
16140 DF10            CMP C9      immediate   A:47 X:69 Y:FF P:7 SP:FB
16143 DF12            BNE D0      immediate   A:47 X:69 Y:FF P:7 SP:FB
16146 DF14            LDA A5       zeropage   A:47 X:69 Y:FF P:7 SP:FB
16150 DF16            CMP C9      immediate   A:69 X:69 Y:FF P:5 SP:FB
16153 DF18            BEQ F0      immediate   A:69 X:69 Y:FF P:7 SP:FB
16156 DF1E            LDA A9      immediate   A:69 X:69 Y:FF P:7 SP:FB
16159 DF20            STA 85       zeropage   A:F5 X:69 Y:FF P:85 SP:FB
16163 DF22            LDA A9      immediate   A:F5 X:69 Y:FF P:85 SP:FB
16166 DF24            LDY A0      immediate   A:47 X:69 Y:FF P:5 SP:FB
16169 DF26            BIT 24       zeropage   A:47 X:69 Y:4F P:5 SP:FB
16173 DF28            LDX A2      immediate   A:47 X:69 Y:4F P:C5 SP:FB
16176 DF2A            SEC 38        implied   A:47 X:0 Y:4F P:47 SP:FB
16179 DF2B            STX 96     zeropage,y   A:47 X:0 Y:4F P:47 SP:FB
16184 DF2D            BCC 90      immediate   A:47 X:0 Y:4F P:47 SP:FB
16187 DF2F            BVC 50      immediate   A:47 X:0 Y:4F P:47 SP:FB
16190 DF31            BMI 30      immediate   A:47 X:0 Y:4F P:47 SP:FB
16193 DF33            BNE D0      immediate   A:47 X:0 Y:4F P:47 SP:FB
16196 DF35            CPX E0      immediate   A:47 X:0 Y:4F P:47 SP:FB
16199 DF37            BNE D0      immediate   A:47 X:0 Y:4F P:47 SP:FB
16202 DF39            CPY C0      immediate   A:47 X:0 Y:4F P:47 SP:FB
16205 DF3B            BNE D0      immediate   A:47 X:0 Y:4F P:47 SP:FB
16208 DF3D            CMP C9      immediate   A:47 X:0 Y:4F P:47 SP:FB
16211 DF3F            BNE D0      immediate   A:47 X:0 Y:4F P:47 SP:FB
16214 DF41            LDA A5       zeropage   A:47 X:0 Y:4F P:47 SP:FB
16218 DF43            BEQ F0      immediate   A:0 X:0 Y:4F P:47 SP:FB
16221 DF49            RTS 60        implied   A:0 X:0 Y:4F P:47 SP:FB
16228 C62C            JSR 20       absolute   A:0 X:0 Y:4F P:47 SP:FD
16233 E1AA            LDA A9      immediate   A:0 X:0 Y:4F P:47 SP:FB
16236 E1AC            STA 85       zeropage   A:FF X:0 Y:4F P:C5 SP:FB
16240 E1AE            LDA A9      immediate   A:FF X:0 Y:4F P:C5 SP:FB
16243 E1B0            STA 8D       absolute   A:AA X:0 Y:4F P:C5 SP:FB
16248 E1B3            LDA A9      immediate   A:AA X:0 Y:4F P:C5 SP:FB
16251 E1B5            STA 8D       absolute   A:BB X:0 Y:4F P:C5 SP:FB
16256 E1B8            LDX A2      immediate   A:BB X:0 Y:4F P:C5 SP:FB
16259 E1BA            LDA A9      immediate   A:BB X:0 Y:4F P:47 SP:FB
16262 E1BC            BIT 24       zeropage   A:66 X:0 Y:4F P:45 SP:FB
16266 E1BE            SEC 38        implied   A:66 X:0 Y:4F P:C5 SP:FB
16269 E1BF            LDY A0      immediate   A:66 X:0 Y:4F P:C5 SP:FB
16272 E1C1            LDY BC     absolute,x   A:66 X:0 Y:0 P:47 SP:FB
16277 E1C4            BPL 10      immediate   A:66 X:0 Y:AA P:C5 SP:FB
16280 E1C6            BEQ F0      immediate   A:66 X:0 Y:AA P:C5 SP:FB
16283 E1C8            BVC 50      immediate   A:66 X:0 Y:AA P:C5 SP:FB
16286 E1CA            BCC 90      immediate   A:66 X:0 Y:AA P:C5 SP:FB
16289 E1CC            CMP C9      immediate   A:66 X:0 Y:AA P:C5 SP:FB
16292 E1CE            BNE D0      immediate   A:66 X:0 Y:AA P:47 SP:FB
16295 E1D0            CPX E0      immediate   A:66 X:0 Y:AA P:47 SP:FB
16298 E1D2            BNE D0      immediate   A:66 X:0 Y:AA P:47 SP:FB
16301 E1D4            CPY C0      immediate   A:66 X:0 Y:AA P:47 SP:FB
16304 E1D6            BEQ F0      immediate   A:66 X:0 Y:AA P:47 SP:FB
16307 E1DC            LDX A2      immediate   A:66 X:0 Y:AA P:47 SP:FB
16310 E1DE            LDA A9      immediate   A:66 X:8A Y:AA P:C5 SP:FB
16313 E1E0            CLV B8        implied   A:66 X:8A Y:AA P:45 SP:FB
16316 E1E1            CLC 18        implied   A:66 X:8A Y:AA P:5 SP:FB
16319 E1E2            LDY A0      immediate   A:66 X:8A Y:AA P:4 SP:FB
16322 E1E4            LDY BC     absolute,x   A:66 X:8A Y:0 P:6 SP:FB
16327 E1E7            BPL 10      immediate   A:66 X:8A Y:BB P:84 SP:FB
16330 E1E9            BEQ F0      immediate   A:66 X:8A Y:BB P:84 SP:FB
16333 E1EB            BVS 70      immediate   A:66 X:8A Y:BB P:84 SP:FB
16336 E1ED            BCS B0      immediate   A:66 X:8A Y:BB P:84 SP:FB
16339 E1EF            CPY C0      immediate   A:66 X:8A Y:BB P:84 SP:FB
16342 E1F1            BNE D0      immediate   A:66 X:8A Y:BB P:7 SP:FB
16345 E1F3            CMP C9      immediate   A:66 X:8A Y:BB P:7 SP:FB
16348 E1F5            BNE D0      immediate   A:66 X:8A Y:BB P:7 SP:FB
16351 E1F7            CPX E0      immediate   A:66 X:8A Y:BB P:7 SP:FB
16354 E1F9            BEQ F0      immediate   A:66 X:8A Y:BB P:7 SP:FB
16357 E1FF            LDY A0      immediate   A:66 X:8A Y:BB P:7 SP:FB
16360 E201            LDA A9      immediate   A:66 X:8A Y:53 P:5 SP:FB
16363 E203            LDX A2      immediate   A:AA X:8A Y:53 P:85 SP:FB
16366 E205            STA 8D       absolute   A:AA X:78 Y:53 P:5 SP:FB
16371 E208            JSR 20       absolute   A:AA X:78 Y:53 P:5 SP:FB
16376 F7B6            CLC 18        implied   A:AA X:78 Y:53 P:5 SP:F9
16379 F7B7            LDA A9      immediate   A:AA X:78 Y:53 P:4 SP:F9
16382 F7B9            STA 85       zeropage   A:FF X:78 Y:53 P:84 SP:F9
16386 F7BB            BIT 24       zeropage   A:FF X:78 Y:53 P:84 SP:F9
16390 F7BD            LDA A9      immediate   A:FF X:78 Y:53 P:C4 SP:F9
16393 F7BF            RTS 60        implied   A:55 X:78 Y:53 P:44 SP:F9
16400 E20B            ORA 1D     absolute,x   A:55 X:78 Y:53 P:44 SP:FB
16405 E20E            JSR 20       absolute   A:FF X:78 Y:53 P:C4 SP:FB
16410 F7C0            BCS B0      immediate   A:FF X:78 Y:53 P:C4 SP:F9
16413 F7C2            BPL 10      immediate   A:FF X:78 Y:53 P:C4 SP:F9
16416 F7C4            CMP C9      immediate   A:FF X:78 Y:53 P:C4 SP:F9
16419 F7C6            BNE D0      immediate   A:FF X:78 Y:53 P:47 SP:F9
16422 F7C8            BVC 50      immediate   A:FF X:78 Y:53 P:47 SP:F9
16425 F7CA            RTS 60        implied   A:FF X:78 Y:53 P:47 SP:F9
16432 E211            INY C8        implied   A:FF X:78 Y:53 P:47 SP:FB
16435 E212            LDA A9      immediate   A:FF X:78 Y:54 P:45 SP:FB
16438 E214            STA 8D       absolute   A:0 X:78 Y:54 P:47 SP:FB
16443 E217            JSR 20       absolute   A:0 X:78 Y:54 P:47 SP:FB
16448 F7CE            SEC 38        implied   A:0 X:78 Y:54 P:47 SP:F9
16451 F7CF            CLV B8        implied   A:0 X:78 Y:54 P:47 SP:F9
16454 F7D0            LDA A9      immediate   A:0 X:78 Y:54 P:7 SP:F9
16457 F7D2            RTS 60        implied   A:0 X:78 Y:54 P:7 SP:F9
16464 E21A            ORA 1D     absolute,x   A:0 X:78 Y:54 P:7 SP:FB
16469 E21D            JSR 20       absolute   A:0 X:78 Y:54 P:7 SP:FB
16474 F7D3            BNE D0      immediate   A:0 X:78 Y:54 P:7 SP:F9
16477 F7D5            BVS 70      immediate   A:0 X:78 Y:54 P:7 SP:F9
16480 F7D7            BCC 90      immediate   A:0 X:78 Y:54 P:7 SP:F9
16483 F7D9            BMI 30      immediate   A:0 X:78 Y:54 P:7 SP:F9
16486 F7DB            RTS 60        implied   A:0 X:78 Y:54 P:7 SP:F9
16493 E220            INY C8        implied   A:0 X:78 Y:54 P:7 SP:FB
16496 E221            LDA A9      immediate   A:0 X:78 Y:55 P:5 SP:FB
16499 E223            STA 8D       absolute   A:AA X:78 Y:55 P:85 SP:FB
16504 E226            JSR 20       absolute   A:AA X:78 Y:55 P:85 SP:FB
16509 F7DF            CLC 18        implied   A:AA X:78 Y:55 P:85 SP:F9
16512 F7E0            BIT 24       zeropage   A:AA X:78 Y:55 P:84 SP:F9
16516 F7E2            LDA A9      immediate   A:AA X:78 Y:55 P:C4 SP:F9
16519 F7E4            RTS 60        implied   A:55 X:78 Y:55 P:44 SP:F9
16526 E229            AND 3D     absolute,x   A:55 X:78 Y:55 P:44 SP:FB
16531 E22C            JSR 20       absolute   A:0 X:78 Y:55 P:46 SP:FB
16536 F7E5            BNE D0      immediate   A:0 X:78 Y:55 P:46 SP:F9
16539 F7E7            BVC 50      immediate   A:0 X:78 Y:55 P:46 SP:F9
16542 F7E9            BCS B0      immediate   A:0 X:78 Y:55 P:46 SP:F9
16545 F7EB            BMI 30      immediate   A:0 X:78 Y:55 P:46 SP:F9
16548 F7ED            RTS 60        implied   A:0 X:78 Y:55 P:46 SP:F9
16555 E22F            INY C8        implied   A:0 X:78 Y:55 P:46 SP:FB
16558 E230            LDA A9      immediate   A:0 X:78 Y:56 P:44 SP:FB
16561 E232            STA 8D       absolute   A:EF X:78 Y:56 P:C4 SP:FB
16566 E235            JSR 20       absolute   A:EF X:78 Y:56 P:C4 SP:FB
16571 F7F1            SEC 38        implied   A:EF X:78 Y:56 P:C4 SP:F9
16574 F7F2            CLV B8        implied   A:EF X:78 Y:56 P:C5 SP:F9
16577 F7F3            LDA A9      immediate   A:EF X:78 Y:56 P:85 SP:F9
16580 F7F5            RTS 60        implied   A:F8 X:78 Y:56 P:85 SP:F9
16587 E238            AND 3D     absolute,x   A:F8 X:78 Y:56 P:85 SP:FB
16592 E23B            JSR 20       absolute   A:E8 X:78 Y:56 P:85 SP:FB
16597 F7F6            BCC 90      immediate   A:E8 X:78 Y:56 P:85 SP:F9
16600 F7F8            BPL 10      immediate   A:E8 X:78 Y:56 P:85 SP:F9
16603 F7FA            CMP C9      immediate   A:E8 X:78 Y:56 P:85 SP:F9
16606 F7FC            BNE D0      immediate   A:E8 X:78 Y:56 P:7 SP:F9
16609 F7FE            BVS 70      immediate   A:E8 X:78 Y:56 P:7 SP:F9
16612 F800            RTS 60        implied   A:E8 X:78 Y:56 P:7 SP:F9
16619 E23E            INY C8        implied   A:E8 X:78 Y:56 P:7 SP:FB
16622 E23F            LDA A9      immediate   A:E8 X:78 Y:57 P:5 SP:FB
16625 E241            STA 8D       absolute   A:AA X:78 Y:57 P:85 SP:FB
16630 E244            JSR 20       absolute   A:AA X:78 Y:57 P:85 SP:FB
16635 F804            CLC 18        implied   A:AA X:78 Y:57 P:85 SP:F9
16638 F805            BIT 24       zeropage   A:AA X:78 Y:57 P:84 SP:F9
16642 F807            LDA A9      immediate   A:AA X:78 Y:57 P:C4 SP:F9
16645 F809            RTS 60        implied   A:5F X:78 Y:57 P:44 SP:F9
16652 E247            EOR 5D     absolute,x   A:5F X:78 Y:57 P:44 SP:FB
16657 E24A            JSR 20       absolute   A:F5 X:78 Y:57 P:C4 SP:FB
16662 F80A            BCS B0      immediate   A:F5 X:78 Y:57 P:C4 SP:F9
16665 F80C            BPL 10      immediate   A:F5 X:78 Y:57 P:C4 SP:F9
16668 F80E            CMP C9      immediate   A:F5 X:78 Y:57 P:C4 SP:F9
16671 F810            BNE D0      immediate   A:F5 X:78 Y:57 P:47 SP:F9
16674 F812            BVC 50      immediate   A:F5 X:78 Y:57 P:47 SP:F9
16677 F814            RTS 60        implied   A:F5 X:78 Y:57 P:47 SP:F9
16684 E24D            INY C8        implied   A:F5 X:78 Y:57 P:47 SP:FB
16687 E24E            LDA A9      immediate   A:F5 X:78 Y:58 P:45 SP:FB
16690 E250            STA 8D       absolute   A:70 X:78 Y:58 P:45 SP:FB
16695 E253            JSR 20       absolute   A:70 X:78 Y:58 P:45 SP:FB
16700 F818            SEC 38        implied   A:70 X:78 Y:58 P:45 SP:F9
16703 F819            CLV B8        implied   A:70 X:78 Y:58 P:45 SP:F9
16706 F81A            LDA A9      immediate   A:70 X:78 Y:58 P:5 SP:F9
16709 F81C            RTS 60        implied   A:70 X:78 Y:58 P:5 SP:F9
16716 E256            EOR 5D     absolute,x   A:70 X:78 Y:58 P:5 SP:FB
16721 E259            JSR 20       absolute   A:0 X:78 Y:58 P:7 SP:FB
16726 F81D            BNE D0      immediate   A:0 X:78 Y:58 P:7 SP:F9
16729 F81F            BVS 70      immediate   A:0 X:78 Y:58 P:7 SP:F9
16732 F821            BCC 90      immediate   A:0 X:78 Y:58 P:7 SP:F9
16735 F823            BMI 30      immediate   A:0 X:78 Y:58 P:7 SP:F9
16738 F825            RTS 60        implied   A:0 X:78 Y:58 P:7 SP:F9
16745 E25C            INY C8        implied   A:0 X:78 Y:58 P:7 SP:FB
16748 E25D            LDA A9      immediate   A:0 X:78 Y:59 P:5 SP:FB
16751 E25F            STA 8D       absolute   A:69 X:78 Y:59 P:5 SP:FB
16756 E262            JSR 20       absolute   A:69 X:78 Y:59 P:5 SP:FB
16761 F829            CLC 18        implied   A:69 X:78 Y:59 P:5 SP:F9
16764 F82A            BIT 24       zeropage   A:69 X:78 Y:59 P:4 SP:F9
16768 F82C            LDA A9      immediate   A:69 X:78 Y:59 P:C4 SP:F9
16771 F82E            RTS 60        implied   A:0 X:78 Y:59 P:46 SP:F9
16778 E265            ADC 7D     absolute,x   A:0 X:78 Y:59 P:46 SP:FB
16783 E268            JSR 20       absolute   A:69 X:78 Y:59 P:4 SP:FB
16788 F82F            BMI 30      immediate   A:69 X:78 Y:59 P:4 SP:F9
16791 F831            BCS B0      immediate   A:69 X:78 Y:59 P:4 SP:F9
16794 F833            CMP C9      immediate   A:69 X:78 Y:59 P:4 SP:F9
16797 F835            BNE D0      immediate   A:69 X:78 Y:59 P:7 SP:F9
16800 F837            BVS 70      immediate   A:69 X:78 Y:59 P:7 SP:F9
16803 F839            RTS 60        implied   A:69 X:78 Y:59 P:7 SP:F9
16810 E26B            INY C8        implied   A:69 X:78 Y:59 P:7 SP:FB
16813 E26C            JSR 20       absolute   A:69 X:78 Y:5A P:5 SP:FB
16818 F83D            SEC 38        implied   A:69 X:78 Y:5A P:5 SP:F9
16821 F83E            BIT 24       zeropage   A:69 X:78 Y:5A P:5 SP:F9
16825 F840            LDA A9      immediate   A:69 X:78 Y:5A P:C5 SP:F9
16828 F842            RTS 60        implied   A:0 X:78 Y:5A P:47 SP:F9
16835 E26F            ADC 7D     absolute,x   A:0 X:78 Y:5A P:47 SP:FB
16840 E272            JSR 20       absolute   A:6A X:78 Y:5A P:4 SP:FB
16845 F843            BMI 30      immediate   A:6A X:78 Y:5A P:4 SP:F9
16848 F845            BCS B0      immediate   A:6A X:78 Y:5A P:4 SP:F9
16851 F847            CMP C9      immediate   A:6A X:78 Y:5A P:4 SP:F9
16854 F849            BNE D0      immediate   A:6A X:78 Y:5A P:7 SP:F9
16857 F84B            BVS 70      immediate   A:6A X:78 Y:5A P:7 SP:F9
16860 F84D            RTS 60        implied   A:6A X:78 Y:5A P:7 SP:F9
16867 E275            INY C8        implied   A:6A X:78 Y:5A P:7 SP:FB
16870 E276            LDA A9      immediate   A:6A X:78 Y:5B P:5 SP:FB
16873 E278            STA 8D       absolute   A:7F X:78 Y:5B P:5 SP:FB
16878 E27B            JSR 20       absolute   A:7F X:78 Y:5B P:5 SP:FB
16883 F851            SEC 38        implied   A:7F X:78 Y:5B P:5 SP:F9
16886 F852            CLV B8        implied   A:7F X:78 Y:5B P:5 SP:F9
16889 F853            LDA A9      immediate   A:7F X:78 Y:5B P:5 SP:F9
16892 F855            RTS 60        implied   A:7F X:78 Y:5B P:5 SP:F9
16899 E27E            ADC 7D     absolute,x   A:7F X:78 Y:5B P:5 SP:FB
16904 E281            JSR 20       absolute   A:FF X:78 Y:5B P:C4 SP:FB
16909 F856            BPL 10      immediate   A:FF X:78 Y:5B P:C4 SP:F9
16912 F858            BCS B0      immediate   A:FF X:78 Y:5B P:C4 SP:F9
16915 F85A            CMP C9      immediate   A:FF X:78 Y:5B P:C4 SP:F9
16918 F85C            BNE D0      immediate   A:FF X:78 Y:5B P:47 SP:F9
16921 F85E            BVC 50      immediate   A:FF X:78 Y:5B P:47 SP:F9
16924 F860            RTS 60        implied   A:FF X:78 Y:5B P:47 SP:F9
16931 E284            INY C8        implied   A:FF X:78 Y:5B P:47 SP:FB
16934 E285            LDA A9      immediate   A:FF X:78 Y:5C P:45 SP:FB
16937 E287            STA 8D       absolute   A:80 X:78 Y:5C P:C5 SP:FB
16942 E28A            JSR 20       absolute   A:80 X:78 Y:5C P:C5 SP:FB
16947 F864            CLC 18        implied   A:80 X:78 Y:5C P:C5 SP:F9
16950 F865            BIT 24       zeropage   A:80 X:78 Y:5C P:C4 SP:F9
16954 F867            LDA A9      immediate   A:80 X:78 Y:5C P:C4 SP:F9
16957 F869            RTS 60        implied   A:7F X:78 Y:5C P:44 SP:F9
16964 E28D            ADC 7D     absolute,x   A:7F X:78 Y:5C P:44 SP:FB
16969 E290            JSR 20       absolute   A:FF X:78 Y:5C P:84 SP:FB
16974 F86A            BPL 10      immediate   A:FF X:78 Y:5C P:84 SP:F9
16977 F86C            BCS B0      immediate   A:FF X:78 Y:5C P:84 SP:F9
16980 F86E            CMP C9      immediate   A:FF X:78 Y:5C P:84 SP:F9
16983 F870            BNE D0      immediate   A:FF X:78 Y:5C P:7 SP:F9
16986 F872            BVS 70      immediate   A:FF X:78 Y:5C P:7 SP:F9
16989 F874            RTS 60        implied   A:FF X:78 Y:5C P:7 SP:F9
16996 E293            INY C8        implied   A:FF X:78 Y:5C P:7 SP:FB
16999 E294            JSR 20       absolute   A:FF X:78 Y:5D P:5 SP:FB
17004 F878            SEC 38        implied   A:FF X:78 Y:5D P:5 SP:F9
17007 F879            CLV B8        implied   A:FF X:78 Y:5D P:5 SP:F9
17010 F87A            LDA A9      immediate   A:FF X:78 Y:5D P:5 SP:F9
17013 F87C            RTS 60        implied   A:7F X:78 Y:5D P:5 SP:F9
17020 E297            ADC 7D     absolute,x   A:7F X:78 Y:5D P:5 SP:FB
17025 E29A            JSR 20       absolute   A:0 X:78 Y:5D P:7 SP:FB
17030 F87D            BNE D0      immediate   A:0 X:78 Y:5D P:7 SP:F9
17033 F87F            BMI 30      immediate   A:0 X:78 Y:5D P:7 SP:F9
17036 F881            BVS 70      immediate   A:0 X:78 Y:5D P:7 SP:F9
17039 F883            BCC 90      immediate   A:0 X:78 Y:5D P:7 SP:F9
17042 F885            RTS 60        implied   A:0 X:78 Y:5D P:7 SP:F9
17049 E29D            INY C8        implied   A:0 X:78 Y:5D P:7 SP:FB
17052 E29E            LDA A9      immediate   A:0 X:78 Y:5E P:5 SP:FB
17055 E2A0            STA 8D       absolute   A:40 X:78 Y:5E P:5 SP:FB
17060 E2A3            JSR 20       absolute   A:40 X:78 Y:5E P:5 SP:FB
17065 F889            BIT 24       zeropage   A:40 X:78 Y:5E P:5 SP:F9
17069 F88B            LDA A9      immediate   A:40 X:78 Y:5E P:C5 SP:F9
17072 F88D            RTS 60        implied   A:40 X:78 Y:5E P:45 SP:F9
17079 E2A6            CMP DD     absolute,x   A:40 X:78 Y:5E P:45 SP:FB
17084 E2A9            JSR 20       absolute   A:40 X:78 Y:5E P:47 SP:FB
17089 F88E            BMI 30      immediate   A:40 X:78 Y:5E P:47 SP:F9
17092 F890            BCC 90      immediate   A:40 X:78 Y:5E P:47 SP:F9
17095 F892            BNE D0      immediate   A:40 X:78 Y:5E P:47 SP:F9
17098 F894            BVC 50      immediate   A:40 X:78 Y:5E P:47 SP:F9
17101 F896            RTS 60        implied   A:40 X:78 Y:5E P:47 SP:F9
17108 E2AC            INY C8        implied   A:40 X:78 Y:5E P:47 SP:FB
17111 E2AD            PHA 48        implied   A:40 X:78 Y:5F P:45 SP:FB
17115 E2AE            LDA A9      immediate   A:40 X:78 Y:5F P:45 SP:FA
17118 E2B0            STA 8D       absolute   A:3F X:78 Y:5F P:45 SP:FA
17123 E2B3            PLA 68        implied   A:3F X:78 Y:5F P:45 SP:FA
17128 E2B4            JSR 20       absolute   A:40 X:78 Y:5F P:45 SP:FB
17133 F89A            CLV B8        implied   A:40 X:78 Y:5F P:45 SP:F9
17136 F89B            RTS 60        implied   A:40 X:78 Y:5F P:5 SP:F9
17143 E2B7            CMP DD     absolute,x   A:40 X:78 Y:5F P:5 SP:FB
17148 E2BA            JSR 20       absolute   A:40 X:78 Y:5F P:5 SP:FB
17153 F89C            BEQ F0      immediate   A:40 X:78 Y:5F P:5 SP:F9
17156 F89E            BMI 30      immediate   A:40 X:78 Y:5F P:5 SP:F9
17159 F8A0            BCC 90      immediate   A:40 X:78 Y:5F P:5 SP:F9
17162 F8A2            BVS 70      immediate   A:40 X:78 Y:5F P:5 SP:F9
17165 F8A4            RTS 60        implied   A:40 X:78 Y:5F P:5 SP:F9
17172 E2BD            INY C8        implied   A:40 X:78 Y:5F P:5 SP:FB
17175 E2BE            PHA 48        implied   A:40 X:78 Y:60 P:5 SP:FB
17179 E2BF            LDA A9      immediate   A:40 X:78 Y:60 P:5 SP:FA
17182 E2C1            STA 8D       absolute   A:41 X:78 Y:60 P:5 SP:FA
17187 E2C4            PLA 68        implied   A:41 X:78 Y:60 P:5 SP:FA
17192 E2C5            CMP DD     absolute,x   A:40 X:78 Y:60 P:5 SP:FB
17197 E2C8            JSR 20       absolute   A:40 X:78 Y:60 P:84 SP:FB
17202 F8A8            BEQ F0      immediate   A:40 X:78 Y:60 P:84 SP:F9
17205 F8AA            BPL 10      immediate   A:40 X:78 Y:60 P:84 SP:F9
17208 F8AC            BPL 10      immediate   A:40 X:78 Y:60 P:84 SP:F9
17211 F8AE            RTS 60        implied   A:40 X:78 Y:60 P:84 SP:F9
17218 E2CB            INY C8        implied   A:40 X:78 Y:60 P:84 SP:FB
17221 E2CC            PHA 48        implied   A:40 X:78 Y:61 P:4 SP:FB
17225 E2CD            LDA A9      immediate   A:40 X:78 Y:61 P:4 SP:FA
17228 E2CF            STA 8D       absolute   A:0 X:78 Y:61 P:6 SP:FA
17233 E2D2            PLA 68        implied   A:0 X:78 Y:61 P:6 SP:FA
17238 E2D3            JSR 20       absolute   A:40 X:78 Y:61 P:4 SP:FB
17243 F8B2            LDA A9      immediate   A:40 X:78 Y:61 P:4 SP:F9
17246 F8B4            RTS 60        implied   A:80 X:78 Y:61 P:84 SP:F9
17253 E2D6            CMP DD     absolute,x   A:80 X:78 Y:61 P:84 SP:FB
17258 E2D9            JSR 20       absolute   A:80 X:78 Y:61 P:85 SP:FB
17263 F8B5            BEQ F0      immediate   A:80 X:78 Y:61 P:85 SP:F9
17266 F8B7            BPL 10      immediate   A:80 X:78 Y:61 P:85 SP:F9
17269 F8B9            BCC 90      immediate   A:80 X:78 Y:61 P:85 SP:F9
17272 F8BB            RTS 60        implied   A:80 X:78 Y:61 P:85 SP:F9
17279 E2DC            INY C8        implied   A:80 X:78 Y:61 P:85 SP:FB
17282 E2DD            PHA 48        implied   A:80 X:78 Y:62 P:5 SP:FB
17286 E2DE            LDA A9      immediate   A:80 X:78 Y:62 P:5 SP:FA
17289 E2E0            STA 8D       absolute   A:80 X:78 Y:62 P:85 SP:FA
17294 E2E3            PLA 68        implied   A:80 X:78 Y:62 P:85 SP:FA
17299 E2E4            CMP DD     absolute,x   A:80 X:78 Y:62 P:85 SP:FB
17304 E2E7            JSR 20       absolute   A:80 X:78 Y:62 P:7 SP:FB
17309 F8BF            BNE D0      immediate   A:80 X:78 Y:62 P:7 SP:F9
17312 F8C1            BMI 30      immediate   A:80 X:78 Y:62 P:7 SP:F9
17315 F8C3            BCC 90      immediate   A:80 X:78 Y:62 P:7 SP:F9
17318 F8C5            RTS 60        implied   A:80 X:78 Y:62 P:7 SP:F9
17325 E2EA            INY C8        implied   A:80 X:78 Y:62 P:7 SP:FB
17328 E2EB            PHA 48        implied   A:80 X:78 Y:63 P:5 SP:FB
17332 E2EC            LDA A9      immediate   A:80 X:78 Y:63 P:5 SP:FA
17335 E2EE            STA 8D       absolute   A:81 X:78 Y:63 P:85 SP:FA
17340 E2F1            PLA 68        implied   A:81 X:78 Y:63 P:85 SP:FA
17345 E2F2            CMP DD     absolute,x   A:80 X:78 Y:63 P:85 SP:FB
17350 E2F5            JSR 20       absolute   A:80 X:78 Y:63 P:84 SP:FB
17355 F8C9            BCS B0      immediate   A:80 X:78 Y:63 P:84 SP:F9
17358 F8CB            BEQ F0      immediate   A:80 X:78 Y:63 P:84 SP:F9
17361 F8CD            BPL 10      immediate   A:80 X:78 Y:63 P:84 SP:F9
17364 F8CF            RTS 60        implied   A:80 X:78 Y:63 P:84 SP:F9
17371 E2F8            INY C8        implied   A:80 X:78 Y:63 P:84 SP:FB
17374 E2F9            PHA 48        implied   A:80 X:78 Y:64 P:4 SP:FB
17378 E2FA            LDA A9      immediate   A:80 X:78 Y:64 P:4 SP:FA
17381 E2FC            STA 8D       absolute   A:7F X:78 Y:64 P:4 SP:FA
17386 E2FF            PLA 68        implied   A:7F X:78 Y:64 P:4 SP:FA
17391 E300            CMP DD     absolute,x   A:80 X:78 Y:64 P:84 SP:FB
17396 E303            JSR 20       absolute   A:80 X:78 Y:64 P:5 SP:FB
17401 F8D3            BCC 90      immediate   A:80 X:78 Y:64 P:5 SP:F9
17404 F8D5            BEQ F0      immediate   A:80 X:78 Y:64 P:5 SP:F9
17407 F8D7            BMI 30      immediate   A:80 X:78 Y:64 P:5 SP:F9
17410 F8D9            RTS 60        implied   A:80 X:78 Y:64 P:5 SP:F9
17417 E306            INY C8        implied   A:80 X:78 Y:64 P:5 SP:FB
17420 E307            LDA A9      immediate   A:80 X:78 Y:65 P:5 SP:FB
17423 E309            STA 8D       absolute   A:40 X:78 Y:65 P:5 SP:FB
17428 E30C            JSR 20       absolute   A:40 X:78 Y:65 P:5 SP:FB
17433 F931            BIT 24       zeropage   A:40 X:78 Y:65 P:5 SP:F9
17437 F933            LDA A9      immediate   A:40 X:78 Y:65 P:C5 SP:F9
17440 F935            SEC 38        implied   A:40 X:78 Y:65 P:45 SP:F9
17443 F936            RTS 60        implied   A:40 X:78 Y:65 P:45 SP:F9
17450 E30F            SBC FD     absolute,x   A:40 X:78 Y:65 P:45 SP:FB
17455 E312            JSR 20       absolute   A:0 X:78 Y:65 P:7 SP:FB
17460 F937            BMI 30      immediate   A:0 X:78 Y:65 P:7 SP:F9
17463 F939            BCC 90      immediate   A:0 X:78 Y:65 P:7 SP:F9
17466 F93B            BNE D0      immediate   A:0 X:78 Y:65 P:7 SP:F9
17469 F93D            BVS 70      immediate   A:0 X:78 Y:65 P:7 SP:F9
17472 F93F            CMP C9      immediate   A:0 X:78 Y:65 P:7 SP:F9
17475 F941            BNE D0      immediate   A:0 X:78 Y:65 P:7 SP:F9
17478 F943            RTS 60        implied   A:0 X:78 Y:65 P:7 SP:F9
17485 E315            INY C8        implied   A:0 X:78 Y:65 P:7 SP:FB
17488 E316            LDA A9      immediate   A:0 X:78 Y:66 P:5 SP:FB
17491 E318            STA 8D       absolute   A:3F X:78 Y:66 P:5 SP:FB
17496 E31B            JSR 20       absolute   A:3F X:78 Y:66 P:5 SP:FB
17501 F947            CLV B8        implied   A:3F X:78 Y:66 P:5 SP:F9
17504 F948            SEC 38        implied   A:3F X:78 Y:66 P:5 SP:F9
17507 F949            LDA A9      immediate   A:3F X:78 Y:66 P:5 SP:F9
17510 F94B            RTS 60        implied   A:40 X:78 Y:66 P:5 SP:F9
17517 E31E            SBC FD     absolute,x   A:40 X:78 Y:66 P:5 SP:FB
17522 E321            JSR 20       absolute   A:1 X:78 Y:66 P:5 SP:FB
17527 F94C            BEQ F0      immediate   A:1 X:78 Y:66 P:5 SP:F9
17530 F94E            BMI 30      immediate   A:1 X:78 Y:66 P:5 SP:F9
17533 F950            BCC 90      immediate   A:1 X:78 Y:66 P:5 SP:F9
17536 F952            BVS 70      immediate   A:1 X:78 Y:66 P:5 SP:F9
17539 F954            CMP C9      immediate   A:1 X:78 Y:66 P:5 SP:F9
17542 F956            BNE D0      immediate   A:1 X:78 Y:66 P:7 SP:F9
17545 F958            RTS 60        implied   A:1 X:78 Y:66 P:7 SP:F9
17552 E324            INY C8        implied   A:1 X:78 Y:66 P:7 SP:FB
17555 E325            LDA A9      immediate   A:1 X:78 Y:67 P:5 SP:FB
17558 E327            STA 8D       absolute   A:41 X:78 Y:67 P:5 SP:FB
17563 E32A            JSR 20       absolute   A:41 X:78 Y:67 P:5 SP:FB
17568 F95C            LDA A9      immediate   A:41 X:78 Y:67 P:5 SP:F9
17571 F95E            SEC 38        implied   A:40 X:78 Y:67 P:5 SP:F9
17574 F95F            BIT 24       zeropage   A:40 X:78 Y:67 P:5 SP:F9
17578 F961            RTS 60        implied   A:40 X:78 Y:67 P:C5 SP:F9
17585 E32D            SBC FD     absolute,x   A:40 X:78 Y:67 P:C5 SP:FB
17590 E330            JSR 20       absolute   A:FF X:78 Y:67 P:84 SP:FB
17595 F962            BCS B0      immediate   A:FF X:78 Y:67 P:84 SP:F9
17598 F964            BEQ F0      immediate   A:FF X:78 Y:67 P:84 SP:F9
17601 F966            BPL 10      immediate   A:FF X:78 Y:67 P:84 SP:F9
17604 F968            BVS 70      immediate   A:FF X:78 Y:67 P:84 SP:F9
17607 F96A            CMP C9      immediate   A:FF X:78 Y:67 P:84 SP:F9
17610 F96C            BNE D0      immediate   A:FF X:78 Y:67 P:7 SP:F9
17613 F96E            RTS 60        implied   A:FF X:78 Y:67 P:7 SP:F9
17620 E333            INY C8        implied   A:FF X:78 Y:67 P:7 SP:FB
17623 E334            LDA A9      immediate   A:FF X:78 Y:68 P:5 SP:FB
17626 E336            STA 8D       absolute   A:0 X:78 Y:68 P:7 SP:FB
17631 E339            JSR 20       absolute   A:0 X:78 Y:68 P:7 SP:FB
17636 F972            CLC 18        implied   A:0 X:78 Y:68 P:7 SP:F9
17639 F973            LDA A9      immediate   A:0 X:78 Y:68 P:6 SP:F9
17642 F975            RTS 60        implied   A:80 X:78 Y:68 P:84 SP:F9
17649 E33C            SBC FD     absolute,x   A:80 X:78 Y:68 P:84 SP:FB
17654 E33F            JSR 20       absolute   A:7F X:78 Y:68 P:45 SP:FB
17659 F976            BCC 90      immediate   A:7F X:78 Y:68 P:45 SP:F9
17662 F978            CMP C9      immediate   A:7F X:78 Y:68 P:45 SP:F9
17665 F97A            BNE D0      immediate   A:7F X:78 Y:68 P:47 SP:F9
17668 F97C            RTS 60        implied   A:7F X:78 Y:68 P:47 SP:F9
17675 E342            INY C8        implied   A:7F X:78 Y:68 P:47 SP:FB
17678 E343            LDA A9      immediate   A:7F X:78 Y:69 P:45 SP:FB
17681 E345            STA 8D       absolute   A:7F X:78 Y:69 P:45 SP:FB
17686 E348            JSR 20       absolute   A:7F X:78 Y:69 P:45 SP:FB
17691 F980            SEC 38        implied   A:7F X:78 Y:69 P:45 SP:F9
17694 F981            LDA A9      immediate   A:7F X:78 Y:69 P:45 SP:F9
17697 F983            RTS 60        implied   A:81 X:78 Y:69 P:C5 SP:F9
17704 E34B            SBC FD     absolute,x   A:81 X:78 Y:69 P:C5 SP:FB
17709 E34E            JSR 20       absolute   A:2 X:78 Y:69 P:45 SP:FB
17714 F984            BVC 50      immediate   A:2 X:78 Y:69 P:45 SP:F9
17717 F986            BCC 90      immediate   A:2 X:78 Y:69 P:45 SP:F9
17720 F988            CMP C9      immediate   A:2 X:78 Y:69 P:45 SP:F9
17723 F98A            BNE D0      immediate   A:2 X:78 Y:69 P:47 SP:F9
17726 F98C            RTS 60        implied   A:2 X:78 Y:69 P:47 SP:F9
17733 E351            LDA A9      immediate   A:2 X:78 Y:69 P:47 SP:FB
17736 E353            STA 8D       absolute   A:AA X:78 Y:69 P:C5 SP:FB
17741 E356            LDA A9      immediate   A:AA X:78 Y:69 P:C5 SP:FB
17744 E358            STA 8D       absolute   A:BB X:78 Y:69 P:C5 SP:FB
17749 E35B            LDX A2      immediate   A:BB X:78 Y:69 P:C5 SP:FB
17752 E35D            LDY A0      immediate   A:BB X:0 Y:69 P:47 SP:FB
17755 E35F            BIT 24       zeropage   A:BB X:0 Y:66 P:45 SP:FB
17759 E361            SEC 38        implied   A:BB X:0 Y:66 P:C5 SP:FB
17762 E362            LDA A9      immediate   A:BB X:0 Y:66 P:C5 SP:FB
17765 E364            LDA BD     absolute,x   A:0 X:0 Y:66 P:47 SP:FB
17770 E367            BPL 10      immediate   A:AA X:0 Y:66 P:C5 SP:FB
17773 E369            BEQ F0      immediate   A:AA X:0 Y:66 P:C5 SP:FB
17776 E36B            BVC 50      immediate   A:AA X:0 Y:66 P:C5 SP:FB
17779 E36D            BCC 90      immediate   A:AA X:0 Y:66 P:C5 SP:FB
17782 E36F            CPY C0      immediate   A:AA X:0 Y:66 P:C5 SP:FB
17785 E371            BNE D0      immediate   A:AA X:0 Y:66 P:47 SP:FB
17788 E373            CPX E0      immediate   A:AA X:0 Y:66 P:47 SP:FB
17791 E375            BNE D0      immediate   A:AA X:0 Y:66 P:47 SP:FB
17794 E377            CMP C9      immediate   A:AA X:0 Y:66 P:47 SP:FB
17797 E379            BEQ F0      immediate   A:AA X:0 Y:66 P:47 SP:FB
17800 E37F            LDX A2      immediate   A:AA X:0 Y:66 P:47 SP:FB
17803 E381            LDY A0      immediate   A:AA X:8A Y:66 P:C5 SP:FB
17806 E383            CLV B8        implied   A:AA X:8A Y:66 P:45 SP:FB
17809 E384            CLC 18        implied   A:AA X:8A Y:66 P:5 SP:FB
17812 E385            LDA A9      immediate   A:AA X:8A Y:66 P:4 SP:FB
17815 E387            LDA BD     absolute,x   A:0 X:8A Y:66 P:6 SP:FB
17820 E38A            BPL 10      immediate   A:BB X:8A Y:66 P:84 SP:FB
17823 E38C            BEQ F0      immediate   A:BB X:8A Y:66 P:84 SP:FB
17826 E38E            BVS 70      immediate   A:BB X:8A Y:66 P:84 SP:FB
17829 E390            BCS B0      immediate   A:BB X:8A Y:66 P:84 SP:FB
17832 E392            CMP C9      immediate   A:BB X:8A Y:66 P:84 SP:FB
17835 E394            BNE D0      immediate   A:BB X:8A Y:66 P:7 SP:FB
17838 E396            CPY C0      immediate   A:BB X:8A Y:66 P:7 SP:FB
17841 E398            BNE D0      immediate   A:BB X:8A Y:66 P:7 SP:FB
17844 E39A            CPX E0      immediate   A:BB X:8A Y:66 P:7 SP:FB
17847 E39C            BEQ F0      immediate   A:BB X:8A Y:66 P:7 SP:FB
17850 E3A2            BIT 24       zeropage   A:BB X:8A Y:66 P:7 SP:FB
17854 E3A4            SEC 38        implied   A:BB X:8A Y:66 P:C5 SP:FB
17857 E3A5            LDA A9      immediate   A:BB X:8A Y:66 P:C5 SP:FB
17860 E3A7            LDX A2      immediate   A:44 X:8A Y:66 P:45 SP:FB
17863 E3A9            STA 9D     absolute,x   A:44 X:0 Y:66 P:47 SP:FB
17868 E3AC            LDA AD       absolute   A:44 X:0 Y:66 P:47 SP:FB
17873 E3AF            BCC 90      immediate   A:44 X:0 Y:66 P:45 SP:FB
17876 E3B1            CMP C9      immediate   A:44 X:0 Y:66 P:45 SP:FB
17879 E3B3            BNE D0      immediate   A:44 X:0 Y:66 P:47 SP:FB
17882 E3B5            BVC 50      immediate   A:44 X:0 Y:66 P:47 SP:FB
17885 E3B7            CLC 18        implied   A:44 X:0 Y:66 P:47 SP:FB
17888 E3B8            CLV B8        implied   A:44 X:0 Y:66 P:46 SP:FB
17891 E3B9            LDA A9      immediate   A:44 X:0 Y:66 P:6 SP:FB
17894 E3BB            LDX A2      immediate   A:99 X:0 Y:66 P:84 SP:FB
17897 E3BD            STA 9D     absolute,x   A:99 X:80 Y:66 P:84 SP:FB
17902 E3C0            LDA AD       absolute   A:99 X:80 Y:66 P:84 SP:FB
17907 E3C3            BCS B0      immediate   A:99 X:80 Y:66 P:84 SP:FB
17910 E3C5            CMP C9      immediate   A:99 X:80 Y:66 P:84 SP:FB
17913 E3C7            BNE D0      immediate   A:99 X:80 Y:66 P:7 SP:FB
17916 E3C9            BVC 50      immediate   A:99 X:80 Y:66 P:7 SP:FB
17919 E3CF            LDY A0      immediate   A:99 X:80 Y:66 P:7 SP:FB
17922 E3D1            LDX A2      immediate   A:99 X:80 Y:6D P:5 SP:FB
17925 E3D3            JSR 20       absolute   A:99 X:6D Y:6D P:5 SP:FB
17930 F990            LDX A2      immediate   A:99 X:6D Y:6D P:5 SP:F9
17933 F992            LDA A9      immediate   A:99 X:55 Y:6D P:5 SP:F9
17936 F994            STA 85       zeropage   A:FF X:55 Y:6D P:85 SP:F9
17940 F996            NOP EA        implied   A:FF X:55 Y:6D P:85 SP:F9
17943 F997            BIT 24       zeropage   A:FF X:55 Y:6D P:85 SP:F9
17947 F999            SEC 38        implied   A:FF X:55 Y:6D P:C5 SP:F9
17950 F99A            LDA A9      immediate   A:FF X:55 Y:6D P:C5 SP:F9
17953 F99C            RTS 60        implied   A:1 X:55 Y:6D P:45 SP:F9
17960 E3D6            STA 9D     absolute,x   A:1 X:55 Y:6D P:45 SP:FB
17965 E3D9            LSR 5E     absolute,x   A:1 X:55 Y:6D P:45 SP:FB
17972 E3DC            LDA BD     absolute,x   A:1 X:55 Y:6D P:47 SP:FB
17977 E3DF            JSR 20       absolute   A:0 X:55 Y:6D P:47 SP:FB
17982 F99D            BCC 90      immediate   A:0 X:55 Y:6D P:47 SP:F9
17985 F99F            BNE D0      immediate   A:0 X:55 Y:6D P:47 SP:F9
17988 F9A1            BMI 30      immediate   A:0 X:55 Y:6D P:47 SP:F9
17991 F9A3            BVC 50      immediate   A:0 X:55 Y:6D P:47 SP:F9
17994 F9A5            CMP C9      immediate   A:0 X:55 Y:6D P:47 SP:F9
17997 F9A7            BNE D0      immediate   A:0 X:55 Y:6D P:47 SP:F9
18000 F9A9            CLV B8        implied   A:0 X:55 Y:6D P:47 SP:F9
18003 F9AA            LDA A9      immediate   A:0 X:55 Y:6D P:7 SP:F9
18006 F9AC            RTS 60        implied   A:AA X:55 Y:6D P:85 SP:F9
18013 E3E2            INY C8        implied   A:AA X:55 Y:6D P:85 SP:FB
18016 E3E3            STA 9D     absolute,x   A:AA X:55 Y:6E P:5 SP:FB
18021 E3E6            LSR 5E     absolute,x   A:AA X:55 Y:6E P:5 SP:FB
18028 E3E9            LDA BD     absolute,x   A:AA X:55 Y:6E P:4 SP:FB
18033 E3EC            JSR 20       absolute   A:55 X:55 Y:6E P:4 SP:FB
18038 F9AD            BCS B0      immediate   A:55 X:55 Y:6E P:4 SP:F9
18041 F9AF            BEQ F0      immediate   A:55 X:55 Y:6E P:4 SP:F9
18044 F9B1            BMI 30      immediate   A:55 X:55 Y:6E P:4 SP:F9
18047 F9B3            BVS 70      immediate   A:55 X:55 Y:6E P:4 SP:F9
18050 F9B5            CMP C9      immediate   A:55 X:55 Y:6E P:4 SP:F9
18053 F9B7            BNE D0      immediate   A:55 X:55 Y:6E P:7 SP:F9
18056 F9B9            RTS 60        implied   A:55 X:55 Y:6E P:7 SP:F9
18063 E3EF            INY C8        implied   A:55 X:55 Y:6E P:7 SP:FB
18066 E3F0            JSR 20       absolute   A:55 X:55 Y:6F P:5 SP:FB
18071 F9BD            BIT 24       zeropage   A:55 X:55 Y:6F P:5 SP:F9
18075 F9BF            SEC 38        implied   A:55 X:55 Y:6F P:C5 SP:F9
18078 F9C0            LDA A9      immediate   A:55 X:55 Y:6F P:C5 SP:F9
18081 F9C2            RTS 60        implied   A:80 X:55 Y:6F P:C5 SP:F9
18088 E3F3            STA 9D     absolute,x   A:80 X:55 Y:6F P:C5 SP:FB
18093 E3F6            ASL 1E     absolute,x   A:80 X:55 Y:6F P:C5 SP:FB
18100 E3F9            LDA BD     absolute,x   A:80 X:55 Y:6F P:47 SP:FB
18105 E3FC            JSR 20       absolute   A:0 X:55 Y:6F P:47 SP:FB
18110 F9C3            BCC 90      immediate   A:0 X:55 Y:6F P:47 SP:F9
18113 F9C5            BNE D0      immediate   A:0 X:55 Y:6F P:47 SP:F9
18116 F9C7            BMI 30      immediate   A:0 X:55 Y:6F P:47 SP:F9
18119 F9C9            BVC 50      immediate   A:0 X:55 Y:6F P:47 SP:F9
18122 F9CB            CMP C9      immediate   A:0 X:55 Y:6F P:47 SP:F9
18125 F9CD            BNE D0      immediate   A:0 X:55 Y:6F P:47 SP:F9
18128 F9CF            CLV B8        implied   A:0 X:55 Y:6F P:47 SP:F9
18131 F9D0            LDA A9      immediate   A:0 X:55 Y:6F P:7 SP:F9
18134 F9D2            SEC 38        implied   A:55 X:55 Y:6F P:5 SP:F9
18137 F9D3            RTS 60        implied   A:55 X:55 Y:6F P:5 SP:F9
18144 E3FF            INY C8        implied   A:55 X:55 Y:6F P:5 SP:FB
18147 E400            STA 9D     absolute,x   A:55 X:55 Y:70 P:5 SP:FB
18152 E403            ASL 1E     absolute,x   A:55 X:55 Y:70 P:5 SP:FB
18159 E406            LDA BD     absolute,x   A:55 X:55 Y:70 P:84 SP:FB
18164 E409            JSR 20       absolute   A:AA X:55 Y:70 P:84 SP:FB
18169 F9D4            BCS B0      immediate   A:AA X:55 Y:70 P:84 SP:F9
18172 F9D6            BEQ F0      immediate   A:AA X:55 Y:70 P:84 SP:F9
18175 F9D8            BPL 10      immediate   A:AA X:55 Y:70 P:84 SP:F9
18178 F9DA            BVS 70      immediate   A:AA X:55 Y:70 P:84 SP:F9
18181 F9DC            CMP C9      immediate   A:AA X:55 Y:70 P:84 SP:F9
18184 F9DE            BNE D0      immediate   A:AA X:55 Y:70 P:7 SP:F9
18187 F9E0            RTS 60        implied   A:AA X:55 Y:70 P:7 SP:F9
18194 E40C            INY C8        implied   A:AA X:55 Y:70 P:7 SP:FB
18197 E40D            JSR 20       absolute   A:AA X:55 Y:71 P:5 SP:FB
18202 F9E4            BIT 24       zeropage   A:AA X:55 Y:71 P:5 SP:F9
18206 F9E6            SEC 38        implied   A:AA X:55 Y:71 P:C5 SP:F9
18209 F9E7            LDA A9      immediate   A:AA X:55 Y:71 P:C5 SP:F9
18212 F9E9            RTS 60        implied   A:1 X:55 Y:71 P:45 SP:F9
18219 E410            STA 9D     absolute,x   A:1 X:55 Y:71 P:45 SP:FB
18224 E413            ROR 7E     absolute,x   A:1 X:55 Y:71 P:45 SP:FB
18231 E416            LDA BD     absolute,x   A:1 X:55 Y:71 P:47 SP:FB
18236 E419            JSR 20       absolute   A:80 X:55 Y:71 P:C5 SP:FB
18241 F9EA            BCC 90      immediate   A:80 X:55 Y:71 P:C5 SP:F9
18244 F9EC            BEQ F0      immediate   A:80 X:55 Y:71 P:C5 SP:F9
18247 F9EE            BPL 10      immediate   A:80 X:55 Y:71 P:C5 SP:F9
18250 F9F0            BVC 50      immediate   A:80 X:55 Y:71 P:C5 SP:F9
18253 F9F2            CMP C9      immediate   A:80 X:55 Y:71 P:C5 SP:F9
18256 F9F4            BNE D0      immediate   A:80 X:55 Y:71 P:47 SP:F9
18259 F9F6            CLV B8        implied   A:80 X:55 Y:71 P:47 SP:F9
18262 F9F7            CLC 18        implied   A:80 X:55 Y:71 P:7 SP:F9
18265 F9F8            LDA A9      immediate   A:80 X:55 Y:71 P:6 SP:F9
18268 F9FA            RTS 60        implied   A:55 X:55 Y:71 P:4 SP:F9
18275 E41C            INY C8        implied   A:55 X:55 Y:71 P:4 SP:FB
18278 E41D            STA 9D     absolute,x   A:55 X:55 Y:72 P:4 SP:FB
18283 E420            ROR 7E     absolute,x   A:55 X:55 Y:72 P:4 SP:FB
18290 E423            LDA BD     absolute,x   A:55 X:55 Y:72 P:5 SP:FB
18295 E426            JSR 20       absolute   A:2A X:55 Y:72 P:5 SP:FB
18300 F9FB            BCC 90      immediate   A:2A X:55 Y:72 P:5 SP:F9
18303 F9FD            BEQ F0      immediate   A:2A X:55 Y:72 P:5 SP:F9
18306 F9FF            BMI 30      immediate   A:2A X:55 Y:72 P:5 SP:F9
18309 FA01            BVS 70      immediate   A:2A X:55 Y:72 P:5 SP:F9
18312 FA03            CMP C9      immediate   A:2A X:55 Y:72 P:5 SP:F9
18315 FA05            BNE D0      immediate   A:2A X:55 Y:72 P:7 SP:F9
18318 FA07            RTS 60        implied   A:2A X:55 Y:72 P:7 SP:F9
18325 E429            INY C8        implied   A:2A X:55 Y:72 P:7 SP:FB
18328 E42A            JSR 20       absolute   A:2A X:55 Y:73 P:5 SP:FB
18333 FA0A            BIT 24       zeropage   A:2A X:55 Y:73 P:5 SP:F9
18337 FA0C            SEC 38        implied   A:2A X:55 Y:73 P:C5 SP:F9
18340 FA0D            LDA A9      immediate   A:2A X:55 Y:73 P:C5 SP:F9
18343 FA0F            RTS 60        implied   A:80 X:55 Y:73 P:C5 SP:F9
18350 E42D            STA 9D     absolute,x   A:80 X:55 Y:73 P:C5 SP:FB
18355 E430            ROL 3E     absolute,x   A:80 X:55 Y:73 P:C5 SP:FB
18362 E433            LDA BD     absolute,x   A:80 X:55 Y:73 P:47 SP:FB
18367 E436            JSR 20       absolute   A:1 X:55 Y:73 P:45 SP:FB
18372 FA10            BCC 90      immediate   A:1 X:55 Y:73 P:45 SP:F9
18375 FA12            BEQ F0      immediate   A:1 X:55 Y:73 P:45 SP:F9
18378 FA14            BMI 30      immediate   A:1 X:55 Y:73 P:45 SP:F9
18381 FA16            BVC 50      immediate   A:1 X:55 Y:73 P:45 SP:F9
18384 FA18            CMP C9      immediate   A:1 X:55 Y:73 P:45 SP:F9
18387 FA1A            BNE D0      immediate   A:1 X:55 Y:73 P:47 SP:F9
18390 FA1C            CLV B8        implied   A:1 X:55 Y:73 P:47 SP:F9
18393 FA1D            CLC 18        implied   A:1 X:55 Y:73 P:7 SP:F9
18396 FA1E            LDA A9      immediate   A:1 X:55 Y:73 P:6 SP:F9
18399 FA20            RTS 60        implied   A:55 X:55 Y:73 P:4 SP:F9
18406 E439            INY C8        implied   A:55 X:55 Y:73 P:4 SP:FB
18409 E43A            STA 9D     absolute,x   A:55 X:55 Y:74 P:4 SP:FB
18414 E43D            ROL 3E     absolute,x   A:55 X:55 Y:74 P:4 SP:FB
18421 E440            LDA BD     absolute,x   A:55 X:55 Y:74 P:84 SP:FB
18426 E443            JSR 20       absolute   A:AA X:55 Y:74 P:84 SP:FB
18431 FA21            BCS B0      immediate   A:AA X:55 Y:74 P:84 SP:F9
18434 FA23            BEQ F0      immediate   A:AA X:55 Y:74 P:84 SP:F9
18437 FA25            BPL 10      immediate   A:AA X:55 Y:74 P:84 SP:F9
18440 FA27            BVS 70      immediate   A:AA X:55 Y:74 P:84 SP:F9
18443 FA29            CMP C9      immediate   A:AA X:55 Y:74 P:84 SP:F9
18446 FA2B            BNE D0      immediate   A:AA X:55 Y:74 P:7 SP:F9
18449 FA2D            RTS 60        implied   A:AA X:55 Y:74 P:7 SP:F9
18456 E446            LDA A9      immediate   A:AA X:55 Y:74 P:7 SP:FB
18459 E448            STA 9D     absolute,x   A:FF X:55 Y:74 P:85 SP:FB
18464 E44B            STA 85       zeropage   A:FF X:55 Y:74 P:85 SP:FB
18468 E44D            BIT 24       zeropage   A:FF X:55 Y:74 P:85 SP:FB
18472 E44F            SEC 38        implied   A:FF X:55 Y:74 P:C5 SP:FB
18475 E450            INC FE     absolute,x   A:FF X:55 Y:74 P:C5 SP:FB
18482 E453            BNE D0      immediate   A:FF X:55 Y:74 P:47 SP:FB
18485 E455            BMI 30      immediate   A:FF X:55 Y:74 P:47 SP:FB
18488 E457            BVC 50      immediate   A:FF X:55 Y:74 P:47 SP:FB
18491 E459            BCC 90      immediate   A:FF X:55 Y:74 P:47 SP:FB
18494 E45B            LDA BD     absolute,x   A:FF X:55 Y:74 P:47 SP:FB
18499 E45E            CMP C9      immediate   A:0 X:55 Y:74 P:47 SP:FB
18502 E460            BEQ F0      immediate   A:0 X:55 Y:74 P:47 SP:FB
18505 E466            LDA A9      immediate   A:0 X:55 Y:74 P:47 SP:FB
18508 E468            STA 9D     absolute,x   A:7F X:55 Y:74 P:45 SP:FB
18513 E46B            CLV B8        implied   A:7F X:55 Y:74 P:45 SP:FB
18516 E46C            CLC 18        implied   A:7F X:55 Y:74 P:5 SP:FB
18519 E46D            INC FE     absolute,x   A:7F X:55 Y:74 P:4 SP:FB
18526 E470            BEQ F0      immediate   A:7F X:55 Y:74 P:84 SP:FB
18529 E472            BPL 10      immediate   A:7F X:55 Y:74 P:84 SP:FB
18532 E474            BVS 70      immediate   A:7F X:55 Y:74 P:84 SP:FB
18535 E476            BCS B0      immediate   A:7F X:55 Y:74 P:84 SP:FB
18538 E478            LDA BD     absolute,x   A:7F X:55 Y:74 P:84 SP:FB
18543 E47B            CMP C9      immediate   A:80 X:55 Y:74 P:84 SP:FB
18546 E47D            BEQ F0      immediate   A:80 X:55 Y:74 P:7 SP:FB
18549 E483            LDA A9      immediate   A:80 X:55 Y:74 P:7 SP:FB
18552 E485            STA 9D     absolute,x   A:0 X:55 Y:74 P:7 SP:FB
18557 E488            BIT 24       zeropage   A:0 X:55 Y:74 P:7 SP:FB
18561 E48A            SEC 38        implied   A:0 X:55 Y:74 P:C7 SP:FB
18564 E48B            DEC DE     absolute,x   A:0 X:55 Y:74 P:C7 SP:FB
18571 E48E            BEQ F0      immediate   A:0 X:55 Y:74 P:C5 SP:FB
18574 E490            BPL 10      immediate   A:0 X:55 Y:74 P:C5 SP:FB
18577 E492            BVC 50      immediate   A:0 X:55 Y:74 P:C5 SP:FB
18580 E494            BCC 90      immediate   A:0 X:55 Y:74 P:C5 SP:FB
18583 E496            LDA BD     absolute,x   A:0 X:55 Y:74 P:C5 SP:FB
18588 E499            CMP C9      immediate   A:FF X:55 Y:74 P:C5 SP:FB
18591 E49B            BEQ F0      immediate   A:FF X:55 Y:74 P:47 SP:FB
18594 E4A1            LDA A9      immediate   A:FF X:55 Y:74 P:47 SP:FB
18597 E4A3            STA 9D     absolute,x   A:80 X:55 Y:74 P:C5 SP:FB
18602 E4A6            CLV B8        implied   A:80 X:55 Y:74 P:C5 SP:FB
18605 E4A7            CLC 18        implied   A:80 X:55 Y:74 P:85 SP:FB
18608 E4A8            DEC DE     absolute,x   A:80 X:55 Y:74 P:84 SP:FB
18615 E4AB            BEQ F0      immediate   A:80 X:55 Y:74 P:4 SP:FB
18618 E4AD            BMI 30      immediate   A:80 X:55 Y:74 P:4 SP:FB
18621 E4AF            BVS 70      immediate   A:80 X:55 Y:74 P:4 SP:FB
18624 E4B1            BCS B0      immediate   A:80 X:55 Y:74 P:4 SP:FB
18627 E4B3            LDA BD     absolute,x   A:80 X:55 Y:74 P:4 SP:FB
18632 E4B6            CMP C9      immediate   A:7F X:55 Y:74 P:4 SP:FB
18635 E4B8            BEQ F0      immediate   A:7F X:55 Y:74 P:7 SP:FB
18638 E4BE            LDA A9      immediate   A:7F X:55 Y:74 P:7 SP:FB
18641 E4C0            STA 9D     absolute,x   A:1 X:55 Y:74 P:5 SP:FB
18646 E4C3            DEC DE     absolute,x   A:1 X:55 Y:74 P:5 SP:FB
18653 E4C6            BEQ F0      immediate   A:1 X:55 Y:74 P:7 SP:FB
18656 E4CC            LDA A9      immediate   A:1 X:55 Y:74 P:7 SP:FB
18659 E4CE            STA 8D       absolute   A:33 X:55 Y:74 P:5 SP:FB
18664 E4D1            LDA A9      immediate   A:33 X:55 Y:74 P:5 SP:FB
18667 E4D3            LDY A0      immediate   A:44 X:55 Y:74 P:5 SP:FB
18670 E4D5            LDX A2      immediate   A:44 X:55 Y:78 P:5 SP:FB
18673 E4D7            SEC 38        implied   A:44 X:0 Y:78 P:7 SP:FB
18676 E4D8            BIT 24       zeropage   A:44 X:0 Y:78 P:7 SP:FB
18680 E4DA            LDX BE     absolute,y   A:44 X:0 Y:78 P:C5 SP:FB
18685 E4DD            BCC 90      immediate   A:44 X:33 Y:78 P:45 SP:FB
18688 E4DF            BVC 50      immediate   A:44 X:33 Y:78 P:45 SP:FB
18691 E4E1            BMI 30      immediate   A:44 X:33 Y:78 P:45 SP:FB
18694 E4E3            BEQ F0      immediate   A:44 X:33 Y:78 P:45 SP:FB
18697 E4E5            CPX E0      immediate   A:44 X:33 Y:78 P:45 SP:FB
18700 E4E7            BNE D0      immediate   A:44 X:33 Y:78 P:47 SP:FB
18703 E4E9            CPY C0      immediate   A:44 X:33 Y:78 P:47 SP:FB
18706 E4EB            BNE D0      immediate   A:44 X:33 Y:78 P:47 SP:FB
18709 E4ED            CMP C9      immediate   A:44 X:33 Y:78 P:47 SP:FB
18712 E4EF            BEQ F0      immediate   A:44 X:33 Y:78 P:47 SP:FB
18715 E4F5            LDA A9      immediate   A:44 X:33 Y:78 P:47 SP:FB
18718 E4F7            STA 8D       absolute   A:97 X:33 Y:78 P:C5 SP:FB
18723 E4FA            LDA A9      immediate   A:97 X:33 Y:78 P:C5 SP:FB
18726 E4FC            LDY A0      immediate   A:47 X:33 Y:78 P:45 SP:FB
18729 E4FE            LDX A2      immediate   A:47 X:33 Y:FF P:C5 SP:FB
18732 E500            CLC 18        implied   A:47 X:0 Y:FF P:47 SP:FB
18735 E501            CLV B8        implied   A:47 X:0 Y:FF P:46 SP:FB
18738 E502            LDX BE     absolute,y   A:47 X:0 Y:FF P:6 SP:FB
18743 E505            BCS B0      immediate   A:47 X:97 Y:FF P:84 SP:FB
18746 E507            BVS 70      immediate   A:47 X:97 Y:FF P:84 SP:FB
18749 E509            BPL 10      immediate   A:47 X:97 Y:FF P:84 SP:FB
18752 E50B            BEQ F0      immediate   A:47 X:97 Y:FF P:84 SP:FB
18755 E50D            CPX E0      immediate   A:47 X:97 Y:FF P:84 SP:FB
18758 E50F            BNE D0      immediate   A:47 X:97 Y:FF P:7 SP:FB
18761 E511            CPY C0      immediate   A:47 X:97 Y:FF P:7 SP:FB
18764 E513            BNE D0      immediate   A:47 X:97 Y:FF P:7 SP:FB
18767 E515            CMP C9      immediate   A:47 X:97 Y:FF P:7 SP:FB
18770 E517            BEQ F0      immediate   A:47 X:97 Y:FF P:7 SP:FB
18773 E51D            RTS 60        implied   A:47 X:97 Y:FF P:7 SP:FB
18780 C62F            JSR 20       absolute   A:47 X:97 Y:FF P:7 SP:FD
18785 C6A3            LDY A0      immediate   A:47 X:97 Y:FF P:7 SP:FB
18788 C6A5            LDA A9      immediate   A:47 X:97 Y:4E P:5 SP:FB
18791 C6A7            STA 85       zeropage   A:FF X:97 Y:4E P:85 SP:FB
18795 C6A9            JSR 20       absolute   A:FF X:97 Y:4E P:85 SP:FB
18800 C6B0            LDA A9      immediate   A:FF X:97 Y:4E P:85 SP:F9
18803 C6B2            PHA 48        implied   A:FF X:97 Y:4E P:85 SP:F9
18807 C6B3            LDA A9      immediate   A:FF X:97 Y:4E P:85 SP:F8
18810 C6B5            BNE D0      immediate   A:AA X:97 Y:4E P:85 SP:F8
18813 C6BC            PLP 28        implied   A:AA X:97 Y:4E P:85 SP:F8
18818 C6BD   A:AA X:97 Y:4E P:FF SP:F9
18822 C6BF   A:AA X:97 Y:4E P:FF SP:F9
18826 C6C1   A:AA X:97 Y:4E P:FF SP:F9
18830 C6C3            NOP EA        implied   A:AA X:97 Y:4E P:FF SP:F9
18833 C6C4            NOP EA        implied   A:AA X:97 Y:4E P:FF SP:F9
18836 C6C5            NOP EA        implied   A:AA X:97 Y:4E P:FF SP:F9
18839 C6C6            NOP EA        implied   A:AA X:97 Y:4E P:FF SP:F9
18842 C6C7            PHP 8        implied   A:AA X:97 Y:4E P:FF SP:F9
18846 C6C8            PHA 48        implied   A:AA X:97 Y:4E P:FF SP:F8
18850 C6C9   A:AA X:97 Y:4E P:FF SP:F7
18855 C6CC            NOP EA        implied   A:AA X:97 Y:4E P:FF SP:F7
18858 C6CD            NOP EA        implied   A:AA X:97 Y:4E P:FF SP:F7
18861 C6CE            NOP EA        implied   A:AA X:97 Y:4E P:FF SP:F7
18864 C6CF            NOP EA        implied   A:AA X:97 Y:4E P:FF SP:F7
18867 C6D0            PHP 8        implied   A:AA X:97 Y:4E P:FF SP:F7
18871 C6D1            PHA 48        implied   A:AA X:97 Y:4E P:FF SP:F6
18875 C6D2   A:AA X:97 Y:4E P:FF SP:F5
18880 C6D4   A:AA X:97 Y:4E P:FF SP:F5
18885 C6D6   A:AA X:97 Y:4E P:FF SP:F5
18890 C6D8   A:AA X:97 Y:4E P:FF SP:F5
18895 C6DA   A:AA X:97 Y:4E P:FF SP:F5
18900 C6DC   A:AA X:97 Y:4E P:FF SP:F5
18905 C6DE            NOP EA        implied   A:AA X:97 Y:4E P:FF SP:F5
18908 C6DF            NOP EA        implied   A:AA X:97 Y:4E P:FF SP:F5
18911 C6E0            NOP EA        implied   A:AA X:97 Y:4E P:FF SP:F5
18914 C6E1            NOP EA        implied   A:AA X:97 Y:4E P:FF SP:F5
18917 C6E2            PHP 8        implied   A:AA X:97 Y:4E P:FF SP:F5
18921 C6E3            PHA 48        implied   A:AA X:97 Y:4E P:FF SP:F4
18925 C6E4   A:AA X:97 Y:4E P:FF SP:F3
18926 C6E5   A:AA X:97 Y:4E P:FF SP:F3
18927 C6E6   A:AA X:97 Y:4E P:FF SP:F3
18928 C6E7   A:AA X:97 Y:4E P:FF SP:F3
18929 C6E8   A:AA X:97 Y:4E P:FF SP:F3
18930 C6E9   A:AA X:97 Y:4E P:FF SP:F3
18931 C6EA   A:AA X:97 Y:4E P:FF SP:F3
18934 C6EC            NOP EA        implied   A:AA X:97 Y:4E P:FF SP:F3
18937 C6ED            NOP EA        implied   A:AA X:97 Y:4E P:FF SP:F3
18940 C6EE            NOP EA        implied   A:AA X:97 Y:4E P:FF SP:F3
18943 C6EF            NOP EA        implied   A:AA X:97 Y:4E P:FF SP:F3
18946 C6F0            PHP 8        implied   A:AA X:97 Y:4E P:FF SP:F3
18950 C6F1            PHA 48        implied   A:AA X:97 Y:4E P:FF SP:F2
18954 C6F2   A:AA X:97 Y:4E P:FF SP:F1
18959 C6F5   A:AA X:97 Y:4E P:FF SP:F1
18964 C6F8   A:AA X:97 Y:4E P:FF SP:F1
18969 C6FB   A:AA X:97 Y:4E P:FF SP:F1
18974 C6FE   A:AA X:97 Y:4E P:FF SP:F1
18979 C701   A:AA X:97 Y:4E P:FF SP:F1
18984 C704            NOP EA        implied   A:AA X:97 Y:4E P:FF SP:F1
18987 C705            NOP EA        implied   A:AA X:97 Y:4E P:FF SP:F1
18990 C706            NOP EA        implied   A:AA X:97 Y:4E P:FF SP:F1
18993 C707            NOP EA        implied   A:AA X:97 Y:4E P:FF SP:F1
18996 C708            PHP 8        implied   A:AA X:97 Y:4E P:FF SP:F1
19000 C709            PHA 48        implied   A:AA X:97 Y:4E P:FF SP:F0
19004 C70A            LDX A2      immediate   A:AA X:97 Y:4E P:FF SP:EF
19007 C70C            PLA 68        implied   A:AA X:5 Y:4E P:7D SP:EF
19012 C70D            CMP C9      immediate   A:AA X:5 Y:4E P:FD SP:F0
19015 C70F            BEQ F0      immediate   A:AA X:5 Y:4E P:7D SP:F0
19018 C711            CMP C9      immediate   A:AA X:5 Y:4E P:7D SP:F0
19021 C713            BEQ F0      immediate   A:AA X:5 Y:4E P:7F SP:F0
19024 C71B            PLA 68        implied   A:AA X:5 Y:4E P:7F SP:F0
19029 C71C            AND 29      immediate   A:FF X:5 Y:4E P:FD SP:F1
19032 C71E            CMP C9      immediate   A:CB X:5 Y:4E P:FD SP:F1
19035 C720            BEQ F0      immediate   A:CB X:5 Y:4E P:FD SP:F1
19038 C722            CMP C9      immediate   A:CB X:5 Y:4E P:FD SP:F1
19041 C724            BEQ F0      immediate   A:CB X:5 Y:4E P:7F SP:F1
19044 C728            INY C8        implied   A:CB X:5 Y:4E P:7F SP:F1
19047 C729            DEX CA        implied   A:CB X:5 Y:4F P:7D SP:F1
19050 C72A            BNE D0      immediate   A:CB X:4 Y:4F P:7D SP:F1
19053 C70C            PLA 68        implied   A:CB X:4 Y:4F P:7D SP:F1
19058 C70D            CMP C9      immediate   A:AA X:4 Y:4F P:FD SP:F2
19061 C70F            BEQ F0      immediate   A:AA X:4 Y:4F P:7D SP:F2
19064 C711            CMP C9      immediate   A:AA X:4 Y:4F P:7D SP:F2
19067 C713            BEQ F0      immediate   A:AA X:4 Y:4F P:7F SP:F2
19070 C71B            PLA 68        implied   A:AA X:4 Y:4F P:7F SP:F2
19075 C71C            AND 29      immediate   A:FF X:4 Y:4F P:FD SP:F3
19078 C71E            CMP C9      immediate   A:CB X:4 Y:4F P:FD SP:F3
19081 C720            BEQ F0      immediate   A:CB X:4 Y:4F P:FD SP:F3
19084 C722            CMP C9      immediate   A:CB X:4 Y:4F P:FD SP:F3
19087 C724            BEQ F0      immediate   A:CB X:4 Y:4F P:7F SP:F3
19090 C728            INY C8        implied   A:CB X:4 Y:4F P:7F SP:F3
19093 C729            DEX CA        implied   A:CB X:4 Y:50 P:7D SP:F3
19096 C72A            BNE D0      immediate   A:CB X:3 Y:50 P:7D SP:F3
19099 C70C            PLA 68        implied   A:CB X:3 Y:50 P:7D SP:F3
19104 C70D            CMP C9      immediate   A:AA X:3 Y:50 P:FD SP:F4
19107 C70F            BEQ F0      immediate   A:AA X:3 Y:50 P:7D SP:F4
19110 C711            CMP C9      immediate   A:AA X:3 Y:50 P:7D SP:F4
19113 C713            BEQ F0      immediate   A:AA X:3 Y:50 P:7F SP:F4
19116 C71B            PLA 68        implied   A:AA X:3 Y:50 P:7F SP:F4
19121 C71C            AND 29      immediate   A:FF X:3 Y:50 P:FD SP:F5
19124 C71E            CMP C9      immediate   A:CB X:3 Y:50 P:FD SP:F5
19127 C720            BEQ F0      immediate   A:CB X:3 Y:50 P:FD SP:F5
19130 C722            CMP C9      immediate   A:CB X:3 Y:50 P:FD SP:F5
19133 C724            BEQ F0      immediate   A:CB X:3 Y:50 P:7F SP:F5
19136 C728            INY C8        implied   A:CB X:3 Y:50 P:7F SP:F5
19139 C729            DEX CA        implied   A:CB X:3 Y:51 P:7D SP:F5
19142 C72A            BNE D0      immediate   A:CB X:2 Y:51 P:7D SP:F5
19145 C70C            PLA 68        implied   A:CB X:2 Y:51 P:7D SP:F5
19150 C70D            CMP C9      immediate   A:AA X:2 Y:51 P:FD SP:F6
19153 C70F            BEQ F0      immediate   A:AA X:2 Y:51 P:7D SP:F6
19156 C711            CMP C9      immediate   A:AA X:2 Y:51 P:7D SP:F6
19159 C713            BEQ F0      immediate   A:AA X:2 Y:51 P:7F SP:F6
19162 C71B            PLA 68        implied   A:AA X:2 Y:51 P:7F SP:F6
19167 C71C            AND 29      immediate   A:FF X:2 Y:51 P:FD SP:F7
19170 C71E            CMP C9      immediate   A:CB X:2 Y:51 P:FD SP:F7
19173 C720            BEQ F0      immediate   A:CB X:2 Y:51 P:FD SP:F7
19176 C722            CMP C9      immediate   A:CB X:2 Y:51 P:FD SP:F7
19179 C724            BEQ F0      immediate   A:CB X:2 Y:51 P:7F SP:F7
19182 C728            INY C8        implied   A:CB X:2 Y:51 P:7F SP:F7
19185 C729            DEX CA        implied   A:CB X:2 Y:52 P:7D SP:F7
19188 C72A            BNE D0      immediate   A:CB X:1 Y:52 P:7D SP:F7
19191 C70C            PLA 68        implied   A:CB X:1 Y:52 P:7D SP:F7
19196 C70D            CMP C9      immediate   A:AA X:1 Y:52 P:FD SP:F8
19199 C70F            BEQ F0      immediate   A:AA X:1 Y:52 P:7D SP:F8
19202 C711            CMP C9      immediate   A:AA X:1 Y:52 P:7D SP:F8
19205 C713            BEQ F0      immediate   A:AA X:1 Y:52 P:7F SP:F8
19208 C71B            PLA 68        implied   A:AA X:1 Y:52 P:7F SP:F8
19213 C71C            AND 29      immediate   A:FF X:1 Y:52 P:FD SP:F9
19216 C71E            CMP C9      immediate   A:CB X:1 Y:52 P:FD SP:F9
19219 C720            BEQ F0      immediate   A:CB X:1 Y:52 P:FD SP:F9
19222 C722            CMP C9      immediate   A:CB X:1 Y:52 P:FD SP:F9
19225 C724            BEQ F0      immediate   A:CB X:1 Y:52 P:7F SP:F9
19228 C728            INY C8        implied   A:CB X:1 Y:52 P:7F SP:F9
19231 C729            DEX CA        implied   A:CB X:1 Y:53 P:7D SP:F9
19234 C72A            BNE D0      immediate   A:CB X:0 Y:53 P:7F SP:F9
19237 C72C            RTS 60        implied   A:CB X:0 Y:53 P:7F SP:F9
19244 C6AC            JSR 20       absolute   A:CB X:0 Y:53 P:7F SP:FB
19249 C6B7            LDA A9      immediate   A:CB X:0 Y:53 P:7F SP:F9
19252 C6B9            PHA 48        implied   A:34 X:0 Y:53 P:7D SP:F9
19256 C6BA            LDA A9      immediate   A:34 X:0 Y:53 P:7D SP:F8
19259 C6BC            PLP 28        implied   A:55 X:0 Y:53 P:7D SP:F8
19264 C6BD   A:55 X:0 Y:53 P:34 SP:F9
19268 C6BF   A:55 X:0 Y:53 P:34 SP:F9
19272 C6C1   A:55 X:0 Y:53 P:34 SP:F9
19276 C6C3            NOP EA        implied   A:55 X:0 Y:53 P:34 SP:F9
19279 C6C4            NOP EA        implied   A:55 X:0 Y:53 P:34 SP:F9
19282 C6C5            NOP EA        implied   A:55 X:0 Y:53 P:34 SP:F9
19285 C6C6            NOP EA        implied   A:55 X:0 Y:53 P:34 SP:F9
19288 C6C7            PHP 8        implied   A:55 X:0 Y:53 P:34 SP:F9
19292 C6C8            PHA 48        implied   A:55 X:0 Y:53 P:34 SP:F8
19296 C6C9   A:55 X:0 Y:53 P:34 SP:F7
19301 C6CC            NOP EA        implied   A:55 X:0 Y:53 P:34 SP:F7
19304 C6CD            NOP EA        implied   A:55 X:0 Y:53 P:34 SP:F7
19307 C6CE            NOP EA        implied   A:55 X:0 Y:53 P:34 SP:F7
19310 C6CF            NOP EA        implied   A:55 X:0 Y:53 P:34 SP:F7
19313 C6D0            PHP 8        implied   A:55 X:0 Y:53 P:34 SP:F7
19317 C6D1            PHA 48        implied   A:55 X:0 Y:53 P:34 SP:F6
19321 C6D2   A:55 X:0 Y:53 P:34 SP:F5
19326 C6D4   A:55 X:0 Y:53 P:34 SP:F5
19331 C6D6   A:55 X:0 Y:53 P:34 SP:F5
19336 C6D8   A:55 X:0 Y:53 P:34 SP:F5
19341 C6DA   A:55 X:0 Y:53 P:34 SP:F5
19346 C6DC   A:55 X:0 Y:53 P:34 SP:F5
19351 C6DE            NOP EA        implied   A:55 X:0 Y:53 P:34 SP:F5
19354 C6DF            NOP EA        implied   A:55 X:0 Y:53 P:34 SP:F5
19357 C6E0            NOP EA        implied   A:55 X:0 Y:53 P:34 SP:F5
19360 C6E1            NOP EA        implied   A:55 X:0 Y:53 P:34 SP:F5
19363 C6E2            PHP 8        implied   A:55 X:0 Y:53 P:34 SP:F5
19367 C6E3            PHA 48        implied   A:55 X:0 Y:53 P:34 SP:F4
19371 C6E4   A:55 X:0 Y:53 P:34 SP:F3
19372 C6E5   A:55 X:0 Y:53 P:34 SP:F3
19373 C6E6   A:55 X:0 Y:53 P:34 SP:F3
19374 C6E7   A:55 X:0 Y:53 P:34 SP:F3
19375 C6E8   A:55 X:0 Y:53 P:34 SP:F3
19376 C6E9   A:55 X:0 Y:53 P:34 SP:F3
19377 C6EA   A:55 X:0 Y:53 P:34 SP:F3
19380 C6EC            NOP EA        implied   A:55 X:0 Y:53 P:34 SP:F3
19383 C6ED            NOP EA        implied   A:55 X:0 Y:53 P:34 SP:F3
19386 C6EE            NOP EA        implied   A:55 X:0 Y:53 P:34 SP:F3
19389 C6EF            NOP EA        implied   A:55 X:0 Y:53 P:34 SP:F3
19392 C6F0            PHP 8        implied   A:55 X:0 Y:53 P:34 SP:F3
19396 C6F1            PHA 48        implied   A:55 X:0 Y:53 P:34 SP:F2
19400 C6F2   A:55 X:0 Y:53 P:34 SP:F1
19405 C6F5   A:55 X:0 Y:53 P:34 SP:F1
19410 C6F8   A:55 X:0 Y:53 P:34 SP:F1
19415 C6FB   A:55 X:0 Y:53 P:34 SP:F1
19420 C6FE   A:55 X:0 Y:53 P:34 SP:F1
19425 C701   A:55 X:0 Y:53 P:34 SP:F1
19430 C704            NOP EA        implied   A:55 X:0 Y:53 P:34 SP:F1
19433 C705            NOP EA        implied   A:55 X:0 Y:53 P:34 SP:F1
19436 C706            NOP EA        implied   A:55 X:0 Y:53 P:34 SP:F1
19439 C707            NOP EA        implied   A:55 X:0 Y:53 P:34 SP:F1
19442 C708            PHP 8        implied   A:55 X:0 Y:53 P:34 SP:F1
19446 C709            PHA 48        implied   A:55 X:0 Y:53 P:34 SP:F0
19450 C70A            LDX A2      immediate   A:55 X:0 Y:53 P:34 SP:EF
19453 C70C            PLA 68        implied   A:55 X:5 Y:53 P:34 SP:EF
19458 C70D            CMP C9      immediate   A:55 X:5 Y:53 P:34 SP:F0
19461 C70F            BEQ F0      immediate   A:55 X:5 Y:53 P:37 SP:F0
19464 C71B            PLA 68        implied   A:55 X:5 Y:53 P:37 SP:F0
19469 C71C            AND 29      immediate   A:34 X:5 Y:53 P:35 SP:F1
19472 C71E            CMP C9      immediate   A:0 X:5 Y:53 P:37 SP:F1
19475 C720            BEQ F0      immediate   A:0 X:5 Y:53 P:37 SP:F1
19478 C728            INY C8        implied   A:0 X:5 Y:53 P:37 SP:F1
19481 C729            DEX CA        implied   A:0 X:5 Y:54 P:35 SP:F1
19484 C72A            BNE D0      immediate   A:0 X:4 Y:54 P:35 SP:F1
19487 C70C            PLA 68        implied   A:0 X:4 Y:54 P:35 SP:F1
19492 C70D            CMP C9      immediate   A:55 X:4 Y:54 P:35 SP:F2
19495 C70F            BEQ F0      immediate   A:55 X:4 Y:54 P:37 SP:F2
19498 C71B            PLA 68        implied   A:55 X:4 Y:54 P:37 SP:F2
19503 C71C            AND 29      immediate   A:34 X:4 Y:54 P:35 SP:F3
19506 C71E            CMP C9      immediate   A:0 X:4 Y:54 P:37 SP:F3
19509 C720            BEQ F0      immediate   A:0 X:4 Y:54 P:37 SP:F3
19512 C728            INY C8        implied   A:0 X:4 Y:54 P:37 SP:F3
19515 C729            DEX CA        implied   A:0 X:4 Y:55 P:35 SP:F3
19518 C72A            BNE D0      immediate   A:0 X:3 Y:55 P:35 SP:F3
19521 C70C            PLA 68        implied   A:0 X:3 Y:55 P:35 SP:F3
19526 C70D            CMP C9      immediate   A:55 X:3 Y:55 P:35 SP:F4
19529 C70F            BEQ F0      immediate   A:55 X:3 Y:55 P:37 SP:F4
19532 C71B            PLA 68        implied   A:55 X:3 Y:55 P:37 SP:F4
19537 C71C            AND 29      immediate   A:34 X:3 Y:55 P:35 SP:F5
19540 C71E            CMP C9      immediate   A:0 X:3 Y:55 P:37 SP:F5
19543 C720            BEQ F0      immediate   A:0 X:3 Y:55 P:37 SP:F5
19546 C728            INY C8        implied   A:0 X:3 Y:55 P:37 SP:F5
19549 C729            DEX CA        implied   A:0 X:3 Y:56 P:35 SP:F5
19552 C72A            BNE D0      immediate   A:0 X:2 Y:56 P:35 SP:F5
19555 C70C            PLA 68        implied   A:0 X:2 Y:56 P:35 SP:F5
19560 C70D            CMP C9      immediate   A:55 X:2 Y:56 P:35 SP:F6
19563 C70F            BEQ F0      immediate   A:55 X:2 Y:56 P:37 SP:F6
19566 C71B            PLA 68        implied   A:55 X:2 Y:56 P:37 SP:F6
19571 C71C            AND 29      immediate   A:34 X:2 Y:56 P:35 SP:F7
19574 C71E            CMP C9      immediate   A:0 X:2 Y:56 P:37 SP:F7
19577 C720            BEQ F0      immediate   A:0 X:2 Y:56 P:37 SP:F7
19580 C728            INY C8        implied   A:0 X:2 Y:56 P:37 SP:F7
19583 C729            DEX CA        implied   A:0 X:2 Y:57 P:35 SP:F7
19586 C72A            BNE D0      immediate   A:0 X:1 Y:57 P:35 SP:F7
19589 C70C            PLA 68        implied   A:0 X:1 Y:57 P:35 SP:F7
19594 C70D            CMP C9      immediate   A:55 X:1 Y:57 P:35 SP:F8
19597 C70F            BEQ F0      immediate   A:55 X:1 Y:57 P:37 SP:F8
19600 C71B            PLA 68        implied   A:55 X:1 Y:57 P:37 SP:F8
19605 C71C            AND 29      immediate   A:34 X:1 Y:57 P:35 SP:F9
19608 C71E            CMP C9      immediate   A:0 X:1 Y:57 P:37 SP:F9
19611 C720            BEQ F0      immediate   A:0 X:1 Y:57 P:37 SP:F9
19614 C728            INY C8        implied   A:0 X:1 Y:57 P:37 SP:F9
19617 C729            DEX CA        implied   A:0 X:1 Y:58 P:35 SP:F9
19620 C72A            BNE D0      immediate   A:0 X:0 Y:58 P:37 SP:F9
19623 C72C            RTS 60        implied   A:0 X:0 Y:58 P:37 SP:F9
19630 C6AF            RTS 60        implied   A:0 X:0 Y:58 P:37 SP:FB
19637 C632            JSR 20       absolute   A:0 X:0 Y:58 P:37 SP:FD
19642 E51E            LDA A9      immediate   A:0 X:0 Y:58 P:37 SP:FB
19645 E520            STA 8D       absolute   A:55 X:0 Y:58 P:35 SP:FB
19650 E523            LDA A9      immediate   A:55 X:0 Y:58 P:35 SP:FB
19653 E525            STA 8D       absolute   A:AA X:0 Y:58 P:B5 SP:FB
19658 E528            LDA A9      immediate   A:AA X:0 Y:58 P:B5 SP:FB
19661 E52A            STA 85       zeropage   A:80 X:0 Y:58 P:B5 SP:FB
19665 E52C            LDA A9      immediate   A:80 X:0 Y:58 P:B5 SP:FB
19668 E52E            STA 85       zeropage   A:5 X:0 Y:58 P:35 SP:FB
19672 E530            LDA A9      immediate   A:5 X:0 Y:58 P:35 SP:FB
19675 E532            STA 85       zeropage   A:32 X:0 Y:58 P:35 SP:FB
19679 E534            LDA A9      immediate   A:32 X:0 Y:58 P:35 SP:FB
19682 E536            STA 85       zeropage   A:4 X:0 Y:58 P:35 SP:FB
19686 E538            LDX A2      immediate   A:4 X:0 Y:58 P:35 SP:FB
19689 E53A            LDY A0      immediate   A:4 X:3 Y:58 P:35 SP:FB
19692 E53C            LDA A9      immediate   A:4 X:3 Y:77 P:35 SP:FB
19695 E53E            STA 85       zeropage   A:FF X:3 Y:77 P:B5 SP:FB
19699 E540            BIT 24       zeropage   A:FF X:3 Y:77 P:B5 SP:FB
19703 E542            SEC 38        implied   A:FF X:3 Y:77 P:F5 SP:FB
19706 E543            LDA A9      immediate   A:FF X:3 Y:77 P:F5 SP:FB
19709 E545   A:0 X:3 Y:77 P:77 SP:FB
19712 E546            RTI 40        implied   A:0 X:3 Y:77 P:77 SP:FB
19719 00C6            BRK 0                  A:0 X:3 Y:77 P:34 SP:FE
19727 C5F5            LDX A2      immediate   A:0 X:3 Y:77 P:34 SP:FB
19730 C5F7            STX 86       zeropage   A:0 X:0 Y:77 P:36 SP:FB
19734 C5F9            STX 86       zeropage   A:0 X:0 Y:77 P:36 SP:FB
19738 C5FB            STX 86       zeropage   A:0 X:0 Y:77 P:36 SP:FB
19742 C5FD            JSR 20       absolute   A:0 X:0 Y:77 P:36 SP:FB
19747 C72D            NOP EA        implied   A:0 X:0 Y:77 P:36 SP:F9
19750 C72E            SEC 38        implied   A:0 X:0 Y:77 P:36 SP:F9
19753 C72F            BCS B0      immediate   A:0 X:0 Y:77 P:37 SP:F9
19756 C735            NOP EA        implied   A:0 X:0 Y:77 P:37 SP:F9
19759 C736            CLC 18        implied   A:0 X:0 Y:77 P:37 SP:F9
19762 C737            BCS B0      immediate   A:0 X:0 Y:77 P:36 SP:F9
19765 C739           JMPa 4C       absolute   A:0 X:0 Y:77 P:36 SP:F9
19770 C740            NOP EA        implied   A:0 X:0 Y:77 P:36 SP:F9
19773 C741            SEC 38        implied   A:0 X:0 Y:77 P:36 SP:F9
19776 C742            BCC 90      immediate   A:0 X:0 Y:77 P:37 SP:F9
19779 C744           JMPa 4C       absolute   A:0 X:0 Y:77 P:37 SP:F9
19784 C74B            NOP EA        implied   A:0 X:0 Y:77 P:37 SP:F9
19787 C74C            CLC 18        implied   A:0 X:0 Y:77 P:37 SP:F9
19790 C74D            BCC 90      immediate   A:0 X:0 Y:77 P:36 SP:F9
19793 C753            NOP EA        implied   A:0 X:0 Y:77 P:36 SP:F9
19796 C754            LDA A9      immediate   A:0 X:0 Y:77 P:36 SP:F9
19799 C756            BEQ F0      immediate   A:0 X:0 Y:77 P:36 SP:F9
19802 C75C            NOP EA        implied   A:0 X:0 Y:77 P:36 SP:F9
19805 C75D            LDA A9      immediate   A:0 X:0 Y:77 P:36 SP:F9
19808 C75F            BEQ F0      immediate   A:40 X:0 Y:77 P:34 SP:F9
19811 C761           JMPa 4C       absolute   A:40 X:0 Y:77 P:34 SP:F9
19816 C768            NOP EA        implied   A:40 X:0 Y:77 P:34 SP:F9
19819 C769            LDA A9      immediate   A:40 X:0 Y:77 P:34 SP:F9
19822 C76B            BNE D0      immediate   A:40 X:0 Y:77 P:34 SP:F9
19825 C771            NOP EA        implied   A:40 X:0 Y:77 P:34 SP:F9
19828 C772            LDA A9      immediate   A:40 X:0 Y:77 P:34 SP:F9
19831 C774            BNE D0      immediate   A:0 X:0 Y:77 P:36 SP:F9
19834 C776           JMPa 4C       absolute   A:0 X:0 Y:77 P:36 SP:F9
19839 C77D            NOP EA        implied   A:0 X:0 Y:77 P:36 SP:F9
19842 C77E            LDA A9      immediate   A:0 X:0 Y:77 P:36 SP:F9
19845 C780            STA 85       zeropage   A:FF X:0 Y:77 P:B4 SP:F9
19849 C782            BIT 24       zeropage   A:FF X:0 Y:77 P:B4 SP:F9
19853 C784            BVS 70      immediate   A:FF X:0 Y:77 P:F4 SP:F9
19856 C78A            NOP EA        implied   A:FF X:0 Y:77 P:F4 SP:F9
19859 C78B            BIT 24       zeropage   A:FF X:0 Y:77 P:F4 SP:F9
19863 C78D            BVC 50      immediate   A:FF X:0 Y:77 P:F4 SP:F9
19866 C78F           JMPa 4C       absolute   A:FF X:0 Y:77 P:F4 SP:F9
19871 C796            NOP EA        implied   A:FF X:0 Y:77 P:F4 SP:F9
19874 C797            LDA A9      immediate   A:FF X:0 Y:77 P:F4 SP:F9
19877 C799            STA 85       zeropage   A:0 X:0 Y:77 P:76 SP:F9
19881 C79B            BIT 24       zeropage   A:0 X:0 Y:77 P:76 SP:F9
19885 C79D            BVC 50      immediate   A:0 X:0 Y:77 P:36 SP:F9
19888 C7A3            NOP EA        implied   A:0 X:0 Y:77 P:36 SP:F9
19891 C7A4            BIT 24       zeropage   A:0 X:0 Y:77 P:36 SP:F9
19895 C7A6            BVS 70      immediate   A:0 X:0 Y:77 P:36 SP:F9
19898 C7A8           JMPa 4C       absolute   A:0 X:0 Y:77 P:36 SP:F9
19903 C7AF            NOP EA        implied   A:0 X:0 Y:77 P:36 SP:F9
19906 C7B0            LDA A9      immediate   A:0 X:0 Y:77 P:36 SP:F9
19909 C7B2            BPL 10      immediate   A:0 X:0 Y:77 P:36 SP:F9
19912 C7B8            NOP EA        implied   A:0 X:0 Y:77 P:36 SP:F9
19915 C7B9            LDA A9      immediate   A:0 X:0 Y:77 P:36 SP:F9
19918 C7BB            BPL 10      immediate   A:80 X:0 Y:77 P:B4 SP:F9
19921 C7BD           JMPa 4C       absolute   A:80 X:0 Y:77 P:B4 SP:F9
19926 C7D9            NOP EA        implied   A:80 X:0 Y:77 P:B4 SP:F9
19929 C7DA            RTS 60        implied   A:80 X:0 Y:77 P:B4 SP:F9
19936 C600            JSR 20       absolute   A:80 X:0 Y:77 P:B4 SP:FB
19941 C7DB            NOP EA        implied   A:80 X:0 Y:77 P:B4 SP:F9
19944 C7DC            LDA A9      immediate   A:80 X:0 Y:77 P:B4 SP:F9
19947 C7DE            STA 85       zeropage   A:FF X:0 Y:77 P:B4 SP:F9
19951 C7E0            BIT 24       zeropage   A:FF X:0 Y:77 P:B4 SP:F9
19955 C7E2            LDA A9      immediate   A:FF X:0 Y:77 P:F4 SP:F9
19958 C7E4            SEC 38        implied   A:0 X:0 Y:77 P:76 SP:F9
19961 C7E5            SEI 78        implied   A:0 X:0 Y:77 P:77 SP:F9
19964 C7E6            SED F8        implied   A:0 X:0 Y:77 P:77 SP:F9
19967 C7E7            PHP 8        implied   A:0 X:0 Y:77 P:7F SP:F9
19971 C7E8            PLA 68        implied   A:0 X:0 Y:77 P:7F SP:F8
19976 C7E9            AND 29      immediate   A:7F X:0 Y:77 P:7D SP:F9
19979 C7EB            CMP C9      immediate   A:6F X:0 Y:77 P:7D SP:F9
19982 C7ED            BEQ F0      immediate   A:6F X:0 Y:77 P:7F SP:F9
19985 C7F3            NOP EA        implied   A:6F X:0 Y:77 P:7F SP:F9
19988 C7F4            LDA A9      immediate   A:6F X:0 Y:77 P:7F SP:F9
19991 C7F6            STA 85       zeropage   A:40 X:0 Y:77 P:7D SP:F9
19995 C7F8            BIT 24       zeropage   A:40 X:0 Y:77 P:7D SP:F9
19999 C7FA            CLD D8        implied   A:40 X:0 Y:77 P:7D SP:F9
20002 C7FB            LDA A9      immediate   A:40 X:0 Y:77 P:75 SP:F9
20005 C7FD            CLC 18        implied   A:10 X:0 Y:77 P:75 SP:F9
20008 C7FE            PHP 8        implied   A:10 X:0 Y:77 P:74 SP:F9
20012 C7FF            PLA 68        implied   A:10 X:0 Y:77 P:74 SP:F8
20017 C800            AND 29      immediate   A:74 X:0 Y:77 P:74 SP:F9
20020 C802            CMP C9      immediate   A:64 X:0 Y:77 P:74 SP:F9
20023 C804            BEQ F0      immediate   A:64 X:0 Y:77 P:77 SP:F9
20026 C80A            NOP EA        implied   A:64 X:0 Y:77 P:77 SP:F9
20029 C80B            LDA A9      immediate   A:64 X:0 Y:77 P:77 SP:F9
20032 C80D            STA 85       zeropage   A:80 X:0 Y:77 P:F5 SP:F9
20036 C80F            BIT 24       zeropage   A:80 X:0 Y:77 P:F5 SP:F9
20040 C811            SED F8        implied   A:80 X:0 Y:77 P:B5 SP:F9
20043 C812            LDA A9      immediate   A:80 X:0 Y:77 P:BD SP:F9
20046 C814            SEC 38        implied   A:0 X:0 Y:77 P:3F SP:F9
20049 C815            PHP 8        implied   A:0 X:0 Y:77 P:3F SP:F9
20053 C816            PLA 68        implied   A:0 X:0 Y:77 P:3F SP:F8
20058 C817            AND 29      immediate   A:3F X:0 Y:77 P:3D SP:F9
20061 C819            CMP C9      immediate   A:2F X:0 Y:77 P:3D SP:F9
20064 C81B            BEQ F0      immediate   A:2F X:0 Y:77 P:3F SP:F9
20067 C821            NOP EA        implied   A:2F X:0 Y:77 P:3F SP:F9
20070 C822            LDA A9      immediate   A:2F X:0 Y:77 P:3F SP:F9
20073 C824            PHA 48        implied   A:FF X:0 Y:77 P:BD SP:F9
20077 C825            PLP 28        implied   A:FF X:0 Y:77 P:BD SP:F8
20082 C826            BNE D0      immediate   A:FF X:0 Y:77 P:FF SP:F9
20085 C828            BPL 10      immediate   A:FF X:0 Y:77 P:FF SP:F9
20088 C82A            BVC 50      immediate   A:FF X:0 Y:77 P:FF SP:F9
20091 C82C            BCC 90      immediate   A:FF X:0 Y:77 P:FF SP:F9
20094 C82E           JMPa 4C       absolute   A:FF X:0 Y:77 P:FF SP:F9
20099 C835            NOP EA        implied   A:FF X:0 Y:77 P:FF SP:F9
20102 C836            LDA A9      immediate   A:FF X:0 Y:77 P:FF SP:F9
20105 C838            PHA 48        implied   A:4 X:0 Y:77 P:7D SP:F9
20109 C839            PLP 28        implied   A:4 X:0 Y:77 P:7D SP:F8
20114 C83A            BEQ F0      immediate   A:4 X:0 Y:77 P:4 SP:F9
20117 C83C            BMI 30      immediate   A:4 X:0 Y:77 P:4 SP:F9
20120 C83E            BVS 70      immediate   A:4 X:0 Y:77 P:4 SP:F9
20123 C840            BCS B0      immediate   A:4 X:0 Y:77 P:4 SP:F9
20126 C842           JMPa 4C       absolute   A:4 X:0 Y:77 P:4 SP:F9
20131 C849            NOP EA        implied   A:4 X:0 Y:77 P:4 SP:F9
20134 C84A            SED F8        implied   A:4 X:0 Y:77 P:4 SP:F9
20137 C84B            LDA A9      immediate   A:4 X:0 Y:77 P:C SP:F9
20140 C84D            STA 85       zeropage   A:FF X:0 Y:77 P:8C SP:F9
20144 C84F            BIT 24       zeropage   A:FF X:0 Y:77 P:8C SP:F9
20148 C851            CLC 18        implied   A:FF X:0 Y:77 P:CC SP:F9
20151 C852            LDA A9      immediate   A:FF X:0 Y:77 P:CC SP:F9
20154 C854            PHA 48        implied   A:0 X:0 Y:77 P:4E SP:F9
20158 C855            LDA A9      immediate   A:0 X:0 Y:77 P:4E SP:F8
20161 C857            PLA 68        implied   A:FF X:0 Y:77 P:CC SP:F8
20166 C858            BNE D0      immediate   A:0 X:0 Y:77 P:4E SP:F9
20169 C85A            BMI 30      immediate   A:0 X:0 Y:77 P:4E SP:F9
20172 C85C            BVC 50      immediate   A:0 X:0 Y:77 P:4E SP:F9
20175 C85E            BCS B0      immediate   A:0 X:0 Y:77 P:4E SP:F9
20178 C860           JMPa 4C       absolute   A:0 X:0 Y:77 P:4E SP:F9
20183 C867            NOP EA        implied   A:0 X:0 Y:77 P:4E SP:F9
20186 C868            LDA A9      immediate   A:0 X:0 Y:77 P:4E SP:F9
20189 C86A            STA 85       zeropage   A:0 X:0 Y:77 P:4E SP:F9
20193 C86C            BIT 24       zeropage   A:0 X:0 Y:77 P:4E SP:F9
20197 C86E            SEC 38        implied   A:0 X:0 Y:77 P:E SP:F9
20200 C86F            LDA A9      immediate   A:0 X:0 Y:77 P:F SP:F9
20203 C871            PHA 48        implied   A:FF X:0 Y:77 P:8D SP:F9
20207 C872            LDA A9      immediate   A:FF X:0 Y:77 P:8D SP:F8
20210 C874            PLA 68        implied   A:0 X:0 Y:77 P:F SP:F8
20215 C875            BEQ F0      immediate   A:FF X:0 Y:77 P:8D SP:F9
20218 C877            BPL 10      immediate   A:FF X:0 Y:77 P:8D SP:F9
20221 C879            BVS 70      immediate   A:FF X:0 Y:77 P:8D SP:F9
20224 C87B            BCC 90      immediate   A:FF X:0 Y:77 P:8D SP:F9
20227 C87D           JMPa 4C       absolute   A:FF X:0 Y:77 P:8D SP:F9
20232 C884            RTS 60        implied   A:FF X:0 Y:77 P:8D SP:F9
20239 C603            JSR 20       absolute   A:FF X:0 Y:77 P:8D SP:FB
20244 C885            NOP EA        implied   A:FF X:0 Y:77 P:8D SP:F9
20247 C886            CLC 18        implied   A:FF X:0 Y:77 P:8D SP:F9
20250 C887            LDA A9      immediate   A:FF X:0 Y:77 P:8C SP:F9
20253 C889            STA 85       zeropage   A:FF X:0 Y:77 P:8C SP:F9
20257 C88B            BIT 24       zeropage   A:FF X:0 Y:77 P:8C SP:F9
20261 C88D            LDA A9      immediate   A:FF X:0 Y:77 P:CC SP:F9
20264 C88F            ORA 9      immediate   A:55 X:0 Y:77 P:4C SP:F9
20267 C891            BCS B0      immediate   A:FF X:0 Y:77 P:CC SP:F9
20270 C893            BPL 10      immediate   A:FF X:0 Y:77 P:CC SP:F9
20273 C895            CMP C9      immediate   A:FF X:0 Y:77 P:CC SP:F9
20276 C897            BNE D0      immediate   A:FF X:0 Y:77 P:4F SP:F9
20279 C899            BVC 50      immediate   A:FF X:0 Y:77 P:4F SP:F9
20282 C89B           JMPa 4C       absolute   A:FF X:0 Y:77 P:4F SP:F9
20287 C8A2            NOP EA        implied   A:FF X:0 Y:77 P:4F SP:F9
20290 C8A3            SEC 38        implied   A:FF X:0 Y:77 P:4F SP:F9
20293 C8A4            CLV B8        implied   A:FF X:0 Y:77 P:4F SP:F9
20296 C8A5            LDA A9      immediate   A:FF X:0 Y:77 P:F SP:F9
20299 C8A7            ORA 9      immediate   A:0 X:0 Y:77 P:F SP:F9
20302 C8A9            BNE D0      immediate   A:0 X:0 Y:77 P:F SP:F9
20305 C8AB            BVS 70      immediate   A:0 X:0 Y:77 P:F SP:F9
20308 C8AD            BCC 90      immediate   A:0 X:0 Y:77 P:F SP:F9
20311 C8AF            BMI 30      immediate   A:0 X:0 Y:77 P:F SP:F9
20314 C8B1           JMPa 4C       absolute   A:0 X:0 Y:77 P:F SP:F9
20319 C8B8            NOP EA        implied   A:0 X:0 Y:77 P:F SP:F9
20322 C8B9            CLC 18        implied   A:0 X:0 Y:77 P:F SP:F9
20325 C8BA            BIT 24       zeropage   A:0 X:0 Y:77 P:E SP:F9
20329 C8BC            LDA A9      immediate   A:0 X:0 Y:77 P:CE SP:F9
20332 C8BE            AND 29      immediate   A:55 X:0 Y:77 P:4C SP:F9
20335 C8C0            BNE D0      immediate   A:0 X:0 Y:77 P:4E SP:F9
20338 C8C2            BVC 50      immediate   A:0 X:0 Y:77 P:4E SP:F9
20341 C8C4            BCS B0      immediate   A:0 X:0 Y:77 P:4E SP:F9
20344 C8C6            BMI 30      immediate   A:0 X:0 Y:77 P:4E SP:F9
20347 C8C8           JMPa 4C       absolute   A:0 X:0 Y:77 P:4E SP:F9
20352 C8CF            NOP EA        implied   A:0 X:0 Y:77 P:4E SP:F9
20355 C8D0            SEC 38        implied   A:0 X:0 Y:77 P:4E SP:F9
20358 C8D1            CLV B8        implied   A:0 X:0 Y:77 P:4F SP:F9
20361 C8D2            LDA A9      immediate   A:0 X:0 Y:77 P:F SP:F9
20364 C8D4            AND 29      immediate   A:F8 X:0 Y:77 P:8D SP:F9
20367 C8D6            BCC 90      immediate   A:E8 X:0 Y:77 P:8D SP:F9
20370 C8D8            BPL 10      immediate   A:E8 X:0 Y:77 P:8D SP:F9
20373 C8DA            CMP C9      immediate   A:E8 X:0 Y:77 P:8D SP:F9
20376 C8DC            BNE D0      immediate   A:E8 X:0 Y:77 P:F SP:F9
20379 C8DE            BVS 70      immediate   A:E8 X:0 Y:77 P:F SP:F9
20382 C8E0           JMPa 4C       absolute   A:E8 X:0 Y:77 P:F SP:F9
20387 C8E7            NOP EA        implied   A:E8 X:0 Y:77 P:F SP:F9
20390 C8E8            CLC 18        implied   A:E8 X:0 Y:77 P:F SP:F9
20393 C8E9            BIT 24       zeropage   A:E8 X:0 Y:77 P:E SP:F9
20397 C8EB            LDA A9      immediate   A:E8 X:0 Y:77 P:CC SP:F9
20400 C8ED            EOR 49      immediate   A:5F X:0 Y:77 P:4C SP:F9
20403 C8EF            BCS B0      immediate   A:F5 X:0 Y:77 P:CC SP:F9
20406 C8F1            BPL 10      immediate   A:F5 X:0 Y:77 P:CC SP:F9
20409 C8F3            CMP C9      immediate   A:F5 X:0 Y:77 P:CC SP:F9
20412 C8F5            BNE D0      immediate   A:F5 X:0 Y:77 P:4F SP:F9
20415 C8F7            BVC 50      immediate   A:F5 X:0 Y:77 P:4F SP:F9
20418 C8F9           JMPa 4C       absolute   A:F5 X:0 Y:77 P:4F SP:F9
20423 C900            NOP EA        implied   A:F5 X:0 Y:77 P:4F SP:F9
20426 C901            SEC 38        implied   A:F5 X:0 Y:77 P:4F SP:F9
20429 C902            CLV B8        implied   A:F5 X:0 Y:77 P:4F SP:F9
20432 C903            LDA A9      immediate   A:F5 X:0 Y:77 P:F SP:F9
20435 C905            EOR 49      immediate   A:70 X:0 Y:77 P:D SP:F9
20438 C907            BNE D0      immediate   A:0 X:0 Y:77 P:F SP:F9
20441 C909            BVS 70      immediate   A:0 X:0 Y:77 P:F SP:F9
20444 C90B            BCC 90      immediate   A:0 X:0 Y:77 P:F SP:F9
20447 C90D            BMI 30      immediate   A:0 X:0 Y:77 P:F SP:F9
20450 C90F           JMPa 4C       absolute   A:0 X:0 Y:77 P:F SP:F9
20455 C916            NOP EA        implied   A:0 X:0 Y:77 P:F SP:F9
20458 C917            CLC 18        implied   A:0 X:0 Y:77 P:F SP:F9
20461 C918            BIT 24       zeropage   A:0 X:0 Y:77 P:E SP:F9
20465 C91A            LDA A9      immediate   A:0 X:0 Y:77 P:CE SP:F9
20468 C91C            ADC 69      immediate   A:0 X:0 Y:77 P:4E SP:F9
20471 C91E            BMI 30      immediate   A:69 X:0 Y:77 P:C SP:F9
20474 C920            BCS B0      immediate   A:69 X:0 Y:77 P:C SP:F9
20477 C922            CMP C9      immediate   A:69 X:0 Y:77 P:C SP:F9
20480 C924            BNE D0      immediate   A:69 X:0 Y:77 P:F SP:F9
20483 C926            BVS 70      immediate   A:69 X:0 Y:77 P:F SP:F9
20486 C928           JMPa 4C       absolute   A:69 X:0 Y:77 P:F SP:F9
20491 C92F            NOP EA        implied   A:69 X:0 Y:77 P:F SP:F9
20494 C930            SEC 38        implied   A:69 X:0 Y:77 P:F SP:F9
20497 C931            SED F8        implied   A:69 X:0 Y:77 P:F SP:F9
20500 C932            BIT 24       zeropage   A:69 X:0 Y:77 P:F SP:F9
20504 C934            LDA A9      immediate   A:69 X:0 Y:77 P:CD SP:F9
20507 C936            ADC 69      immediate   A:1 X:0 Y:77 P:4D SP:F9
20510 C938            BMI 30      immediate   A:6B X:0 Y:77 P:C SP:F9
20513 C93A            BCS B0      immediate   A:6B X:0 Y:77 P:C SP:F9
20516 C93C            CMP C9      immediate   A:6B X:0 Y:77 P:C SP:F9
20519 C93E            BNE D0      immediate   A:6B X:0 Y:77 P:F SP:F9
20522 C940            BVS 70      immediate   A:6B X:0 Y:77 P:F SP:F9
20525 C942           JMPa 4C       absolute   A:6B X:0 Y:77 P:F SP:F9
20530 C949            NOP EA        implied   A:6B X:0 Y:77 P:F SP:F9
20533 C94A            CLD D8        implied   A:6B X:0 Y:77 P:F SP:F9
20536 C94B            SEC 38        implied   A:6B X:0 Y:77 P:7 SP:F9
20539 C94C            CLV B8        implied   A:6B X:0 Y:77 P:7 SP:F9
20542 C94D            LDA A9      immediate   A:6B X:0 Y:77 P:7 SP:F9
20545 C94F            ADC 69      immediate   A:7F X:0 Y:77 P:5 SP:F9
20548 C951            BPL 10      immediate   A:FF X:0 Y:77 P:C4 SP:F9
20551 C953            BCS B0      immediate   A:FF X:0 Y:77 P:C4 SP:F9
20554 C955            CMP C9      immediate   A:FF X:0 Y:77 P:C4 SP:F9
20557 C957            BNE D0      immediate   A:FF X:0 Y:77 P:47 SP:F9
20560 C959            BVC 50      immediate   A:FF X:0 Y:77 P:47 SP:F9
20563 C95B           JMPa 4C       absolute   A:FF X:0 Y:77 P:47 SP:F9
20568 C962            NOP EA        implied   A:FF X:0 Y:77 P:47 SP:F9
20571 C963            CLC 18        implied   A:FF X:0 Y:77 P:47 SP:F9
20574 C964            BIT 24       zeropage   A:FF X:0 Y:77 P:46 SP:F9
20578 C966            LDA A9      immediate   A:FF X:0 Y:77 P:C4 SP:F9
20581 C968            ADC 69      immediate   A:7F X:0 Y:77 P:44 SP:F9
20584 C96A            BPL 10      immediate   A:FF X:0 Y:77 P:84 SP:F9
20587 C96C            BCS B0      immediate   A:FF X:0 Y:77 P:84 SP:F9
20590 C96E            CMP C9      immediate   A:FF X:0 Y:77 P:84 SP:F9
20593 C970            BNE D0      immediate   A:FF X:0 Y:77 P:7 SP:F9
20596 C972            BVS 70      immediate   A:FF X:0 Y:77 P:7 SP:F9
20599 C974           JMPa 4C       absolute   A:FF X:0 Y:77 P:7 SP:F9
20604 C97B            NOP EA        implied   A:FF X:0 Y:77 P:7 SP:F9
20607 C97C            SEC 38        implied   A:FF X:0 Y:77 P:7 SP:F9
20610 C97D            CLV B8        implied   A:FF X:0 Y:77 P:7 SP:F9
20613 C97E            LDA A9      immediate   A:FF X:0 Y:77 P:7 SP:F9
20616 C980            ADC 69      immediate   A:7F X:0 Y:77 P:5 SP:F9
20619 C982            BNE D0      immediate   A:0 X:0 Y:77 P:7 SP:F9
20622 C984            BMI 30      immediate   A:0 X:0 Y:77 P:7 SP:F9
20625 C986            BVS 70      immediate   A:0 X:0 Y:77 P:7 SP:F9
20628 C988            BCC 90      immediate   A:0 X:0 Y:77 P:7 SP:F9
20631 C98A           JMPa 4C       absolute   A:0 X:0 Y:77 P:7 SP:F9
20636 C991            NOP EA        implied   A:0 X:0 Y:77 P:7 SP:F9
20639 C992            SEC 38        implied   A:0 X:0 Y:77 P:7 SP:F9
20642 C993            CLV B8        implied   A:0 X:0 Y:77 P:7 SP:F9
20645 C994            LDA A9      immediate   A:0 X:0 Y:77 P:7 SP:F9
20648 C996            BEQ F0      immediate   A:9F X:0 Y:77 P:85 SP:F9
20651 C998            BPL 10      immediate   A:9F X:0 Y:77 P:85 SP:F9
20654 C99A            BVS 70      immediate   A:9F X:0 Y:77 P:85 SP:F9
20657 C99C            BCC 90      immediate   A:9F X:0 Y:77 P:85 SP:F9
20660 C99E           JMPa 4C       absolute   A:9F X:0 Y:77 P:85 SP:F9
20665 C9A5            NOP EA        implied   A:9F X:0 Y:77 P:85 SP:F9
20668 C9A6            CLC 18        implied   A:9F X:0 Y:77 P:85 SP:F9
20671 C9A7            BIT 24       zeropage   A:9F X:0 Y:77 P:84 SP:F9
20675 C9A9            LDA A9      immediate   A:9F X:0 Y:77 P:C4 SP:F9
20678 C9AB            BNE D0      immediate   A:0 X:0 Y:77 P:46 SP:F9
20681 C9AD            BMI 30      immediate   A:0 X:0 Y:77 P:46 SP:F9
20684 C9AF            BVC 50      immediate   A:0 X:0 Y:77 P:46 SP:F9
20687 C9B1            BCS B0      immediate   A:0 X:0 Y:77 P:46 SP:F9
20690 C9B3           JMPa 4C       absolute   A:0 X:0 Y:77 P:46 SP:F9
20695 C9BA            NOP EA        implied   A:0 X:0 Y:77 P:46 SP:F9
20698 C9BB            BIT 24       zeropage   A:0 X:0 Y:77 P:46 SP:F9
20702 C9BD            LDA A9      immediate   A:0 X:0 Y:77 P:C6 SP:F9
20705 C9BF            CMP C9      immediate   A:40 X:0 Y:77 P:44 SP:F9
20708 C9C1            BMI 30      immediate   A:40 X:0 Y:77 P:47 SP:F9
20711 C9C3            BCC 90      immediate   A:40 X:0 Y:77 P:47 SP:F9
20714 C9C5            BNE D0      immediate   A:40 X:0 Y:77 P:47 SP:F9
20717 C9C7            BVC 50      immediate   A:40 X:0 Y:77 P:47 SP:F9
20720 C9C9           JMPa 4C       absolute   A:40 X:0 Y:77 P:47 SP:F9
20725 C9D0            NOP EA        implied   A:40 X:0 Y:77 P:47 SP:F9
20728 C9D1            CLV B8        implied   A:40 X:0 Y:77 P:47 SP:F9
20731 C9D2            CMP C9      immediate   A:40 X:0 Y:77 P:7 SP:F9
20734 C9D4            BEQ F0      immediate   A:40 X:0 Y:77 P:5 SP:F9
20737 C9D6            BMI 30      immediate   A:40 X:0 Y:77 P:5 SP:F9
20740 C9D8            BCC 90      immediate   A:40 X:0 Y:77 P:5 SP:F9
20743 C9DA            BVS 70      immediate   A:40 X:0 Y:77 P:5 SP:F9
20746 C9DC           JMPa 4C       absolute   A:40 X:0 Y:77 P:5 SP:F9
20751 C9E3            NOP EA        implied   A:40 X:0 Y:77 P:5 SP:F9
20754 C9E4            CMP C9      immediate   A:40 X:0 Y:77 P:5 SP:F9
20757 C9E6            BEQ F0      immediate   A:40 X:0 Y:77 P:84 SP:F9
20760 C9E8            BPL 10      immediate   A:40 X:0 Y:77 P:84 SP:F9
20763 C9EA            BPL 10      immediate   A:40 X:0 Y:77 P:84 SP:F9
20766 C9EC           JMPa 4C       absolute   A:40 X:0 Y:77 P:84 SP:F9
20771 C9F3            NOP EA        implied   A:40 X:0 Y:77 P:84 SP:F9
20774 C9F4            LDA A9      immediate   A:40 X:0 Y:77 P:84 SP:F9
20777 C9F6            CMP C9      immediate   A:80 X:0 Y:77 P:84 SP:F9
20780 C9F8            BEQ F0      immediate   A:80 X:0 Y:77 P:85 SP:F9
20783 C9FA            BPL 10      immediate   A:80 X:0 Y:77 P:85 SP:F9
20786 C9FC            BCC 90      immediate   A:80 X:0 Y:77 P:85 SP:F9
20789 C9FE           JMPa 4C       absolute   A:80 X:0 Y:77 P:85 SP:F9
20794 CA05            NOP EA        implied   A:80 X:0 Y:77 P:85 SP:F9
20797 CA06            CMP C9      immediate   A:80 X:0 Y:77 P:85 SP:F9
20800 CA08            BNE D0      immediate   A:80 X:0 Y:77 P:7 SP:F9
20803 CA0A            BMI 30      immediate   A:80 X:0 Y:77 P:7 SP:F9
20806 CA0C            BCC 90      immediate   A:80 X:0 Y:77 P:7 SP:F9
20809 CA0E           JMPa 4C       absolute   A:80 X:0 Y:77 P:7 SP:F9
20814 CA15            NOP EA        implied   A:80 X:0 Y:77 P:7 SP:F9
20817 CA16            CMP C9      immediate   A:80 X:0 Y:77 P:7 SP:F9
20820 CA18            BCS B0      immediate   A:80 X:0 Y:77 P:84 SP:F9
20823 CA1A            BEQ F0      immediate   A:80 X:0 Y:77 P:84 SP:F9
20826 CA1C            BPL 10      immediate   A:80 X:0 Y:77 P:84 SP:F9
20829 CA1E           JMPa 4C       absolute   A:80 X:0 Y:77 P:84 SP:F9
20834 CA25            NOP EA        implied   A:80 X:0 Y:77 P:84 SP:F9
20837 CA26            CMP C9      immediate   A:80 X:0 Y:77 P:84 SP:F9
20840 CA28            BCC 90      immediate   A:80 X:0 Y:77 P:5 SP:F9
20843 CA2A            BEQ F0      immediate   A:80 X:0 Y:77 P:5 SP:F9
20846 CA2C            BMI 30      immediate   A:80 X:0 Y:77 P:5 SP:F9
20849 CA2E           JMPa 4C       absolute   A:80 X:0 Y:77 P:5 SP:F9
20854 CA35            NOP EA        implied   A:80 X:0 Y:77 P:5 SP:F9
20857 CA36            BIT 24       zeropage   A:80 X:0 Y:77 P:5 SP:F9
20861 CA38            LDY A0      immediate   A:80 X:0 Y:77 P:C5 SP:F9
20864 CA3A            CPY C0      immediate   A:80 X:0 Y:40 P:45 SP:F9
20867 CA3C            BNE D0      immediate   A:80 X:0 Y:40 P:47 SP:F9
20870 CA3E            BMI 30      immediate   A:80 X:0 Y:40 P:47 SP:F9
20873 CA40            BCC 90      immediate   A:80 X:0 Y:40 P:47 SP:F9
20876 CA42            BVC 50      immediate   A:80 X:0 Y:40 P:47 SP:F9
20879 CA44           JMPa 4C       absolute   A:80 X:0 Y:40 P:47 SP:F9
20884 CA4B            NOP EA        implied   A:80 X:0 Y:40 P:47 SP:F9
20887 CA4C            CLV B8        implied   A:80 X:0 Y:40 P:47 SP:F9
20890 CA4D            CPY C0      immediate   A:80 X:0 Y:40 P:7 SP:F9
20893 CA4F            BEQ F0      immediate   A:80 X:0 Y:40 P:5 SP:F9
20896 CA51            BMI 30      immediate   A:80 X:0 Y:40 P:5 SP:F9
20899 CA53            BCC 90      immediate   A:80 X:0 Y:40 P:5 SP:F9
20902 CA55            BVS 70      immediate   A:80 X:0 Y:40 P:5 SP:F9
20905 CA57           JMPa 4C       absolute   A:80 X:0 Y:40 P:5 SP:F9
20910 CA5E            NOP EA        implied   A:80 X:0 Y:40 P:5 SP:F9
20913 CA5F            CPY C0      immediate   A:80 X:0 Y:40 P:5 SP:F9
20916 CA61            BEQ F0      immediate   A:80 X:0 Y:40 P:84 SP:F9
20919 CA63            BPL 10      immediate   A:80 X:0 Y:40 P:84 SP:F9
20922 CA65            BPL 10      immediate   A:80 X:0 Y:40 P:84 SP:F9
20925 CA67           JMPa 4C       absolute   A:80 X:0 Y:40 P:84 SP:F9
20930 CA6E            NOP EA        implied   A:80 X:0 Y:40 P:84 SP:F9
20933 CA6F            LDY A0      immediate   A:80 X:0 Y:40 P:84 SP:F9
20936 CA71            CPY C0      immediate   A:80 X:0 Y:80 P:84 SP:F9
20939 CA73            BEQ F0      immediate   A:80 X:0 Y:80 P:85 SP:F9
20942 CA75            BPL 10      immediate   A:80 X:0 Y:80 P:85 SP:F9
20945 CA77            BCC 90      immediate   A:80 X:0 Y:80 P:85 SP:F9
20948 CA79           JMPa 4C       absolute   A:80 X:0 Y:80 P:85 SP:F9
20953 CA80            NOP EA        implied   A:80 X:0 Y:80 P:85 SP:F9
20956 CA81            CPY C0      immediate   A:80 X:0 Y:80 P:85 SP:F9
20959 CA83            BNE D0      immediate   A:80 X:0 Y:80 P:7 SP:F9
20962 CA85            BMI 30      immediate   A:80 X:0 Y:80 P:7 SP:F9
20965 CA87            BCC 90      immediate   A:80 X:0 Y:80 P:7 SP:F9
20968 CA89           JMPa 4C       absolute   A:80 X:0 Y:80 P:7 SP:F9
20973 CA90            NOP EA        implied   A:80 X:0 Y:80 P:7 SP:F9
20976 CA91            CPY C0      immediate   A:80 X:0 Y:80 P:7 SP:F9
20979 CA93            BCS B0      immediate   A:80 X:0 Y:80 P:84 SP:F9
20982 CA95            BEQ F0      immediate   A:80 X:0 Y:80 P:84 SP:F9
20985 CA97            BPL 10      immediate   A:80 X:0 Y:80 P:84 SP:F9
20988 CA99           JMPa 4C       absolute   A:80 X:0 Y:80 P:84 SP:F9
20993 CAA0            NOP EA        implied   A:80 X:0 Y:80 P:84 SP:F9
20996 CAA1            CPY C0      immediate   A:80 X:0 Y:80 P:84 SP:F9
20999 CAA3            BCC 90      immediate   A:80 X:0 Y:80 P:5 SP:F9
21002 CAA5            BEQ F0      immediate   A:80 X:0 Y:80 P:5 SP:F9
21005 CAA7            BMI 30      immediate   A:80 X:0 Y:80 P:5 SP:F9
21008 CAA9           JMPa 4C       absolute   A:80 X:0 Y:80 P:5 SP:F9
21013 CAB0            NOP EA        implied   A:80 X:0 Y:80 P:5 SP:F9
21016 CAB1            BIT 24       zeropage   A:80 X:0 Y:80 P:5 SP:F9
21020 CAB3            LDX A2      immediate   A:80 X:0 Y:80 P:C5 SP:F9
21023 CAB5            CPX E0      immediate   A:80 X:40 Y:80 P:45 SP:F9
21026 CAB7            BNE D0      immediate   A:80 X:40 Y:80 P:47 SP:F9
21029 CAB9            BMI 30      immediate   A:80 X:40 Y:80 P:47 SP:F9
21032 CABB            BCC 90      immediate   A:80 X:40 Y:80 P:47 SP:F9
21035 CABD            BVC 50      immediate   A:80 X:40 Y:80 P:47 SP:F9
21038 CABF           JMPa 4C       absolute   A:80 X:40 Y:80 P:47 SP:F9
21043 CAC6            NOP EA        implied   A:80 X:40 Y:80 P:47 SP:F9
21046 CAC7            CLV B8        implied   A:80 X:40 Y:80 P:47 SP:F9
21049 CAC8            CPX E0      immediate   A:80 X:40 Y:80 P:7 SP:F9
21052 CACA            BEQ F0      immediate   A:80 X:40 Y:80 P:5 SP:F9
21055 CACC            BMI 30      immediate   A:80 X:40 Y:80 P:5 SP:F9
21058 CACE            BCC 90      immediate   A:80 X:40 Y:80 P:5 SP:F9
21061 CAD0            BVS 70      immediate   A:80 X:40 Y:80 P:5 SP:F9
21064 CAD2           JMPa 4C       absolute   A:80 X:40 Y:80 P:5 SP:F9
21069 CAD9            NOP EA        implied   A:80 X:40 Y:80 P:5 SP:F9
21072 CADA            CPX E0      immediate   A:80 X:40 Y:80 P:5 SP:F9
21075 CADC            BEQ F0      immediate   A:80 X:40 Y:80 P:84 SP:F9
21078 CADE            BPL 10      immediate   A:80 X:40 Y:80 P:84 SP:F9
21081 CAE0            BPL 10      immediate   A:80 X:40 Y:80 P:84 SP:F9
21084 CAE2           JMPa 4C       absolute   A:80 X:40 Y:80 P:84 SP:F9
21089 CAE9            NOP EA        implied   A:80 X:40 Y:80 P:84 SP:F9
21092 CAEA            LDX A2      immediate   A:80 X:40 Y:80 P:84 SP:F9
21095 CAEC            CPX E0      immediate   A:80 X:80 Y:80 P:84 SP:F9
21098 CAEE            BEQ F0      immediate   A:80 X:80 Y:80 P:85 SP:F9
21101 CAF0            BPL 10      immediate   A:80 X:80 Y:80 P:85 SP:F9
21104 CAF2            BCC 90      immediate   A:80 X:80 Y:80 P:85 SP:F9
21107 CAF4           JMPa 4C       absolute   A:80 X:80 Y:80 P:85 SP:F9
21112 CAFB            NOP EA        implied   A:80 X:80 Y:80 P:85 SP:F9
21115 CAFC            CPX E0      immediate   A:80 X:80 Y:80 P:85 SP:F9
21118 CAFE            BNE D0      immediate   A:80 X:80 Y:80 P:7 SP:F9
21121 CB00            BMI 30      immediate   A:80 X:80 Y:80 P:7 SP:F9
21124 CB02            BCC 90      immediate   A:80 X:80 Y:80 P:7 SP:F9
21127 CB04           JMPa 4C       absolute   A:80 X:80 Y:80 P:7 SP:F9
21132 CB0B            NOP EA        implied   A:80 X:80 Y:80 P:7 SP:F9
21135 CB0C            CPX E0      immediate   A:80 X:80 Y:80 P:7 SP:F9
21138 CB0E            BCS B0      immediate   A:80 X:80 Y:80 P:84 SP:F9
21141 CB10            BEQ F0      immediate   A:80 X:80 Y:80 P:84 SP:F9
21144 CB12            BPL 10      immediate   A:80 X:80 Y:80 P:84 SP:F9
21147 CB14           JMPa 4C       absolute   A:80 X:80 Y:80 P:84 SP:F9
21152 CB1B            NOP EA        implied   A:80 X:80 Y:80 P:84 SP:F9
21155 CB1C            CPX E0      immediate   A:80 X:80 Y:80 P:84 SP:F9
21158 CB1E            BCC 90      immediate   A:80 X:80 Y:80 P:5 SP:F9
21161 CB20            BEQ F0      immediate   A:80 X:80 Y:80 P:5 SP:F9
21164 CB22            BMI 30      immediate   A:80 X:80 Y:80 P:5 SP:F9
21167 CB24           JMPa 4C       absolute   A:80 X:80 Y:80 P:5 SP:F9
21172 CB2B            NOP EA        implied   A:80 X:80 Y:80 P:5 SP:F9
21175 CB2C            SEC 38        implied   A:80 X:80 Y:80 P:5 SP:F9
21178 CB2D            CLV B8        implied   A:80 X:80 Y:80 P:5 SP:F9
21181 CB2E            LDX A2      immediate   A:80 X:80 Y:80 P:5 SP:F9
21184 CB30            BEQ F0      immediate   A:80 X:9F Y:80 P:85 SP:F9
21187 CB32            BPL 10      immediate   A:80 X:9F Y:80 P:85 SP:F9
21190 CB34            BVS 70      immediate   A:80 X:9F Y:80 P:85 SP:F9
21193 CB36            BCC 90      immediate   A:80 X:9F Y:80 P:85 SP:F9
21196 CB38           JMPa 4C       absolute   A:80 X:9F Y:80 P:85 SP:F9
21201 CB3F            NOP EA        implied   A:80 X:9F Y:80 P:85 SP:F9
21204 CB40            CLC 18        implied   A:80 X:9F Y:80 P:85 SP:F9
21207 CB41            BIT 24       zeropage   A:80 X:9F Y:80 P:84 SP:F9
21211 CB43            LDX A2      immediate   A:80 X:9F Y:80 P:C4 SP:F9
21214 CB45            BNE D0      immediate   A:80 X:0 Y:80 P:46 SP:F9
21217 CB47            BMI 30      immediate   A:80 X:0 Y:80 P:46 SP:F9
21220 CB49            BVC 50      immediate   A:80 X:0 Y:80 P:46 SP:F9
21223 CB4B            BCS B0      immediate   A:80 X:0 Y:80 P:46 SP:F9
21226 CB4D           JMPa 4C       absolute   A:80 X:0 Y:80 P:46 SP:F9
21231 CB54            NOP EA        implied   A:80 X:0 Y:80 P:46 SP:F9
21234 CB55            SEC 38        implied   A:80 X:0 Y:80 P:46 SP:F9
21237 CB56            CLV B8        implied   A:80 X:0 Y:80 P:47 SP:F9
21240 CB57            LDY A0      immediate   A:80 X:0 Y:80 P:7 SP:F9
21243 CB59            BEQ F0      immediate   A:80 X:0 Y:9F P:85 SP:F9
21246 CB5B            BPL 10      immediate   A:80 X:0 Y:9F P:85 SP:F9
21249 CB5D            BVS 70      immediate   A:80 X:0 Y:9F P:85 SP:F9
21252 CB5F            BCC 90      immediate   A:80 X:0 Y:9F P:85 SP:F9
21255 CB61           JMPa 4C       absolute   A:80 X:0 Y:9F P:85 SP:F9
21260 CB68            NOP EA        implied   A:80 X:0 Y:9F P:85 SP:F9
21263 CB69            CLC 18        implied   A:80 X:0 Y:9F P:85 SP:F9
21266 CB6A            BIT 24       zeropage   A:80 X:0 Y:9F P:84 SP:F9
21270 CB6C            LDY A0      immediate   A:80 X:0 Y:9F P:C4 SP:F9
21273 CB6E            BNE D0      immediate   A:80 X:0 Y:0 P:46 SP:F9
21276 CB70            BMI 30      immediate   A:80 X:0 Y:0 P:46 SP:F9
21279 CB72            BVC 50      immediate   A:80 X:0 Y:0 P:46 SP:F9
21282 CB74            BCS B0      immediate   A:80 X:0 Y:0 P:46 SP:F9
21285 CB76           JMPa 4C       absolute   A:80 X:0 Y:0 P:46 SP:F9
21290 CB7D            NOP EA        implied   A:80 X:0 Y:0 P:46 SP:F9
21293 CB7E            LDA A9      immediate   A:80 X:0 Y:0 P:46 SP:F9
21296 CB80            LDX A2      immediate   A:55 X:0 Y:0 P:44 SP:F9
21299 CB82            LDY A0      immediate   A:55 X:AA Y:0 P:C4 SP:F9
21302 CB84            CMP C9      immediate   A:55 X:AA Y:33 P:44 SP:F9
21305 CB86            BNE D0      immediate   A:55 X:AA Y:33 P:47 SP:F9
21308 CB88            CPX E0      immediate   A:55 X:AA Y:33 P:47 SP:F9
21311 CB8A            BNE D0      immediate   A:55 X:AA Y:33 P:47 SP:F9
21314 CB8C            CPY C0      immediate   A:55 X:AA Y:33 P:47 SP:F9
21317 CB8E            BNE D0      immediate   A:55 X:AA Y:33 P:47 SP:F9
21320 CB90            CMP C9      immediate   A:55 X:AA Y:33 P:47 SP:F9
21323 CB92            BNE D0      immediate   A:55 X:AA Y:33 P:47 SP:F9
21326 CB94            CPX E0      immediate   A:55 X:AA Y:33 P:47 SP:F9
21329 CB96            BNE D0      immediate   A:55 X:AA Y:33 P:47 SP:F9
21332 CB98            CPY C0      immediate   A:55 X:AA Y:33 P:47 SP:F9
21335 CB9A            BNE D0      immediate   A:55 X:AA Y:33 P:47 SP:F9
21338 CB9C            CMP C9      immediate   A:55 X:AA Y:33 P:47 SP:F9
21341 CB9E            BEQ F0      immediate   A:55 X:AA Y:33 P:C4 SP:F9
21344 CBA0            CPX E0      immediate   A:55 X:AA Y:33 P:C4 SP:F9
21347 CBA2            BEQ F0      immediate   A:55 X:AA Y:33 P:C4 SP:F9
21350 CBA4            CPY C0      immediate   A:55 X:AA Y:33 P:C4 SP:F9
21353 CBA6            BEQ F0      immediate   A:55 X:AA Y:33 P:C4 SP:F9
21356 CBA8           JMPa 4C       absolute   A:55 X:AA Y:33 P:C4 SP:F9
21361 CBAF            LDY A0      immediate   A:55 X:AA Y:33 P:C4 SP:F9
21364 CBB1            JSR 20       absolute   A:55 X:AA Y:71 P:44 SP:F9
21369 F931            BIT 24       zeropage   A:55 X:AA Y:71 P:44 SP:F7
21373 F933            LDA A9      immediate   A:55 X:AA Y:71 P:C4 SP:F7
21376 F935            SEC 38        implied   A:40 X:AA Y:71 P:44 SP:F7
21379 F936            RTS 60        implied   A:40 X:AA Y:71 P:45 SP:F7
21386 CBB4            SBC E9      immediate   A:40 X:AA Y:71 P:45 SP:F9
21389 CBB6            JSR 20       absolute   A:0 X:AA Y:71 P:7 SP:F9
21394 F937            BMI 30      immediate   A:0 X:AA Y:71 P:7 SP:F7
21397 F939            BCC 90      immediate   A:0 X:AA Y:71 P:7 SP:F7
21400 F93B            BNE D0      immediate   A:0 X:AA Y:71 P:7 SP:F7
21403 F93D            BVS 70      immediate   A:0 X:AA Y:71 P:7 SP:F7
21406 F93F            CMP C9      immediate   A:0 X:AA Y:71 P:7 SP:F7
21409 F941            BNE D0      immediate   A:0 X:AA Y:71 P:7 SP:F7
21412 F943            RTS 60        implied   A:0 X:AA Y:71 P:7 SP:F7
21419 CBB9            INY C8        implied   A:0 X:AA Y:71 P:7 SP:F9
21422 CBBA            JSR 20       absolute   A:0 X:AA Y:72 P:5 SP:F9
21427 F947            CLV B8        implied   A:0 X:AA Y:72 P:5 SP:F7
21430 F948            SEC 38        implied   A:0 X:AA Y:72 P:5 SP:F7
21433 F949            LDA A9      immediate   A:0 X:AA Y:72 P:5 SP:F7
21436 F94B            RTS 60        implied   A:40 X:AA Y:72 P:5 SP:F7
21443 CBBD            SBC E9      immediate   A:40 X:AA Y:72 P:5 SP:F9
21446 CBBF            JSR 20       absolute   A:1 X:AA Y:72 P:5 SP:F9
21451 F94C            BEQ F0      immediate   A:1 X:AA Y:72 P:5 SP:F7
21454 F94E            BMI 30      immediate   A:1 X:AA Y:72 P:5 SP:F7
21457 F950            BCC 90      immediate   A:1 X:AA Y:72 P:5 SP:F7
21460 F952            BVS 70      immediate   A:1 X:AA Y:72 P:5 SP:F7
21463 F954            CMP C9      immediate   A:1 X:AA Y:72 P:5 SP:F7
21466 F956            BNE D0      immediate   A:1 X:AA Y:72 P:7 SP:F7
21469 F958            RTS 60        implied   A:1 X:AA Y:72 P:7 SP:F7
21476 CBC2            INY C8        implied   A:1 X:AA Y:72 P:7 SP:F9
21479 CBC3            JSR 20       absolute   A:1 X:AA Y:73 P:5 SP:F9
21484 F95C            LDA A9      immediate   A:1 X:AA Y:73 P:5 SP:F7
21487 F95E            SEC 38        implied   A:40 X:AA Y:73 P:5 SP:F7
21490 F95F            BIT 24       zeropage   A:40 X:AA Y:73 P:5 SP:F7
21494 F961            RTS 60        implied   A:40 X:AA Y:73 P:C5 SP:F7
21501 CBC6            SBC E9      immediate   A:40 X:AA Y:73 P:C5 SP:F9
21504 CBC8            JSR 20       absolute   A:FF X:AA Y:73 P:84 SP:F9
21509 F962            BCS B0      immediate   A:FF X:AA Y:73 P:84 SP:F7
21512 F964            BEQ F0      immediate   A:FF X:AA Y:73 P:84 SP:F7
21515 F966            BPL 10      immediate   A:FF X:AA Y:73 P:84 SP:F7
21518 F968            BVS 70      immediate   A:FF X:AA Y:73 P:84 SP:F7
21521 F96A            CMP C9      immediate   A:FF X:AA Y:73 P:84 SP:F7
21524 F96C            BNE D0      immediate   A:FF X:AA Y:73 P:7 SP:F7
21527 F96E            RTS 60        implied   A:FF X:AA Y:73 P:7 SP:F7
21534 CBCB            INY C8        implied   A:FF X:AA Y:73 P:7 SP:F9
21537 CBCC            JSR 20       absolute   A:FF X:AA Y:74 P:5 SP:F9
21542 F972            CLC 18        implied   A:FF X:AA Y:74 P:5 SP:F7
21545 F973            LDA A9      immediate   A:FF X:AA Y:74 P:4 SP:F7
21548 F975            RTS 60        implied   A:80 X:AA Y:74 P:84 SP:F7
21555 CBCF            SBC E9      immediate   A:80 X:AA Y:74 P:84 SP:F9
21558 CBD1            JSR 20       absolute   A:7F X:AA Y:74 P:45 SP:F9
21563 F976            BCC 90      immediate   A:7F X:AA Y:74 P:45 SP:F7
21566 F978            CMP C9      immediate   A:7F X:AA Y:74 P:45 SP:F7
21569 F97A            BNE D0      immediate   A:7F X:AA Y:74 P:47 SP:F7
21572 F97C            RTS 60        implied   A:7F X:AA Y:74 P:47 SP:F7
21579 CBD4            INY C8        implied   A:7F X:AA Y:74 P:47 SP:F9
21582 CBD5            JSR 20       absolute   A:7F X:AA Y:75 P:45 SP:F9
21587 F980            SEC 38        implied   A:7F X:AA Y:75 P:45 SP:F7
21590 F981            LDA A9      immediate   A:7F X:AA Y:75 P:45 SP:F7
21593 F983            RTS 60        implied   A:81 X:AA Y:75 P:C5 SP:F7
21600 CBD8            SBC E9      immediate   A:81 X:AA Y:75 P:C5 SP:F9
21603 CBDA            JSR 20       absolute   A:2 X:AA Y:75 P:45 SP:F9
21608 F984            BVC 50      immediate   A:2 X:AA Y:75 P:45 SP:F7
21611 F986            BCC 90      immediate   A:2 X:AA Y:75 P:45 SP:F7
21614 F988            CMP C9      immediate   A:2 X:AA Y:75 P:45 SP:F7
21617 F98A            BNE D0      immediate   A:2 X:AA Y:75 P:47 SP:F7
21620 F98C            RTS 60        implied   A:2 X:AA Y:75 P:47 SP:F7
21627 CBDD            RTS 60        implied   A:2 X:AA Y:75 P:47 SP:F9
21634 C606            JSR 20       absolute   A:2 X:AA Y:75 P:47 SP:FB
21639 CBDE            NOP EA        implied   A:2 X:AA Y:75 P:47 SP:F9
21642 CBDF            LDA A9      immediate   A:2 X:AA Y:75 P:47 SP:F9
21645 CBE1            STA 85       zeropage   A:FF X:AA Y:75 P:C5 SP:F9
21649 CBE3            LDA A9      immediate   A:FF X:AA Y:75 P:C5 SP:F9
21652 CBE5            LDX A2      immediate   A:44 X:AA Y:75 P:45 SP:F9
21655 CBE7            LDY A0      immediate   A:44 X:55 Y:75 P:45 SP:F9
21658 CBE9            INX E8        implied   A:44 X:55 Y:66 P:45 SP:F9
21661 CBEA            DEY 88        implied   A:44 X:56 Y:66 P:45 SP:F9
21664 CBEB            CPX E0      immediate   A:44 X:56 Y:65 P:45 SP:F9
21667 CBED            BNE D0      immediate   A:44 X:56 Y:65 P:47 SP:F9
21670 CBEF            CPY C0      immediate   A:44 X:56 Y:65 P:47 SP:F9
21673 CBF1            BNE D0      immediate   A:44 X:56 Y:65 P:47 SP:F9
21676 CBF3            INX E8        implied   A:44 X:56 Y:65 P:47 SP:F9
21679 CBF4            INX E8        implied   A:44 X:57 Y:65 P:45 SP:F9
21682 CBF5            DEY 88        implied   A:44 X:58 Y:65 P:45 SP:F9
21685 CBF6            DEY 88        implied   A:44 X:58 Y:64 P:45 SP:F9
21688 CBF7            CPX E0      immediate   A:44 X:58 Y:63 P:45 SP:F9
21691 CBF9            BNE D0      immediate   A:44 X:58 Y:63 P:47 SP:F9
21694 CBFB            CPY C0      immediate   A:44 X:58 Y:63 P:47 SP:F9
21697 CBFD            BNE D0      immediate   A:44 X:58 Y:63 P:47 SP:F9
21700 CBFF            DEX CA        implied   A:44 X:58 Y:63 P:47 SP:F9
21703 CC00            INY C8        implied   A:44 X:57 Y:63 P:45 SP:F9
21706 CC01            CPX E0      immediate   A:44 X:57 Y:64 P:45 SP:F9
21709 CC03            BNE D0      immediate   A:44 X:57 Y:64 P:47 SP:F9
21712 CC05            CPY C0      immediate   A:44 X:57 Y:64 P:47 SP:F9
21715 CC07            BNE D0      immediate   A:44 X:57 Y:64 P:47 SP:F9
21718 CC09            CMP C9      immediate   A:44 X:57 Y:64 P:47 SP:F9
21721 CC0B            BNE D0      immediate   A:44 X:57 Y:64 P:47 SP:F9
21724 CC0D           JMPa 4C       absolute   A:44 X:57 Y:64 P:47 SP:F9
21729 CC14            NOP EA        implied   A:44 X:57 Y:64 P:47 SP:F9
21732 CC15            SEC 38        implied   A:44 X:57 Y:64 P:47 SP:F9
21735 CC16            LDX A2      immediate   A:44 X:57 Y:64 P:47 SP:F9
21738 CC18            LDA A9      immediate   A:44 X:69 Y:64 P:45 SP:F9
21741 CC1A            BIT 24       zeropage   A:96 X:69 Y:64 P:C5 SP:F9
21745 CC1C            LDY A0      immediate   A:96 X:69 Y:64 P:C5 SP:F9
21748 CC1E            INY C8        implied   A:96 X:69 Y:FF P:C5 SP:F9
21751 CC1F            BNE D0      immediate   A:96 X:69 Y:0 P:47 SP:F9
21754 CC21            BMI 30      immediate   A:96 X:69 Y:0 P:47 SP:F9
21757 CC23            BCC 90      immediate   A:96 X:69 Y:0 P:47 SP:F9
21760 CC25            BVC 50      immediate   A:96 X:69 Y:0 P:47 SP:F9
21763 CC27            CPY C0      immediate   A:96 X:69 Y:0 P:47 SP:F9
21766 CC29            BNE D0      immediate   A:96 X:69 Y:0 P:47 SP:F9
21769 CC2B            INY C8        implied   A:96 X:69 Y:0 P:47 SP:F9
21772 CC2C            BEQ F0      immediate   A:96 X:69 Y:1 P:45 SP:F9
21775 CC2E            BMI 30      immediate   A:96 X:69 Y:1 P:45 SP:F9
21778 CC30            BCC 90      immediate   A:96 X:69 Y:1 P:45 SP:F9
21781 CC32            BVC 50      immediate   A:96 X:69 Y:1 P:45 SP:F9
21784 CC34            CLC 18        implied   A:96 X:69 Y:1 P:45 SP:F9
21787 CC35            CLV B8        implied   A:96 X:69 Y:1 P:44 SP:F9
21790 CC36            LDY A0      immediate   A:96 X:69 Y:1 P:4 SP:F9
21793 CC38            DEY 88        implied   A:96 X:69 Y:0 P:6 SP:F9
21796 CC39            BEQ F0      immediate   A:96 X:69 Y:FF P:84 SP:F9
21799 CC3B            BPL 10      immediate   A:96 X:69 Y:FF P:84 SP:F9
21802 CC3D            BCS B0      immediate   A:96 X:69 Y:FF P:84 SP:F9
21805 CC3F            BVS 70      immediate   A:96 X:69 Y:FF P:84 SP:F9
21808 CC41            CPY C0      immediate   A:96 X:69 Y:FF P:84 SP:F9
21811 CC43            BNE D0      immediate   A:96 X:69 Y:FF P:7 SP:F9
21814 CC45            CLC 18        implied   A:96 X:69 Y:FF P:7 SP:F9
21817 CC46            DEY 88        implied   A:96 X:69 Y:FF P:6 SP:F9
21820 CC47            BEQ F0      immediate   A:96 X:69 Y:FE P:84 SP:F9
21823 CC49            BPL 10      immediate   A:96 X:69 Y:FE P:84 SP:F9
21826 CC4B            BCS B0      immediate   A:96 X:69 Y:FE P:84 SP:F9
21829 CC4D            BVS 70      immediate   A:96 X:69 Y:FE P:84 SP:F9
21832 CC4F            CPY C0      immediate   A:96 X:69 Y:FE P:84 SP:F9
21835 CC51            BNE D0      immediate   A:96 X:69 Y:FE P:7 SP:F9
21838 CC53            CMP C9      immediate   A:96 X:69 Y:FE P:7 SP:F9
21841 CC55            BNE D0      immediate   A:96 X:69 Y:FE P:7 SP:F9
21844 CC57            CPX E0      immediate   A:96 X:69 Y:FE P:7 SP:F9
21847 CC59            BNE D0      immediate   A:96 X:69 Y:FE P:7 SP:F9
21850 CC5B           JMPa 4C       absolute   A:96 X:69 Y:FE P:7 SP:F9
21855 CC62            NOP EA        implied   A:96 X:69 Y:FE P:7 SP:F9
21858 CC63            SEC 38        implied   A:96 X:69 Y:FE P:7 SP:F9
21861 CC64            LDY A0      immediate   A:96 X:69 Y:FE P:7 SP:F9
21864 CC66            LDA A9      immediate   A:96 X:69 Y:69 P:5 SP:F9
21867 CC68            BIT 24       zeropage   A:96 X:69 Y:69 P:85 SP:F9
21871 CC6A            LDX A2      immediate   A:96 X:69 Y:69 P:C5 SP:F9
21874 CC6C            INX E8        implied   A:96 X:FF Y:69 P:C5 SP:F9
21877 CC6D            BNE D0      immediate   A:96 X:0 Y:69 P:47 SP:F9
21880 CC6F            BMI 30      immediate   A:96 X:0 Y:69 P:47 SP:F9
21883 CC71            BCC 90      immediate   A:96 X:0 Y:69 P:47 SP:F9
21886 CC73            BVC 50      immediate   A:96 X:0 Y:69 P:47 SP:F9
21889 CC75            CPX E0      immediate   A:96 X:0 Y:69 P:47 SP:F9
21892 CC77            BNE D0      immediate   A:96 X:0 Y:69 P:47 SP:F9
21895 CC79            INX E8        implied   A:96 X:0 Y:69 P:47 SP:F9
21898 CC7A            BEQ F0      immediate   A:96 X:1 Y:69 P:45 SP:F9
21901 CC7C            BMI 30      immediate   A:96 X:1 Y:69 P:45 SP:F9
21904 CC7E            BCC 90      immediate   A:96 X:1 Y:69 P:45 SP:F9
21907 CC80            BVC 50      immediate   A:96 X:1 Y:69 P:45 SP:F9
21910 CC82            CLC 18        implied   A:96 X:1 Y:69 P:45 SP:F9
21913 CC83            CLV B8        implied   A:96 X:1 Y:69 P:44 SP:F9
21916 CC84            LDX A2      immediate   A:96 X:1 Y:69 P:4 SP:F9
21919 CC86            DEX CA        implied   A:96 X:0 Y:69 P:6 SP:F9
21922 CC87            BEQ F0      immediate   A:96 X:FF Y:69 P:84 SP:F9
21925 CC89            BPL 10      immediate   A:96 X:FF Y:69 P:84 SP:F9
21928 CC8B            BCS B0      immediate   A:96 X:FF Y:69 P:84 SP:F9
21931 CC8D            BVS 70      immediate   A:96 X:FF Y:69 P:84 SP:F9
21934 CC8F            CPX E0      immediate   A:96 X:FF Y:69 P:84 SP:F9
21937 CC91            BNE D0      immediate   A:96 X:FF Y:69 P:7 SP:F9
21940 CC93            CLC 18        implied   A:96 X:FF Y:69 P:7 SP:F9
21943 CC94            DEX CA        implied   A:96 X:FF Y:69 P:6 SP:F9
21946 CC95            BEQ F0      immediate   A:96 X:FE Y:69 P:84 SP:F9
21949 CC97            BPL 10      immediate   A:96 X:FE Y:69 P:84 SP:F9
21952 CC99            BCS B0      immediate   A:96 X:FE Y:69 P:84 SP:F9
21955 CC9B            BVS 70      immediate   A:96 X:FE Y:69 P:84 SP:F9
21958 CC9D            CPX E0      immediate   A:96 X:FE Y:69 P:84 SP:F9
21961 CC9F            BNE D0      immediate   A:96 X:FE Y:69 P:7 SP:F9
21964 CCA1            CMP C9      immediate   A:96 X:FE Y:69 P:7 SP:F9
21967 CCA3            BNE D0      immediate   A:96 X:FE Y:69 P:7 SP:F9
21970 CCA5            CPY C0      immediate   A:96 X:FE Y:69 P:7 SP:F9
21973 CCA7            BNE D0      immediate   A:96 X:FE Y:69 P:7 SP:F9
21976 CCA9           JMPa 4C       absolute   A:96 X:FE Y:69 P:7 SP:F9
21981 CCB0            NOP EA        implied   A:96 X:FE Y:69 P:7 SP:F9
21984 CCB1            LDA A9      immediate   A:96 X:FE Y:69 P:7 SP:F9
21987 CCB3            LDX A2      immediate   A:85 X:FE Y:69 P:85 SP:F9
21990 CCB5            LDY A0      immediate   A:85 X:34 Y:69 P:5 SP:F9
21993 CCB7            CLC 18        implied   A:85 X:34 Y:99 P:85 SP:F9
21996 CCB8            BIT 24       zeropage   A:85 X:34 Y:99 P:84 SP:F9
22000 CCBA            TAY A8        implied   A:85 X:34 Y:99 P:C4 SP:F9
22003 CCBB            BEQ F0      immediate   A:85 X:34 Y:85 P:C4 SP:F9
22006 CCBD            BCS B0      immediate   A:85 X:34 Y:85 P:C4 SP:F9
22009 CCBF            BVC 50      immediate   A:85 X:34 Y:85 P:C4 SP:F9
22012 CCC1            BPL 10      immediate   A:85 X:34 Y:85 P:C4 SP:F9
22015 CCC3            CMP C9      immediate   A:85 X:34 Y:85 P:C4 SP:F9
22018 CCC5            BNE D0      immediate   A:85 X:34 Y:85 P:47 SP:F9
22021 CCC7            CPX E0      immediate   A:85 X:34 Y:85 P:47 SP:F9
22024 CCC9            BNE D0      immediate   A:85 X:34 Y:85 P:47 SP:F9
22027 CCCB            CPY C0      immediate   A:85 X:34 Y:85 P:47 SP:F9
22030 CCCD            BNE D0      immediate   A:85 X:34 Y:85 P:47 SP:F9
22033 CCCF            LDA A9      immediate   A:85 X:34 Y:85 P:47 SP:F9
22036 CCD1            SEC 38        implied   A:0 X:34 Y:85 P:47 SP:F9
22039 CCD2            CLV B8        implied   A:0 X:34 Y:85 P:47 SP:F9
22042 CCD3            TAY A8        implied   A:0 X:34 Y:85 P:7 SP:F9
22045 CCD4            BNE D0      immediate   A:0 X:34 Y:0 P:7 SP:F9
22048 CCD6            BCC 90      immediate   A:0 X:34 Y:0 P:7 SP:F9
22051 CCD8            BVS 70      immediate   A:0 X:34 Y:0 P:7 SP:F9
22054 CCDA            BMI 30      immediate   A:0 X:34 Y:0 P:7 SP:F9
22057 CCDC            CMP C9      immediate   A:0 X:34 Y:0 P:7 SP:F9
22060 CCDE            BNE D0      immediate   A:0 X:34 Y:0 P:7 SP:F9
22063 CCE0            CPX E0      immediate   A:0 X:34 Y:0 P:7 SP:F9
22066 CCE2            BNE D0      immediate   A:0 X:34 Y:0 P:7 SP:F9
22069 CCE4            CPY C0      immediate   A:0 X:34 Y:0 P:7 SP:F9
22072 CCE6            BNE D0      immediate   A:0 X:34 Y:0 P:7 SP:F9
22075 CCE8           JMPa 4C       absolute   A:0 X:34 Y:0 P:7 SP:F9
22080 CCEF            NOP EA        implied   A:0 X:34 Y:0 P:7 SP:F9
22083 CCF0            LDA A9      immediate   A:0 X:34 Y:0 P:7 SP:F9
22086 CCF2            LDX A2      immediate   A:85 X:34 Y:0 P:85 SP:F9
22089 CCF4            LDY A0      immediate   A:85 X:34 Y:0 P:5 SP:F9
22092 CCF6            CLC 18        implied   A:85 X:34 Y:99 P:85 SP:F9
22095 CCF7            BIT 24       zeropage   A:85 X:34 Y:99 P:84 SP:F9
22099 CCF9            TAX AA        implied   A:85 X:34 Y:99 P:C4 SP:F9
22102 CCFA            BEQ F0      immediate   A:85 X:85 Y:99 P:C4 SP:F9
22105 CCFC            BCS B0      immediate   A:85 X:85 Y:99 P:C4 SP:F9
22108 CCFE            BVC 50      immediate   A:85 X:85 Y:99 P:C4 SP:F9
22111 CD00            BPL 10      immediate   A:85 X:85 Y:99 P:C4 SP:F9
22114 CD02            CMP C9      immediate   A:85 X:85 Y:99 P:C4 SP:F9
22117 CD04            BNE D0      immediate   A:85 X:85 Y:99 P:47 SP:F9
22120 CD06            CPX E0      immediate   A:85 X:85 Y:99 P:47 SP:F9
22123 CD08            BNE D0      immediate   A:85 X:85 Y:99 P:47 SP:F9
22126 CD0A            CPY C0      immediate   A:85 X:85 Y:99 P:47 SP:F9
22129 CD0C            BNE D0      immediate   A:85 X:85 Y:99 P:47 SP:F9
22132 CD0E            LDA A9      immediate   A:85 X:85 Y:99 P:47 SP:F9
22135 CD10            SEC 38        implied   A:0 X:85 Y:99 P:47 SP:F9
22138 CD11            CLV B8        implied   A:0 X:85 Y:99 P:47 SP:F9
22141 CD12            TAX AA        implied   A:0 X:85 Y:99 P:7 SP:F9
22144 CD13            BNE D0      immediate   A:0 X:0 Y:99 P:7 SP:F9
22147 CD15            BCC 90      immediate   A:0 X:0 Y:99 P:7 SP:F9
22150 CD17            BVS 70      immediate   A:0 X:0 Y:99 P:7 SP:F9
22153 CD19            BMI 30      immediate   A:0 X:0 Y:99 P:7 SP:F9
22156 CD1B            CMP C9      immediate   A:0 X:0 Y:99 P:7 SP:F9
22159 CD1D            BNE D0      immediate   A:0 X:0 Y:99 P:7 SP:F9
22162 CD1F            CPX E0      immediate   A:0 X:0 Y:99 P:7 SP:F9
22165 CD21            BNE D0      immediate   A:0 X:0 Y:99 P:7 SP:F9
22168 CD23            CPY C0      immediate   A:0 X:0 Y:99 P:7 SP:F9
22171 CD25            BNE D0      immediate   A:0 X:0 Y:99 P:7 SP:F9
22174 CD27           JMPa 4C       absolute   A:0 X:0 Y:99 P:7 SP:F9
22179 CD2E            NOP EA        implied   A:0 X:0 Y:99 P:7 SP:F9
22182 CD2F            LDA A9      immediate   A:0 X:0 Y:99 P:7 SP:F9
22185 CD31            LDX A2      immediate   A:85 X:0 Y:99 P:85 SP:F9
22188 CD33            LDY A0      immediate   A:85 X:34 Y:99 P:5 SP:F9
22191 CD35            CLC 18        implied   A:85 X:34 Y:99 P:85 SP:F9
22194 CD36            BIT 24       zeropage   A:85 X:34 Y:99 P:84 SP:F9
22198 CD38            TYA 98        implied   A:85 X:34 Y:99 P:C4 SP:F9
22201 CD39            BEQ F0      immediate   A:99 X:34 Y:99 P:C4 SP:F9
22204 CD3B            BCS B0      immediate   A:99 X:34 Y:99 P:C4 SP:F9
22207 CD3D            BVC 50      immediate   A:99 X:34 Y:99 P:C4 SP:F9
22210 CD3F            BPL 10      immediate   A:99 X:34 Y:99 P:C4 SP:F9
22213 CD41            CMP C9      immediate   A:99 X:34 Y:99 P:C4 SP:F9
22216 CD43            BNE D0      immediate   A:99 X:34 Y:99 P:47 SP:F9
22219 CD45            CPX E0      immediate   A:99 X:34 Y:99 P:47 SP:F9
22222 CD47            BNE D0      immediate   A:99 X:34 Y:99 P:47 SP:F9
22225 CD49            CPY C0      immediate   A:99 X:34 Y:99 P:47 SP:F9
22228 CD4B            BNE D0      immediate   A:99 X:34 Y:99 P:47 SP:F9
22231 CD4D            LDY A0      immediate   A:99 X:34 Y:99 P:47 SP:F9
22234 CD4F            SEC 38        implied   A:99 X:34 Y:0 P:47 SP:F9
22237 CD50            CLV B8        implied   A:99 X:34 Y:0 P:47 SP:F9
22240 CD51            TYA 98        implied   A:99 X:34 Y:0 P:7 SP:F9
22243 CD52            BNE D0      immediate   A:0 X:34 Y:0 P:7 SP:F9
22246 CD54            BCC 90      immediate   A:0 X:34 Y:0 P:7 SP:F9
22249 CD56            BVS 70      immediate   A:0 X:34 Y:0 P:7 SP:F9
22252 CD58            BMI 30      immediate   A:0 X:34 Y:0 P:7 SP:F9
22255 CD5A            CMP C9      immediate   A:0 X:34 Y:0 P:7 SP:F9
22258 CD5C            BNE D0      immediate   A:0 X:34 Y:0 P:7 SP:F9
22261 CD5E            CPX E0      immediate   A:0 X:34 Y:0 P:7 SP:F9
22264 CD60            BNE D0      immediate   A:0 X:34 Y:0 P:7 SP:F9
22267 CD62            CPY C0      immediate   A:0 X:34 Y:0 P:7 SP:F9
22270 CD64            BNE D0      immediate   A:0 X:34 Y:0 P:7 SP:F9
22273 CD66           JMPa 4C       absolute   A:0 X:34 Y:0 P:7 SP:F9
22278 CD6D            NOP EA        implied   A:0 X:34 Y:0 P:7 SP:F9
22281 CD6E            LDA A9      immediate   A:0 X:34 Y:0 P:7 SP:F9
22284 CD70            LDX A2      immediate   A:85 X:34 Y:0 P:85 SP:F9
22287 CD72            LDY A0      immediate   A:85 X:34 Y:0 P:5 SP:F9
22290 CD74            CLC 18        implied   A:85 X:34 Y:99 P:85 SP:F9
22293 CD75            BIT 24       zeropage   A:85 X:34 Y:99 P:84 SP:F9
22297 CD77            TXA 8A        implied   A:85 X:34 Y:99 P:C4 SP:F9
22300 CD78            BEQ F0      immediate   A:34 X:34 Y:99 P:44 SP:F9
22303 CD7A            BCS B0      immediate   A:34 X:34 Y:99 P:44 SP:F9
22306 CD7C            BVC 50      immediate   A:34 X:34 Y:99 P:44 SP:F9
22309 CD7E            BMI 30      immediate   A:34 X:34 Y:99 P:44 SP:F9
22312 CD80            CMP C9      immediate   A:34 X:34 Y:99 P:44 SP:F9
22315 CD82            BNE D0      immediate   A:34 X:34 Y:99 P:47 SP:F9
22318 CD84            CPX E0      immediate   A:34 X:34 Y:99 P:47 SP:F9
22321 CD86            BNE D0      immediate   A:34 X:34 Y:99 P:47 SP:F9
22324 CD88            CPY C0      immediate   A:34 X:34 Y:99 P:47 SP:F9
22327 CD8A            BNE D0      immediate   A:34 X:34 Y:99 P:47 SP:F9
22330 CD8C            LDX A2      immediate   A:34 X:34 Y:99 P:47 SP:F9
22333 CD8E            SEC 38        implied   A:34 X:0 Y:99 P:47 SP:F9
22336 CD8F            CLV B8        implied   A:34 X:0 Y:99 P:47 SP:F9
22339 CD90            TXA 8A        implied   A:34 X:0 Y:99 P:7 SP:F9
22342 CD91            BNE D0      immediate   A:0 X:0 Y:99 P:7 SP:F9
22345 CD93            BCC 90      immediate   A:0 X:0 Y:99 P:7 SP:F9
22348 CD95            BVS 70      immediate   A:0 X:0 Y:99 P:7 SP:F9
22351 CD97            BMI 30      immediate   A:0 X:0 Y:99 P:7 SP:F9
22354 CD99            CMP C9      immediate   A:0 X:0 Y:99 P:7 SP:F9
22357 CD9B            BNE D0      immediate   A:0 X:0 Y:99 P:7 SP:F9
22360 CD9D            CPX E0      immediate   A:0 X:0 Y:99 P:7 SP:F9
22363 CD9F            BNE D0      immediate   A:0 X:0 Y:99 P:7 SP:F9
22366 CDA1            CPY C0      immediate   A:0 X:0 Y:99 P:7 SP:F9
22369 CDA3            BNE D0      immediate   A:0 X:0 Y:99 P:7 SP:F9
22372 CDA5           JMPa 4C       absolute   A:0 X:0 Y:99 P:7 SP:F9
22377 CDAC            NOP EA        implied   A:0 X:0 Y:99 P:7 SP:F9
22380 CDAD            TSX BA        implied   A:0 X:0 Y:99 P:7 SP:F9
22383 CDAE            STX 8E       absolute   A:0 X:F9 Y:99 P:85 SP:F9
22388 CDB1            LDY A0      immediate   A:0 X:F9 Y:99 P:85 SP:F9
22391 CDB3            LDX A2      immediate   A:0 X:F9 Y:33 P:5 SP:F9
22394 CDB5            LDA A9      immediate   A:0 X:69 Y:33 P:5 SP:F9
22397 CDB7            CLC 18        implied   A:84 X:69 Y:33 P:85 SP:F9
22400 CDB8            BIT 24       zeropage   A:84 X:69 Y:33 P:84 SP:F9
22404 CDBA            TXS 9A        implied   A:84 X:69 Y:33 P:C4 SP:F9
22407 CDBB            BEQ F0      immediate   A:84 X:69 Y:33 P:C4 SP:69
22410 CDBD            BPL 10      immediate   A:84 X:69 Y:33 P:C4 SP:69
22413 CDBF            BCS B0      immediate   A:84 X:69 Y:33 P:C4 SP:69
22416 CDC1            BVC 50      immediate   A:84 X:69 Y:33 P:C4 SP:69
22419 CDC3            CMP C9      immediate   A:84 X:69 Y:33 P:C4 SP:69
22422 CDC5            BNE D0      immediate   A:84 X:69 Y:33 P:47 SP:69
22425 CDC7            CPX E0      immediate   A:84 X:69 Y:33 P:47 SP:69
22428 CDC9            BNE D0      immediate   A:84 X:69 Y:33 P:47 SP:69
22431 CDCB            CPY C0      immediate   A:84 X:69 Y:33 P:47 SP:69
22434 CDCD            BNE D0      immediate   A:84 X:69 Y:33 P:47 SP:69
22437 CDCF            LDY A0      immediate   A:84 X:69 Y:33 P:47 SP:69
22440 CDD1            LDA A9      immediate   A:84 X:69 Y:1 P:45 SP:69
22443 CDD3            SEC 38        implied   A:4 X:69 Y:1 P:45 SP:69
22446 CDD4            CLV B8        implied   A:4 X:69 Y:1 P:45 SP:69
22449 CDD5            LDX A2      immediate   A:4 X:69 Y:1 P:5 SP:69
22452 CDD7            TSX BA        implied   A:4 X:0 Y:1 P:7 SP:69
22455 CDD8            BEQ F0      immediate   A:4 X:69 Y:1 P:5 SP:69
22458 CDDA            BMI 30      immediate   A:4 X:69 Y:1 P:5 SP:69
22461 CDDC            BCC 90      immediate   A:4 X:69 Y:1 P:5 SP:69
22464 CDDE            BVS 70      immediate   A:4 X:69 Y:1 P:5 SP:69
22467 CDE0            CPX E0      immediate   A:4 X:69 Y:1 P:5 SP:69
22470 CDE2            BNE D0      immediate   A:4 X:69 Y:1 P:7 SP:69
22473 CDE4            CMP C9      immediate   A:4 X:69 Y:1 P:7 SP:69
22476 CDE6            BNE D0      immediate   A:4 X:69 Y:1 P:7 SP:69
22479 CDE8            CPY C0      immediate   A:4 X:69 Y:1 P:7 SP:69
22482 CDEA            BNE D0      immediate   A:4 X:69 Y:1 P:7 SP:69
22485 CDEC           JMPa 4C       absolute   A:4 X:69 Y:1 P:7 SP:69
22490 CDF3            LDX AE       absolute   A:4 X:69 Y:1 P:7 SP:69
22495 CDF6            TXS 9A        implied   A:4 X:F9 Y:1 P:85 SP:69
22498 CDF7            RTS 60        implied   A:4 X:F9 Y:1 P:85 SP:F9
22505 C609            JSR 20       absolute   A:4 X:F9 Y:1 P:85 SP:FB
22510 CDF8            LDA A9      immediate   A:4 X:F9 Y:1 P:85 SP:F9
22513 CDFA            STA 85       zeropage   A:FF X:F9 Y:1 P:85 SP:F9
22517 CDFC            TSX BA        implied   A:FF X:F9 Y:1 P:85 SP:F9
22520 CDFD            STX 8E       absolute   A:FF X:F9 Y:1 P:85 SP:F9
22525 CE00            NOP EA        implied   A:FF X:F9 Y:1 P:85 SP:F9
22528 CE01            LDX A2      immediate   A:FF X:F9 Y:1 P:85 SP:F9
22531 CE03            TXS 9A        implied   A:FF X:80 Y:1 P:85 SP:F9
22534 CE04            LDA A9      immediate   A:FF X:80 Y:1 P:85 SP:80
22537 CE06            PHA 48        implied   A:33 X:80 Y:1 P:5 SP:80
22541 CE07            LDA A9      immediate   A:33 X:80 Y:1 P:5 SP:7F
22544 CE09            PHA 48        implied   A:69 X:80 Y:1 P:5 SP:7F
22548 CE0A            TSX BA        implied   A:69 X:80 Y:1 P:5 SP:7E
22551 CE0B            CPX E0      immediate   A:69 X:7E Y:1 P:5 SP:7E
22554 CE0D            BNE D0      immediate   A:69 X:7E Y:1 P:7 SP:7E
22557 CE0F            PLA 68        implied   A:69 X:7E Y:1 P:7 SP:7E
22562 CE10            CMP C9      immediate   A:69 X:7E Y:1 P:5 SP:7F
22565 CE12            BNE D0      immediate   A:69 X:7E Y:1 P:7 SP:7F
22568 CE14            PLA 68        implied   A:69 X:7E Y:1 P:7 SP:7F
22573 CE15            CMP C9      immediate   A:33 X:7E Y:1 P:5 SP:80
22576 CE17            BNE D0      immediate   A:33 X:7E Y:1 P:7 SP:80
22579 CE19            TSX BA        implied   A:33 X:7E Y:1 P:7 SP:80
22582 CE1A            CPX E0      immediate   A:33 X:80 Y:1 P:85 SP:80
22585 CE1C            BNE D0      immediate   A:33 X:80 Y:1 P:7 SP:80
22588 CE1E            LDA AD       absolute   A:33 X:80 Y:1 P:7 SP:80
22593 CE21            CMP C9      immediate   A:33 X:80 Y:1 P:5 SP:80
22596 CE23            BNE D0      immediate   A:33 X:80 Y:1 P:7 SP:80
22599 CE25            LDA AD       absolute   A:33 X:80 Y:1 P:7 SP:80
22604 CE28            CMP C9      immediate   A:69 X:80 Y:1 P:5 SP:80
22607 CE2A            BNE D0      immediate   A:69 X:80 Y:1 P:7 SP:80
22610 CE2C           JMPa 4C       absolute   A:69 X:80 Y:1 P:7 SP:80
22615 CE33            NOP EA        implied   A:69 X:80 Y:1 P:7 SP:80
22618 CE34            LDX A2      immediate   A:69 X:80 Y:1 P:7 SP:80
22621 CE36            TXS 9A        implied   A:69 X:80 Y:1 P:85 SP:80
22624 CE37            JSR 20       absolute   A:69 X:80 Y:1 P:85 SP:80
22629 CE3D            TSX BA        implied   A:69 X:80 Y:1 P:85 SP:7E
22632 CE3E            CPX E0      immediate   A:69 X:7E Y:1 P:5 SP:7E
22635 CE40            BNE D0      immediate   A:69 X:7E Y:1 P:7 SP:7E
22638 CE42            PLA 68        implied   A:69 X:7E Y:1 P:7 SP:7E
22643 CE43            PLA 68        implied   A:39 X:7E Y:1 P:5 SP:7F
22648 CE44            TSX BA        implied   A:CE X:7E Y:1 P:85 SP:80
22651 CE45            CPX E0      immediate   A:CE X:80 Y:1 P:85 SP:80
22654 CE47            BNE D0      immediate   A:CE X:80 Y:1 P:7 SP:80
22657 CE49            LDA A9      immediate   A:CE X:80 Y:1 P:7 SP:80
22660 CE4B            JSR 20       absolute   A:0 X:80 Y:1 P:7 SP:80
22665 CE4E            PLA 68        implied   A:0 X:80 Y:1 P:7 SP:7E
22670 CE4F            CMP C9      immediate   A:4D X:80 Y:1 P:5 SP:7F
22673 CE51            BNE D0      immediate   A:4D X:80 Y:1 P:7 SP:7F
22676 CE53            PLA 68        implied   A:4D X:80 Y:1 P:7 SP:7F
22681 CE54            CMP C9      immediate   A:CE X:80 Y:1 P:85 SP:80
22684 CE56            BNE D0      immediate   A:CE X:80 Y:1 P:7 SP:80
22687 CE58           JMPa 4C       absolute   A:CE X:80 Y:1 P:7 SP:80
22692 CE5F            NOP EA        implied   A:CE X:80 Y:1 P:7 SP:80
22695 CE60            LDA A9      immediate   A:CE X:80 Y:1 P:7 SP:80
22698 CE62            PHA 48        implied   A:CE X:80 Y:1 P:85 SP:80
22702 CE63            LDA A9      immediate   A:CE X:80 Y:1 P:85 SP:7F
22705 CE65            PHA 48        implied   A:66 X:80 Y:1 P:5 SP:7F
22709 CE66            RTS 60        implied   A:66 X:80 Y:1 P:5 SP:7E
22716 CE67            LDX A2      immediate   A:66 X:80 Y:1 P:5 SP:80
22719 CE69            LDY A0      immediate   A:66 X:77 Y:1 P:5 SP:80
22722 CE6B            CLC 18        implied   A:66 X:77 Y:69 P:5 SP:80
22725 CE6C            BIT 24       zeropage   A:66 X:77 Y:69 P:4 SP:80
22729 CE6E            LDA A9      immediate   A:66 X:77 Y:69 P:C4 SP:80
22732 CE70            JSR 20       absolute   A:83 X:77 Y:69 P:C4 SP:80
22737 CE66            RTS 60        implied   A:83 X:77 Y:69 P:C4 SP:7E
22744 CE73            BEQ F0      immediate   A:83 X:77 Y:69 P:C4 SP:80
22747 CE75            BPL 10      immediate   A:83 X:77 Y:69 P:C4 SP:80
22750 CE77            BCS B0      immediate   A:83 X:77 Y:69 P:C4 SP:80
22753 CE79            BVC 50      immediate   A:83 X:77 Y:69 P:C4 SP:80
22756 CE7B            CMP C9      immediate   A:83 X:77 Y:69 P:C4 SP:80
22759 CE7D            BNE D0      immediate   A:83 X:77 Y:69 P:47 SP:80
22762 CE7F            CPY C0      immediate   A:83 X:77 Y:69 P:47 SP:80
22765 CE81            BNE D0      immediate   A:83 X:77 Y:69 P:47 SP:80
22768 CE83            CPX E0      immediate   A:83 X:77 Y:69 P:47 SP:80
22771 CE85            BNE D0      immediate   A:83 X:77 Y:69 P:47 SP:80
22774 CE87            SEC 38        implied   A:83 X:77 Y:69 P:47 SP:80
22777 CE88            CLV B8        implied   A:83 X:77 Y:69 P:47 SP:80
22780 CE89            LDA A9      immediate   A:83 X:77 Y:69 P:7 SP:80
22783 CE8B            JSR 20       absolute   A:0 X:77 Y:69 P:7 SP:80
22788 CE66            RTS 60        implied   A:0 X:77 Y:69 P:7 SP:7E
22795 CE8E            BNE D0      immediate   A:0 X:77 Y:69 P:7 SP:80
22798 CE90            BMI 30      immediate   A:0 X:77 Y:69 P:7 SP:80
22801 CE92            BCC 90      immediate   A:0 X:77 Y:69 P:7 SP:80
22804 CE94            BVS 70      immediate   A:0 X:77 Y:69 P:7 SP:80
22807 CE96           JMPa 4C       absolute   A:0 X:77 Y:69 P:7 SP:80
22812 CE9D            NOP EA        implied   A:0 X:77 Y:69 P:7 SP:80
22815 CE9E            LDA A9      immediate   A:0 X:77 Y:69 P:7 SP:80
22818 CEA0            PHA 48        implied   A:CE X:77 Y:69 P:85 SP:80
22822 CEA1            LDA A9      immediate   A:CE X:77 Y:69 P:85 SP:7F
22825 CEA3            PHA 48        implied   A:AE X:77 Y:69 P:85 SP:7F
22829 CEA4            LDA A9      immediate   A:AE X:77 Y:69 P:85 SP:7E
22832 CEA6            PHA 48        implied   A:65 X:77 Y:69 P:5 SP:7E
22836 CEA7            LDA A9      immediate   A:65 X:77 Y:69 P:5 SP:7D
22839 CEA9            LDY A0      immediate   A:55 X:77 Y:69 P:5 SP:7D
22842 CEAB            LDX A2      immediate   A:55 X:77 Y:88 P:85 SP:7D
22845 CEAD            RTI 40        implied   A:55 X:99 Y:88 P:85 SP:7D
22852 CEAE            BMI 30      immediate   A:55 X:99 Y:88 P:65 SP:80
22855 CEB0            BVC 50      immediate   A:55 X:99 Y:88 P:65 SP:80
22858 CEB2            BEQ F0      immediate   A:55 X:99 Y:88 P:65 SP:80
22861 CEB4            BCC 90      immediate   A:55 X:99 Y:88 P:65 SP:80
22864 CEB6            CMP C9      immediate   A:55 X:99 Y:88 P:65 SP:80
22867 CEB8            BNE D0      immediate   A:55 X:99 Y:88 P:67 SP:80
22870 CEBA            CPY C0      immediate   A:55 X:99 Y:88 P:67 SP:80
22873 CEBC            BNE D0      immediate   A:55 X:99 Y:88 P:67 SP:80
22876 CEBE            CPX E0      immediate   A:55 X:99 Y:88 P:67 SP:80
22879 CEC0            BNE D0      immediate   A:55 X:99 Y:88 P:67 SP:80
22882 CEC2            LDA A9      immediate   A:55 X:99 Y:88 P:67 SP:80
22885 CEC4            PHA 48        implied   A:CE X:99 Y:88 P:E5 SP:80
22889 CEC5            LDA A9      immediate   A:CE X:99 Y:88 P:E5 SP:7F
22892 CEC7            PHA 48        implied   A:CE X:99 Y:88 P:E5 SP:7F
22896 CEC8            LDA A9      immediate   A:CE X:99 Y:88 P:E5 SP:7E
22899 CECA            PHA 48        implied   A:87 X:99 Y:88 P:E5 SP:7E
22903 CECB            LDA A9      immediate   A:87 X:99 Y:88 P:E5 SP:7D
22906 CECD            RTI 40        implied   A:55 X:99 Y:88 P:65 SP:7D
22913 CECE            BPL 10      immediate   A:55 X:99 Y:88 P:87 SP:80
22916 CED0            BVS 70      immediate   A:55 X:99 Y:88 P:87 SP:80
22919 CED2            BNE D0      immediate   A:55 X:99 Y:88 P:87 SP:80
22922 CED4            BCC 90      immediate   A:55 X:99 Y:88 P:87 SP:80
22925 CED6            CMP C9      immediate   A:55 X:99 Y:88 P:87 SP:80
22928 CED8            BNE D0      immediate   A:55 X:99 Y:88 P:7 SP:80
22931 CEDA            CPY C0      immediate   A:55 X:99 Y:88 P:7 SP:80
22934 CEDC            BNE D0      immediate   A:55 X:99 Y:88 P:7 SP:80
22937 CEDE            CPX E0      immediate   A:55 X:99 Y:88 P:7 SP:80
22940 CEE0            BNE D0      immediate   A:55 X:99 Y:88 P:7 SP:80
22943 CEE2           JMPa 4C       absolute   A:55 X:99 Y:88 P:7 SP:80
22948 CEE9            LDX AE       absolute   A:55 X:99 Y:88 P:7 SP:80
22953 CEEC            TXS 9A        implied   A:55 X:F9 Y:88 P:85 SP:80
22956 CEED            RTS 60        implied   A:55 X:F9 Y:88 P:85 SP:F9
22963 C60C            JSR 20       absolute   A:55 X:F9 Y:88 P:85 SP:FB
22968 CEEE            LDX A2      immediate   A:55 X:F9 Y:88 P:85 SP:F9
22971 CEF0            LDY A0      immediate   A:55 X:55 Y:88 P:5 SP:F9
22974 CEF2            LDA A9      immediate   A:55 X:55 Y:69 P:5 SP:F9
22977 CEF4            STA 85       zeropage   A:FF X:55 Y:69 P:85 SP:F9
22981 CEF6            NOP EA        implied   A:FF X:55 Y:69 P:85 SP:F9
22984 CEF7            BIT 24       zeropage   A:FF X:55 Y:69 P:85 SP:F9
22988 CEF9            SEC 38        implied   A:FF X:55 Y:69 P:C5 SP:F9
22991 CEFA            LDA A9      immediate   A:FF X:55 Y:69 P:C5 SP:F9
22994 CEFC            LSR 4A    accumulator   A:1 X:55 Y:69 P:45 SP:F9
22997 CEFD            BCC 90      immediate   A:0 X:55 Y:69 P:47 SP:F9
23000 CEFF            BNE D0      immediate   A:0 X:55 Y:69 P:47 SP:F9
23003 CF01            BMI 30      immediate   A:0 X:55 Y:69 P:47 SP:F9
23006 CF03            BVC 50      immediate   A:0 X:55 Y:69 P:47 SP:F9
23009 CF05            CMP C9      immediate   A:0 X:55 Y:69 P:47 SP:F9
23012 CF07            BNE D0      immediate   A:0 X:55 Y:69 P:47 SP:F9
23015 CF09            CLV B8        implied   A:0 X:55 Y:69 P:47 SP:F9
23018 CF0A            LDA A9      immediate   A:0 X:55 Y:69 P:7 SP:F9
23021 CF0C            LSR 4A    accumulator   A:AA X:55 Y:69 P:85 SP:F9
23024 CF0D            BCS B0      immediate   A:55 X:55 Y:69 P:4 SP:F9
23027 CF0F            BEQ F0      immediate   A:55 X:55 Y:69 P:4 SP:F9
23030 CF11            BMI 30      immediate   A:55 X:55 Y:69 P:4 SP:F9
23033 CF13            BVS 70      immediate   A:55 X:55 Y:69 P:4 SP:F9
23036 CF15            CMP C9      immediate   A:55 X:55 Y:69 P:4 SP:F9
23039 CF17            BNE D0      immediate   A:55 X:55 Y:69 P:7 SP:F9
23042 CF19           JMPa 4C       absolute   A:55 X:55 Y:69 P:7 SP:F9
23047 CF20            NOP EA        implied   A:55 X:55 Y:69 P:7 SP:F9
23050 CF21            BIT 24       zeropage   A:55 X:55 Y:69 P:7 SP:F9
23054 CF23            SEC 38        implied   A:55 X:55 Y:69 P:C5 SP:F9
23057 CF24            LDA A9      immediate   A:55 X:55 Y:69 P:C5 SP:F9
23060 CF26            ASL A    accumulator   A:80 X:55 Y:69 P:C5 SP:F9
23063 CF27            BCC 90      immediate   A:0 X:55 Y:69 P:47 SP:F9
23066 CF29            BNE D0      immediate   A:0 X:55 Y:69 P:47 SP:F9
23069 CF2B            BMI 30      immediate   A:0 X:55 Y:69 P:47 SP:F9
23072 CF2D            BVC 50      immediate   A:0 X:55 Y:69 P:47 SP:F9
23075 CF2F            CMP C9      immediate   A:0 X:55 Y:69 P:47 SP:F9
23078 CF31            BNE D0      immediate   A:0 X:55 Y:69 P:47 SP:F9
23081 CF33            CLV B8        implied   A:0 X:55 Y:69 P:47 SP:F9
23084 CF34            SEC 38        implied   A:0 X:55 Y:69 P:7 SP:F9
23087 CF35            LDA A9      immediate   A:0 X:55 Y:69 P:7 SP:F9
23090 CF37            ASL A    accumulator   A:55 X:55 Y:69 P:5 SP:F9
23093 CF38            BCS B0      immediate   A:AA X:55 Y:69 P:84 SP:F9
23096 CF3A            BEQ F0      immediate   A:AA X:55 Y:69 P:84 SP:F9
23099 CF3C            BPL 10      immediate   A:AA X:55 Y:69 P:84 SP:F9
23102 CF3E            BVS 70      immediate   A:AA X:55 Y:69 P:84 SP:F9
23105 CF40            CMP C9      immediate   A:AA X:55 Y:69 P:84 SP:F9
23108 CF42            BNE D0      immediate   A:AA X:55 Y:69 P:7 SP:F9
23111 CF44           JMPa 4C       absolute   A:AA X:55 Y:69 P:7 SP:F9
23116 CF4B            NOP EA        implied   A:AA X:55 Y:69 P:7 SP:F9
23119 CF4C            BIT 24       zeropage   A:AA X:55 Y:69 P:7 SP:F9
23123 CF4E            SEC 38        implied   A:AA X:55 Y:69 P:C5 SP:F9
23126 CF4F            LDA A9      immediate   A:AA X:55 Y:69 P:C5 SP:F9
23129 CF51            ROR 6A    accumulator   A:1 X:55 Y:69 P:45 SP:F9
23132 CF52            BCC 90      immediate   A:80 X:55 Y:69 P:C5 SP:F9
23135 CF54            BEQ F0      immediate   A:80 X:55 Y:69 P:C5 SP:F9
23138 CF56            BPL 10      immediate   A:80 X:55 Y:69 P:C5 SP:F9
23141 CF58            BVC 50      immediate   A:80 X:55 Y:69 P:C5 SP:F9
23144 CF5A            CMP C9      immediate   A:80 X:55 Y:69 P:C5 SP:F9
23147 CF5C            BNE D0      immediate   A:80 X:55 Y:69 P:47 SP:F9
23150 CF5E            CLV B8        implied   A:80 X:55 Y:69 P:47 SP:F9
23153 CF5F            CLC 18        implied   A:80 X:55 Y:69 P:7 SP:F9
23156 CF60            LDA A9      immediate   A:80 X:55 Y:69 P:6 SP:F9
23159 CF62            ROR 6A    accumulator   A:55 X:55 Y:69 P:4 SP:F9
23162 CF63            BCC 90      immediate   A:2A X:55 Y:69 P:5 SP:F9
23165 CF65            BEQ F0      immediate   A:2A X:55 Y:69 P:5 SP:F9
23168 CF67            BMI 30      immediate   A:2A X:55 Y:69 P:5 SP:F9
23171 CF69            BVS 70      immediate   A:2A X:55 Y:69 P:5 SP:F9
23174 CF6B            CMP C9      immediate   A:2A X:55 Y:69 P:5 SP:F9
23177 CF6D            BNE D0      immediate   A:2A X:55 Y:69 P:7 SP:F9
23180 CF6F           JMPa 4C       absolute   A:2A X:55 Y:69 P:7 SP:F9
23185 CF76            NOP EA        implied   A:2A X:55 Y:69 P:7 SP:F9
23188 CF77            BIT 24       zeropage   A:2A X:55 Y:69 P:7 SP:F9
23192 CF79            SEC 38        implied   A:2A X:55 Y:69 P:C5 SP:F9
23195 CF7A            LDA A9      immediate   A:2A X:55 Y:69 P:C5 SP:F9
23198 CF7C            ROL 2A    accumulator   A:80 X:55 Y:69 P:C5 SP:F9
23201 CF7D            BCC 90      immediate   A:1 X:55 Y:69 P:45 SP:F9
23204 CF7F            BEQ F0      immediate   A:1 X:55 Y:69 P:45 SP:F9
23207 CF81            BMI 30      immediate   A:1 X:55 Y:69 P:45 SP:F9
23210 CF83            BVC 50      immediate   A:1 X:55 Y:69 P:45 SP:F9
23213 CF85            CMP C9      immediate   A:1 X:55 Y:69 P:45 SP:F9
23216 CF87            BNE D0      immediate   A:1 X:55 Y:69 P:47 SP:F9
23219 CF89            CLV B8        implied   A:1 X:55 Y:69 P:47 SP:F9
23222 CF8A            CLC 18        implied   A:1 X:55 Y:69 P:7 SP:F9
23225 CF8B            LDA A9      immediate   A:1 X:55 Y:69 P:6 SP:F9
23228 CF8D            ROL 2A    accumulator   A:55 X:55 Y:69 P:4 SP:F9
23231 CF8E            BCS B0      immediate   A:AA X:55 Y:69 P:84 SP:F9
23234 CF90            BEQ F0      immediate   A:AA X:55 Y:69 P:84 SP:F9
23237 CF92            BPL 10      immediate   A:AA X:55 Y:69 P:84 SP:F9
23240 CF94            BVS 70      immediate   A:AA X:55 Y:69 P:84 SP:F9
23243 CF96            CMP C9      immediate   A:AA X:55 Y:69 P:84 SP:F9
23246 CF98            BNE D0      immediate   A:AA X:55 Y:69 P:7 SP:F9
23249 CF9A           JMPa 4C       absolute   A:AA X:55 Y:69 P:7 SP:F9
23254 CFA1            RTS 60        implied   A:AA X:55 Y:69 P:7 SP:F9
23261 C60F            JSR 20       absolute   A:AA X:55 Y:69 P:7 SP:FB
23266 CFA2            LDA A5       zeropage   A:AA X:55 Y:69 P:7 SP:F9
23270 CFA4            STA 8D       absolute   A:0 X:55 Y:69 P:7 SP:F9
23275 CFA7            LDA A9      immediate   A:0 X:55 Y:69 P:7 SP:F9
23278 CFA9            STA 85       zeropage   A:0 X:55 Y:69 P:7 SP:F9
23282 CFAB            LDA A9      immediate   A:0 X:55 Y:69 P:7 SP:F9
23285 CFAD            STA 85       zeropage   A:2 X:55 Y:69 P:5 SP:F9
23289 CFAF            LDA A9      immediate   A:2 X:55 Y:69 P:5 SP:F9
23292 CFB1            STA 85       zeropage   A:FF X:55 Y:69 P:85 SP:F9
23296 CFB3            LDA A9      immediate   A:FF X:55 Y:69 P:85 SP:F9
23299 CFB5            STA 85       zeropage   A:0 X:55 Y:69 P:7 SP:F9
23303 CFB7            LDA A9      immediate   A:0 X:55 Y:69 P:7 SP:F9
23306 CFB9            STA 85       zeropage   A:3 X:55 Y:69 P:5 SP:F9
23310 CFBB            STA 85       zeropage   A:3 X:55 Y:69 P:5 SP:F9
23314 CFBD            LDA A9      immediate   A:3 X:55 Y:69 P:5 SP:F9
23317 CFBF            STA 85       zeropage   A:0 X:55 Y:69 P:7 SP:F9
23321 CFC1            LDA A9      immediate   A:0 X:55 Y:69 P:7 SP:F9
23324 CFC3            STA 85       zeropage   A:4 X:55 Y:69 P:5 SP:F9
23328 CFC5            LDA A9      immediate   A:4 X:55 Y:69 P:5 SP:F9
23331 CFC7            STA 8D       absolute   A:5A X:55 Y:69 P:5 SP:F9
23336 CFCA            LDA A9      immediate   A:5A X:55 Y:69 P:5 SP:F9
23339 CFCC            STA 8D       absolute   A:5B X:55 Y:69 P:5 SP:F9
23344 CFCF            LDA A9      immediate   A:5B X:55 Y:69 P:5 SP:F9
23347 CFD1            STA 8D       absolute   A:5C X:55 Y:69 P:5 SP:F9
23352 CFD4            LDA A9      immediate   A:5C X:55 Y:69 P:5 SP:F9
23355 CFD6            STA 8D       absolute   A:5D X:55 Y:69 P:5 SP:F9
23360 CFD9            LDX A2      immediate   A:5D X:55 Y:69 P:5 SP:F9
23363 CFDB            LDA A1   (zeropage,x)   A:5D X:0 Y:69 P:7 SP:F9
23370 CFDD            CMP C9      immediate   A:5A X:0 Y:69 P:5 SP:F9
23373 CFDF            BNE D0      immediate   A:5A X:0 Y:69 P:7 SP:F9
23376 CFE1            INX E8        implied   A:5A X:0 Y:69 P:7 SP:F9
23379 CFE2            INX E8        implied   A:5A X:1 Y:69 P:5 SP:F9
23382 CFE3            LDA A1   (zeropage,x)   A:5A X:2 Y:69 P:5 SP:F9
23389 CFE5            CMP C9      immediate   A:5B X:2 Y:69 P:5 SP:F9
23392 CFE7            BNE D0      immediate   A:5B X:2 Y:69 P:7 SP:F9
23395 CFE9            INX E8        implied   A:5B X:2 Y:69 P:7 SP:F9
23398 CFEA            LDA A1   (zeropage,x)   A:5B X:3 Y:69 P:5 SP:F9
23405 CFEC            CMP C9      immediate   A:5C X:3 Y:69 P:5 SP:F9
23408 CFEE            BNE D0      immediate   A:5C X:3 Y:69 P:7 SP:F9
23411 CFF0            LDX A2      immediate   A:5C X:3 Y:69 P:7 SP:F9
23414 CFF2            LDA A1   (zeropage,x)   A:5C X:0 Y:69 P:7 SP:F9
23421 CFF4            CMP C9      immediate   A:5D X:0 Y:69 P:5 SP:F9
23424 CFF6            BNE D0      immediate   A:5D X:0 Y:69 P:7 SP:F9
23427 CFF8            LDX A2      immediate   A:5D X:0 Y:69 P:7 SP:F9
23430 CFFA            LDA A1   (zeropage,x)   A:5D X:81 Y:69 P:85 SP:F9
23437 CFFC            CMP C9      immediate   A:5A X:81 Y:69 P:5 SP:F9
23440 CFFE            BEQ F0      immediate   A:5A X:81 Y:69 P:7 SP:F9
23443 D005            LDA A9      immediate   A:5A X:81 Y:69 P:7 SP:F9
23446 D007            LDX A2      immediate   A:AA X:81 Y:69 P:85 SP:F9
23449 D009            STA 81   (zeropage,x)   A:AA X:0 Y:69 P:7 SP:F9
23456 D00B            INX E8        implied   A:AA X:0 Y:69 P:7 SP:F9
23459 D00C            INX E8        implied   A:AA X:1 Y:69 P:5 SP:F9
23462 D00D            LDA A9      immediate   A:AA X:2 Y:69 P:5 SP:F9
23465 D00F            STA 81   (zeropage,x)   A:AB X:2 Y:69 P:85 SP:F9
23472 D011            INX E8        implied   A:AB X:2 Y:69 P:85 SP:F9
23475 D012            LDA A9      immediate   A:AB X:3 Y:69 P:5 SP:F9
23478 D014            STA 81   (zeropage,x)   A:AC X:3 Y:69 P:85 SP:F9
23485 D016            LDX A2      immediate   A:AC X:3 Y:69 P:85 SP:F9
23488 D018            LDA A9      immediate   A:AC X:0 Y:69 P:7 SP:F9
23491 D01A            STA 81   (zeropage,x)   A:AD X:0 Y:69 P:85 SP:F9
23498 D01C            LDA AD       absolute   A:AD X:0 Y:69 P:85 SP:F9
23503 D01F            CMP C9      immediate   A:AA X:0 Y:69 P:85 SP:F9
23506 D021            BNE D0      immediate   A:AA X:0 Y:69 P:7 SP:F9
23509 D023            LDA AD       absolute   A:AA X:0 Y:69 P:7 SP:F9
23514 D026            CMP C9      immediate   A:AB X:0 Y:69 P:85 SP:F9
23517 D028            BNE D0      immediate   A:AB X:0 Y:69 P:7 SP:F9
23520 D02A            LDA AD       absolute   A:AB X:0 Y:69 P:7 SP:F9
23525 D02D            CMP C9      immediate   A:AC X:0 Y:69 P:85 SP:F9
23528 D02F            BNE D0      immediate   A:AC X:0 Y:69 P:7 SP:F9
23531 D031            LDA AD       absolute   A:AC X:0 Y:69 P:7 SP:F9
23536 D034            CMP C9      immediate   A:AD X:0 Y:69 P:85 SP:F9
23539 D036            BEQ F0      immediate   A:AD X:0 Y:69 P:7 SP:F9
23542 D03D            LDA AD       absolute   A:AD X:0 Y:69 P:7 SP:F9
23547 D040            STA 85       zeropage   A:0 X:0 Y:69 P:7 SP:F9
23551 D042            LDA A9      immediate   A:0 X:0 Y:69 P:7 SP:F9
23554 D044            STA 8D       absolute   A:0 X:0 Y:69 P:7 SP:F9
23559 D047            LDA A9      immediate   A:0 X:0 Y:69 P:7 SP:F9
23562 D049            STA 8D       absolute   A:AA X:0 Y:69 P:85 SP:F9
23567 D04C            LDX A2      immediate   A:AA X:0 Y:69 P:85 SP:F9
23570 D04E            LDY A0      immediate   A:AA X:0 Y:69 P:7 SP:F9
23573 D050            JSR 20       absolute   A:AA X:0 Y:5A P:5 SP:F9
23578 F7B6            CLC 18        implied   A:AA X:0 Y:5A P:5 SP:F7
23581 F7B7            LDA A9      immediate   A:AA X:0 Y:5A P:4 SP:F7
23584 F7B9            STA 85       zeropage   A:FF X:0 Y:5A P:84 SP:F7
23588 F7BB            BIT 24       zeropage   A:FF X:0 Y:5A P:84 SP:F7
23592 F7BD            LDA A9      immediate   A:FF X:0 Y:5A P:C4 SP:F7
23595 F7BF            RTS 60        implied   A:55 X:0 Y:5A P:44 SP:F7
23602 D053            ORA 1   (zeropage,x)   A:55 X:0 Y:5A P:44 SP:F9
23609 D055            JSR 20       absolute   A:FF X:0 Y:5A P:C4 SP:F9
23614 F7C0            BCS B0      immediate   A:FF X:0 Y:5A P:C4 SP:F7
23617 F7C2            BPL 10      immediate   A:FF X:0 Y:5A P:C4 SP:F7
23620 F7C4            CMP C9      immediate   A:FF X:0 Y:5A P:C4 SP:F7
23623 F7C6            BNE D0      immediate   A:FF X:0 Y:5A P:47 SP:F7
23626 F7C8            BVC 50      immediate   A:FF X:0 Y:5A P:47 SP:F7
23629 F7CA            RTS 60        implied   A:FF X:0 Y:5A P:47 SP:F7
23636 D058            INY C8        implied   A:FF X:0 Y:5A P:47 SP:F9
23639 D059            JSR 20       absolute   A:FF X:0 Y:5B P:45 SP:F9
23644 F7CE            SEC 38        implied   A:FF X:0 Y:5B P:45 SP:F7
23647 F7CF            CLV B8        implied   A:FF X:0 Y:5B P:45 SP:F7
23650 F7D0            LDA A9      immediate   A:FF X:0 Y:5B P:5 SP:F7
23653 F7D2            RTS 60        implied   A:0 X:0 Y:5B P:7 SP:F7
23660 D05C            ORA 1   (zeropage,x)   A:0 X:0 Y:5B P:7 SP:F9
23667 D05E            JSR 20       absolute   A:0 X:0 Y:5B P:7 SP:F9
23672 F7D3            BNE D0      immediate   A:0 X:0 Y:5B P:7 SP:F7
23675 F7D5            BVS 70      immediate   A:0 X:0 Y:5B P:7 SP:F7
23678 F7D7            BCC 90      immediate   A:0 X:0 Y:5B P:7 SP:F7
23681 F7D9            BMI 30      immediate   A:0 X:0 Y:5B P:7 SP:F7
23684 F7DB            RTS 60        implied   A:0 X:0 Y:5B P:7 SP:F7
23691 D061            INY C8        implied   A:0 X:0 Y:5B P:7 SP:F9
23694 D062            JSR 20       absolute   A:0 X:0 Y:5C P:5 SP:F9
23699 F7DF            CLC 18        implied   A:0 X:0 Y:5C P:5 SP:F7
23702 F7E0            BIT 24       zeropage   A:0 X:0 Y:5C P:4 SP:F7
23706 F7E2            LDA A9      immediate   A:0 X:0 Y:5C P:C6 SP:F7
23709 F7E4            RTS 60        implied   A:55 X:0 Y:5C P:44 SP:F7
23716 D065            AND 21   (zeropage,x)   A:55 X:0 Y:5C P:44 SP:F9
23723 D067            JSR 20       absolute   A:0 X:0 Y:5C P:46 SP:F9
23728 F7E5            BNE D0      immediate   A:0 X:0 Y:5C P:46 SP:F7
23731 F7E7            BVC 50      immediate   A:0 X:0 Y:5C P:46 SP:F7
23734 F7E9            BCS B0      immediate   A:0 X:0 Y:5C P:46 SP:F7
23737 F7EB            BMI 30      immediate   A:0 X:0 Y:5C P:46 SP:F7
23740 F7ED            RTS 60        implied   A:0 X:0 Y:5C P:46 SP:F7
23747 D06A            INY C8        implied   A:0 X:0 Y:5C P:46 SP:F9
23750 D06B            LDA A9      immediate   A:0 X:0 Y:5D P:44 SP:F9
23753 D06D            STA 8D       absolute   A:EF X:0 Y:5D P:C4 SP:F9
23758 D070            JSR 20       absolute   A:EF X:0 Y:5D P:C4 SP:F9
23763 F7F1            SEC 38        implied   A:EF X:0 Y:5D P:C4 SP:F7
23766 F7F2            CLV B8        implied   A:EF X:0 Y:5D P:C5 SP:F7
23769 F7F3            LDA A9      immediate   A:EF X:0 Y:5D P:85 SP:F7
23772 F7F5            RTS 60        implied   A:F8 X:0 Y:5D P:85 SP:F7
23779 D073            AND 21   (zeropage,x)   A:F8 X:0 Y:5D P:85 SP:F9
23786 D075            JSR 20       absolute   A:E8 X:0 Y:5D P:85 SP:F9
23791 F7F6            BCC 90      immediate   A:E8 X:0 Y:5D P:85 SP:F7
23794 F7F8            BPL 10      immediate   A:E8 X:0 Y:5D P:85 SP:F7
23797 F7FA            CMP C9      immediate   A:E8 X:0 Y:5D P:85 SP:F7
23800 F7FC            BNE D0      immediate   A:E8 X:0 Y:5D P:7 SP:F7
23803 F7FE            BVS 70      immediate   A:E8 X:0 Y:5D P:7 SP:F7
23806 F800            RTS 60        implied   A:E8 X:0 Y:5D P:7 SP:F7
23813 D078            INY C8        implied   A:E8 X:0 Y:5D P:7 SP:F9
23816 D079            JSR 20       absolute   A:E8 X:0 Y:5E P:5 SP:F9
23821 F804            CLC 18        implied   A:E8 X:0 Y:5E P:5 SP:F7
23824 F805            BIT 24       zeropage   A:E8 X:0 Y:5E P:4 SP:F7
23828 F807            LDA A9      immediate   A:E8 X:0 Y:5E P:C4 SP:F7
23831 F809            RTS 60        implied   A:5F X:0 Y:5E P:44 SP:F7
23838 D07C            EOR 41   (zeropage,x)   A:5F X:0 Y:5E P:44 SP:F9
23845 D07E            JSR 20       absolute   A:F5 X:0 Y:5E P:C4 SP:F9
23850 F80A            BCS B0      immediate   A:F5 X:0 Y:5E P:C4 SP:F7
23853 F80C            BPL 10      immediate   A:F5 X:0 Y:5E P:C4 SP:F7
23856 F80E            CMP C9      immediate   A:F5 X:0 Y:5E P:C4 SP:F7
23859 F810            BNE D0      immediate   A:F5 X:0 Y:5E P:47 SP:F7
23862 F812            BVC 50      immediate   A:F5 X:0 Y:5E P:47 SP:F7
23865 F814            RTS 60        implied   A:F5 X:0 Y:5E P:47 SP:F7
23872 D081            INY C8        implied   A:F5 X:0 Y:5E P:47 SP:F9
23875 D082            LDA A9      immediate   A:F5 X:0 Y:5F P:45 SP:F9
23878 D084            STA 8D       absolute   A:70 X:0 Y:5F P:45 SP:F9
23883 D087            JSR 20       absolute   A:70 X:0 Y:5F P:45 SP:F9
23888 F818            SEC 38        implied   A:70 X:0 Y:5F P:45 SP:F7
23891 F819            CLV B8        implied   A:70 X:0 Y:5F P:45 SP:F7
23894 F81A            LDA A9      immediate   A:70 X:0 Y:5F P:5 SP:F7
23897 F81C            RTS 60        implied   A:70 X:0 Y:5F P:5 SP:F7
23904 D08A            EOR 41   (zeropage,x)   A:70 X:0 Y:5F P:5 SP:F9
23911 D08C            JSR 20       absolute   A:0 X:0 Y:5F P:7 SP:F9
23916 F81D            BNE D0      immediate   A:0 X:0 Y:5F P:7 SP:F7
23919 F81F            BVS 70      immediate   A:0 X:0 Y:5F P:7 SP:F7
23922 F821            BCC 90      immediate   A:0 X:0 Y:5F P:7 SP:F7
23925 F823            BMI 30      immediate   A:0 X:0 Y:5F P:7 SP:F7
23928 F825            RTS 60        implied   A:0 X:0 Y:5F P:7 SP:F7
23935 D08F            INY C8        implied   A:0 X:0 Y:5F P:7 SP:F9
23938 D090            LDA A9      immediate   A:0 X:0 Y:60 P:5 SP:F9
23941 D092            STA 8D       absolute   A:69 X:0 Y:60 P:5 SP:F9
23946 D095            JSR 20       absolute   A:69 X:0 Y:60 P:5 SP:F9
23951 F829            CLC 18        implied   A:69 X:0 Y:60 P:5 SP:F7
23954 F82A            BIT 24       zeropage   A:69 X:0 Y:60 P:4 SP:F7
23958 F82C            LDA A9      immediate   A:69 X:0 Y:60 P:C4 SP:F7
23961 F82E            RTS 60        implied   A:0 X:0 Y:60 P:46 SP:F7
23968 D098            ADC 61   (zeropage,x)   A:0 X:0 Y:60 P:46 SP:F9
23975 D09A            JSR 20       absolute   A:69 X:0 Y:60 P:4 SP:F9
23980 F82F            BMI 30      immediate   A:69 X:0 Y:60 P:4 SP:F7
23983 F831            BCS B0      immediate   A:69 X:0 Y:60 P:4 SP:F7
23986 F833            CMP C9      immediate   A:69 X:0 Y:60 P:4 SP:F7
23989 F835            BNE D0      immediate   A:69 X:0 Y:60 P:7 SP:F7
23992 F837            BVS 70      immediate   A:69 X:0 Y:60 P:7 SP:F7
23995 F839            RTS 60        implied   A:69 X:0 Y:60 P:7 SP:F7
24002 D09D            INY C8        implied   A:69 X:0 Y:60 P:7 SP:F9
24005 D09E            JSR 20       absolute   A:69 X:0 Y:61 P:5 SP:F9
24010 F83D            SEC 38        implied   A:69 X:0 Y:61 P:5 SP:F7
24013 F83E            BIT 24       zeropage   A:69 X:0 Y:61 P:5 SP:F7
24017 F840            LDA A9      immediate   A:69 X:0 Y:61 P:C5 SP:F7
24020 F842            RTS 60        implied   A:0 X:0 Y:61 P:47 SP:F7
24027 D0A1            ADC 61   (zeropage,x)   A:0 X:0 Y:61 P:47 SP:F9
24034 D0A3            JSR 20       absolute   A:6A X:0 Y:61 P:4 SP:F9
24039 F843            BMI 30      immediate   A:6A X:0 Y:61 P:4 SP:F7
24042 F845            BCS B0      immediate   A:6A X:0 Y:61 P:4 SP:F7
24045 F847            CMP C9      immediate   A:6A X:0 Y:61 P:4 SP:F7
24048 F849            BNE D0      immediate   A:6A X:0 Y:61 P:7 SP:F7
24051 F84B            BVS 70      immediate   A:6A X:0 Y:61 P:7 SP:F7
24054 F84D            RTS 60        implied   A:6A X:0 Y:61 P:7 SP:F7
24061 D0A6            INY C8        implied   A:6A X:0 Y:61 P:7 SP:F9
24064 D0A7            LDA A9      immediate   A:6A X:0 Y:62 P:5 SP:F9
24067 D0A9            STA 8D       absolute   A:7F X:0 Y:62 P:5 SP:F9
24072 D0AC            JSR 20       absolute   A:7F X:0 Y:62 P:5 SP:F9
24077 F851            SEC 38        implied   A:7F X:0 Y:62 P:5 SP:F7
24080 F852            CLV B8        implied   A:7F X:0 Y:62 P:5 SP:F7
24083 F853            LDA A9      immediate   A:7F X:0 Y:62 P:5 SP:F7
24086 F855            RTS 60        implied   A:7F X:0 Y:62 P:5 SP:F7
24093 D0AF            ADC 61   (zeropage,x)   A:7F X:0 Y:62 P:5 SP:F9
24100 D0B1            JSR 20       absolute   A:FF X:0 Y:62 P:C4 SP:F9
24105 F856            BPL 10      immediate   A:FF X:0 Y:62 P:C4 SP:F7
24108 F858            BCS B0      immediate   A:FF X:0 Y:62 P:C4 SP:F7
24111 F85A            CMP C9      immediate   A:FF X:0 Y:62 P:C4 SP:F7
24114 F85C            BNE D0      immediate   A:FF X:0 Y:62 P:47 SP:F7
24117 F85E            BVC 50      immediate   A:FF X:0 Y:62 P:47 SP:F7
24120 F860            RTS 60        implied   A:FF X:0 Y:62 P:47 SP:F7
24127 D0B4            INY C8        implied   A:FF X:0 Y:62 P:47 SP:F9
24130 D0B5            LDA A9      immediate   A:FF X:0 Y:63 P:45 SP:F9
24133 D0B7            STA 8D       absolute   A:80 X:0 Y:63 P:C5 SP:F9
24138 D0BA            JSR 20       absolute   A:80 X:0 Y:63 P:C5 SP:F9
24143 F864            CLC 18        implied   A:80 X:0 Y:63 P:C5 SP:F7
24146 F865            BIT 24       zeropage   A:80 X:0 Y:63 P:C4 SP:F7
24150 F867            LDA A9      immediate   A:80 X:0 Y:63 P:C4 SP:F7
24153 F869            RTS 60        implied   A:7F X:0 Y:63 P:44 SP:F7
24160 D0BD            ADC 61   (zeropage,x)   A:7F X:0 Y:63 P:44 SP:F9
24167 D0BF            JSR 20       absolute   A:FF X:0 Y:63 P:84 SP:F9
24172 F86A            BPL 10      immediate   A:FF X:0 Y:63 P:84 SP:F7
24175 F86C            BCS B0      immediate   A:FF X:0 Y:63 P:84 SP:F7
24178 F86E            CMP C9      immediate   A:FF X:0 Y:63 P:84 SP:F7
24181 F870            BNE D0      immediate   A:FF X:0 Y:63 P:7 SP:F7
24184 F872            BVS 70      immediate   A:FF X:0 Y:63 P:7 SP:F7
24187 F874            RTS 60        implied   A:FF X:0 Y:63 P:7 SP:F7
24194 D0C2            INY C8        implied   A:FF X:0 Y:63 P:7 SP:F9
24197 D0C3            JSR 20       absolute   A:FF X:0 Y:64 P:5 SP:F9
24202 F878            SEC 38        implied   A:FF X:0 Y:64 P:5 SP:F7
24205 F879            CLV B8        implied   A:FF X:0 Y:64 P:5 SP:F7
24208 F87A            LDA A9      immediate   A:FF X:0 Y:64 P:5 SP:F7
24211 F87C            RTS 60        implied   A:7F X:0 Y:64 P:5 SP:F7
24218 D0C6            ADC 61   (zeropage,x)   A:7F X:0 Y:64 P:5 SP:F9
24225 D0C8            JSR 20       absolute   A:0 X:0 Y:64 P:7 SP:F9
24230 F87D            BNE D0      immediate   A:0 X:0 Y:64 P:7 SP:F7
24233 F87F            BMI 30      immediate   A:0 X:0 Y:64 P:7 SP:F7
24236 F881            BVS 70      immediate   A:0 X:0 Y:64 P:7 SP:F7
24239 F883            BCC 90      immediate   A:0 X:0 Y:64 P:7 SP:F7
24242 F885            RTS 60        implied   A:0 X:0 Y:64 P:7 SP:F7
24249 D0CB            INY C8        implied   A:0 X:0 Y:64 P:7 SP:F9
24252 D0CC            LDA A9      immediate   A:0 X:0 Y:65 P:5 SP:F9
24255 D0CE            STA 8D       absolute   A:40 X:0 Y:65 P:5 SP:F9
24260 D0D1            JSR 20       absolute   A:40 X:0 Y:65 P:5 SP:F9
24265 F889            BIT 24       zeropage   A:40 X:0 Y:65 P:5 SP:F7
24269 F88B            LDA A9      immediate   A:40 X:0 Y:65 P:C5 SP:F7
24272 F88D            RTS 60        implied   A:40 X:0 Y:65 P:45 SP:F7
24279 D0D4            CMP C1   (zeropage,x)   A:40 X:0 Y:65 P:45 SP:F9
24286 D0D6            JSR 20       absolute   A:40 X:0 Y:65 P:47 SP:F9
24291 F88E            BMI 30      immediate   A:40 X:0 Y:65 P:47 SP:F7
24294 F890            BCC 90      immediate   A:40 X:0 Y:65 P:47 SP:F7
24297 F892            BNE D0      immediate   A:40 X:0 Y:65 P:47 SP:F7
24300 F894            BVC 50      immediate   A:40 X:0 Y:65 P:47 SP:F7
24303 F896            RTS 60        implied   A:40 X:0 Y:65 P:47 SP:F7
24310 D0D9            INY C8        implied   A:40 X:0 Y:65 P:47 SP:F9
24313 D0DA            PHA 48        implied   A:40 X:0 Y:66 P:45 SP:F9
24317 D0DB            LDA A9      immediate   A:40 X:0 Y:66 P:45 SP:F8
24320 D0DD            STA 8D       absolute   A:3F X:0 Y:66 P:45 SP:F8
24325 D0E0            PLA 68        implied   A:3F X:0 Y:66 P:45 SP:F8
24330 D0E1            JSR 20       absolute   A:40 X:0 Y:66 P:45 SP:F9
24335 F89A            CLV B8        implied   A:40 X:0 Y:66 P:45 SP:F7
24338 F89B            RTS 60        implied   A:40 X:0 Y:66 P:5 SP:F7
24345 D0E4            CMP C1   (zeropage,x)   A:40 X:0 Y:66 P:5 SP:F9
24352 D0E6            JSR 20       absolute   A:40 X:0 Y:66 P:5 SP:F9
24357 F89C            BEQ F0      immediate   A:40 X:0 Y:66 P:5 SP:F7
24360 F89E            BMI 30      immediate   A:40 X:0 Y:66 P:5 SP:F7
24363 F8A0            BCC 90      immediate   A:40 X:0 Y:66 P:5 SP:F7
24366 F8A2            BVS 70      immediate   A:40 X:0 Y:66 P:5 SP:F7
24369 F8A4            RTS 60        implied   A:40 X:0 Y:66 P:5 SP:F7
24376 D0E9            INY C8        implied   A:40 X:0 Y:66 P:5 SP:F9
24379 D0EA            PHA 48        implied   A:40 X:0 Y:67 P:5 SP:F9
24383 D0EB            LDA A9      immediate   A:40 X:0 Y:67 P:5 SP:F8
24386 D0ED            STA 8D       absolute   A:41 X:0 Y:67 P:5 SP:F8
24391 D0F0            PLA 68        implied   A:41 X:0 Y:67 P:5 SP:F8
24396 D0F1            CMP C1   (zeropage,x)   A:40 X:0 Y:67 P:5 SP:F9
24403 D0F3            JSR 20       absolute   A:40 X:0 Y:67 P:84 SP:F9
24408 F8A8            BEQ F0      immediate   A:40 X:0 Y:67 P:84 SP:F7
24411 F8AA            BPL 10      immediate   A:40 X:0 Y:67 P:84 SP:F7
24414 F8AC            BPL 10      immediate   A:40 X:0 Y:67 P:84 SP:F7
24417 F8AE            RTS 60        implied   A:40 X:0 Y:67 P:84 SP:F7
24424 D0F6            INY C8        implied   A:40 X:0 Y:67 P:84 SP:F9
24427 D0F7            PHA 48        implied   A:40 X:0 Y:68 P:4 SP:F9
24431 D0F8            LDA A9      immediate   A:40 X:0 Y:68 P:4 SP:F8
24434 D0FA            STA 8D       absolute   A:0 X:0 Y:68 P:6 SP:F8
24439 D0FD            PLA 68        implied   A:0 X:0 Y:68 P:6 SP:F8
24444 D0FE            JSR 20       absolute   A:40 X:0 Y:68 P:4 SP:F9
24449 F8B2            LDA A9      immediate   A:40 X:0 Y:68 P:4 SP:F7
24452 F8B4            RTS 60        implied   A:80 X:0 Y:68 P:84 SP:F7
24459 D101            CMP C1   (zeropage,x)   A:80 X:0 Y:68 P:84 SP:F9
24466 D103            JSR 20       absolute   A:80 X:0 Y:68 P:85 SP:F9
24471 F8B5            BEQ F0      immediate   A:80 X:0 Y:68 P:85 SP:F7
24474 F8B7            BPL 10      immediate   A:80 X:0 Y:68 P:85 SP:F7
24477 F8B9            BCC 90      immediate   A:80 X:0 Y:68 P:85 SP:F7
24480 F8BB            RTS 60        implied   A:80 X:0 Y:68 P:85 SP:F7
24487 D106            INY C8        implied   A:80 X:0 Y:68 P:85 SP:F9
24490 D107            PHA 48        implied   A:80 X:0 Y:69 P:5 SP:F9
24494 D108            LDA A9      immediate   A:80 X:0 Y:69 P:5 SP:F8
24497 D10A            STA 8D       absolute   A:80 X:0 Y:69 P:85 SP:F8
24502 D10D            PLA 68        implied   A:80 X:0 Y:69 P:85 SP:F8
24507 D10E            CMP C1   (zeropage,x)   A:80 X:0 Y:69 P:85 SP:F9
24514 D110            JSR 20       absolute   A:80 X:0 Y:69 P:7 SP:F9
24519 F8BF            BNE D0      immediate   A:80 X:0 Y:69 P:7 SP:F7
24522 F8C1            BMI 30      immediate   A:80 X:0 Y:69 P:7 SP:F7
24525 F8C3            BCC 90      immediate   A:80 X:0 Y:69 P:7 SP:F7
24528 F8C5            RTS 60        implied   A:80 X:0 Y:69 P:7 SP:F7
24535 D113            INY C8        implied   A:80 X:0 Y:69 P:7 SP:F9
24538 D114            PHA 48        implied   A:80 X:0 Y:6A P:5 SP:F9
24542 D115            LDA A9      immediate   A:80 X:0 Y:6A P:5 SP:F8
24545 D117            STA 8D       absolute   A:81 X:0 Y:6A P:85 SP:F8
24550 D11A            PLA 68        implied   A:81 X:0 Y:6A P:85 SP:F8
24555 D11B            CMP C1   (zeropage,x)   A:80 X:0 Y:6A P:85 SP:F9
24562 D11D            JSR 20       absolute   A:80 X:0 Y:6A P:84 SP:F9
24567 F8C9            BCS B0      immediate   A:80 X:0 Y:6A P:84 SP:F7
24570 F8CB            BEQ F0      immediate   A:80 X:0 Y:6A P:84 SP:F7
24573 F8CD            BPL 10      immediate   A:80 X:0 Y:6A P:84 SP:F7
24576 F8CF            RTS 60        implied   A:80 X:0 Y:6A P:84 SP:F7
24583 D120            INY C8        implied   A:80 X:0 Y:6A P:84 SP:F9
24586 D121            PHA 48        implied   A:80 X:0 Y:6B P:4 SP:F9
24590 D122            LDA A9      immediate   A:80 X:0 Y:6B P:4 SP:F8
24593 D124            STA 8D       absolute   A:7F X:0 Y:6B P:4 SP:F8
24598 D127            PLA 68        implied   A:7F X:0 Y:6B P:4 SP:F8
24603 D128            CMP C1   (zeropage,x)   A:80 X:0 Y:6B P:84 SP:F9
24610 D12A            JSR 20       absolute   A:80 X:0 Y:6B P:5 SP:F9
24615 F8D3            BCC 90      immediate   A:80 X:0 Y:6B P:5 SP:F7
24618 F8D5            BEQ F0      immediate   A:80 X:0 Y:6B P:5 SP:F7
24621 F8D7            BMI 30      immediate   A:80 X:0 Y:6B P:5 SP:F7
24624 F8D9            RTS 60        implied   A:80 X:0 Y:6B P:5 SP:F7
24631 D12D            INY C8        implied   A:80 X:0 Y:6B P:5 SP:F9
24634 D12E            LDA A9      immediate   A:80 X:0 Y:6C P:5 SP:F9
24637 D130            STA 8D       absolute   A:40 X:0 Y:6C P:5 SP:F9
24642 D133            JSR 20       absolute   A:40 X:0 Y:6C P:5 SP:F9
24647 F931            BIT 24       zeropage   A:40 X:0 Y:6C P:5 SP:F7
24651 F933            LDA A9      immediate   A:40 X:0 Y:6C P:C5 SP:F7
24654 F935            SEC 38        implied   A:40 X:0 Y:6C P:45 SP:F7
24657 F936            RTS 60        implied   A:40 X:0 Y:6C P:45 SP:F7
24664 D136            SBC E1   (zeropage,x)   A:40 X:0 Y:6C P:45 SP:F9
24671 D138            JSR 20       absolute   A:0 X:0 Y:6C P:7 SP:F9
24676 F937            BMI 30      immediate   A:0 X:0 Y:6C P:7 SP:F7
24679 F939            BCC 90      immediate   A:0 X:0 Y:6C P:7 SP:F7
24682 F93B            BNE D0      immediate   A:0 X:0 Y:6C P:7 SP:F7
24685 F93D            BVS 70      immediate   A:0 X:0 Y:6C P:7 SP:F7
24688 F93F            CMP C9      immediate   A:0 X:0 Y:6C P:7 SP:F7
24691 F941            BNE D0      immediate   A:0 X:0 Y:6C P:7 SP:F7
24694 F943            RTS 60        implied   A:0 X:0 Y:6C P:7 SP:F7
24701 D13B            INY C8        implied   A:0 X:0 Y:6C P:7 SP:F9
24704 D13C            LDA A9      immediate   A:0 X:0 Y:6D P:5 SP:F9
24707 D13E            STA 8D       absolute   A:3F X:0 Y:6D P:5 SP:F9
24712 D141            JSR 20       absolute   A:3F X:0 Y:6D P:5 SP:F9
24717 F947            CLV B8        implied   A:3F X:0 Y:6D P:5 SP:F7
24720 F948            SEC 38        implied   A:3F X:0 Y:6D P:5 SP:F7
24723 F949            LDA A9      immediate   A:3F X:0 Y:6D P:5 SP:F7
24726 F94B            RTS 60        implied   A:40 X:0 Y:6D P:5 SP:F7
24733 D144            SBC E1   (zeropage,x)   A:40 X:0 Y:6D P:5 SP:F9
24740 D146            JSR 20       absolute   A:1 X:0 Y:6D P:5 SP:F9
24745 F94C            BEQ F0      immediate   A:1 X:0 Y:6D P:5 SP:F7
24748 F94E            BMI 30      immediate   A:1 X:0 Y:6D P:5 SP:F7
24751 F950            BCC 90      immediate   A:1 X:0 Y:6D P:5 SP:F7
24754 F952            BVS 70      immediate   A:1 X:0 Y:6D P:5 SP:F7
24757 F954            CMP C9      immediate   A:1 X:0 Y:6D P:5 SP:F7
24760 F956            BNE D0      immediate   A:1 X:0 Y:6D P:7 SP:F7
24763 F958            RTS 60        implied   A:1 X:0 Y:6D P:7 SP:F7
24770 D149            INY C8        implied   A:1 X:0 Y:6D P:7 SP:F9
24773 D14A            LDA A9      immediate   A:1 X:0 Y:6E P:5 SP:F9
24776 D14C            STA 8D       absolute   A:41 X:0 Y:6E P:5 SP:F9
24781 D14F            JSR 20       absolute   A:41 X:0 Y:6E P:5 SP:F9
24786 F95C            LDA A9      immediate   A:41 X:0 Y:6E P:5 SP:F7
24789 F95E            SEC 38        implied   A:40 X:0 Y:6E P:5 SP:F7
24792 F95F            BIT 24       zeropage   A:40 X:0 Y:6E P:5 SP:F7
24796 F961            RTS 60        implied   A:40 X:0 Y:6E P:C5 SP:F7
24803 D152            SBC E1   (zeropage,x)   A:40 X:0 Y:6E P:C5 SP:F9
24810 D154            JSR 20       absolute   A:FF X:0 Y:6E P:84 SP:F9
24815 F962            BCS B0      immediate   A:FF X:0 Y:6E P:84 SP:F7
24818 F964            BEQ F0      immediate   A:FF X:0 Y:6E P:84 SP:F7
24821 F966            BPL 10      immediate   A:FF X:0 Y:6E P:84 SP:F7
24824 F968            BVS 70      immediate   A:FF X:0 Y:6E P:84 SP:F7
24827 F96A            CMP C9      immediate   A:FF X:0 Y:6E P:84 SP:F7
24830 F96C            BNE D0      immediate   A:FF X:0 Y:6E P:7 SP:F7
24833 F96E            RTS 60        implied   A:FF X:0 Y:6E P:7 SP:F7
24840 D157            INY C8        implied   A:FF X:0 Y:6E P:7 SP:F9
24843 D158            LDA A9      immediate   A:FF X:0 Y:6F P:5 SP:F9
24846 D15A            STA 8D       absolute   A:0 X:0 Y:6F P:7 SP:F9
24851 D15D            JSR 20       absolute   A:0 X:0 Y:6F P:7 SP:F9
24856 F972            CLC 18        implied   A:0 X:0 Y:6F P:7 SP:F7
24859 F973            LDA A9      immediate   A:0 X:0 Y:6F P:6 SP:F7
24862 F975            RTS 60        implied   A:80 X:0 Y:6F P:84 SP:F7
24869 D160            SBC E1   (zeropage,x)   A:80 X:0 Y:6F P:84 SP:F9
24876 D162            JSR 20       absolute   A:7F X:0 Y:6F P:45 SP:F9
24881 F976            BCC 90      immediate   A:7F X:0 Y:6F P:45 SP:F7
24884 F978            CMP C9      immediate   A:7F X:0 Y:6F P:45 SP:F7
24887 F97A            BNE D0      immediate   A:7F X:0 Y:6F P:47 SP:F7
24890 F97C            RTS 60        implied   A:7F X:0 Y:6F P:47 SP:F7
24897 D165            INY C8        implied   A:7F X:0 Y:6F P:47 SP:F9
24900 D166            LDA A9      immediate   A:7F X:0 Y:70 P:45 SP:F9
24903 D168            STA 8D       absolute   A:7F X:0 Y:70 P:45 SP:F9
24908 D16B            JSR 20       absolute   A:7F X:0 Y:70 P:45 SP:F9
24913 F980            SEC 38        implied   A:7F X:0 Y:70 P:45 SP:F7
24916 F981            LDA A9      immediate   A:7F X:0 Y:70 P:45 SP:F7
24919 F983            RTS 60        implied   A:81 X:0 Y:70 P:C5 SP:F7
24926 D16E            SBC E1   (zeropage,x)   A:81 X:0 Y:70 P:C5 SP:F9
24933 D170            JSR 20       absolute   A:2 X:0 Y:70 P:45 SP:F9
24938 F984            BVC 50      immediate   A:2 X:0 Y:70 P:45 SP:F7
24941 F986            BCC 90      immediate   A:2 X:0 Y:70 P:45 SP:F7
24944 F988            CMP C9      immediate   A:2 X:0 Y:70 P:45 SP:F7
24947 F98A            BNE D0      immediate   A:2 X:0 Y:70 P:47 SP:F7
24950 F98C            RTS 60        implied   A:2 X:0 Y:70 P:47 SP:F7
24957 D173            RTS 60        implied   A:2 X:0 Y:70 P:47 SP:F9
24964 C612            JSR 20       absolute   A:2 X:0 Y:70 P:47 SP:FB
24969 D174            LDA A9      immediate   A:2 X:0 Y:70 P:47 SP:F9
24972 D176            STA 85       zeropage   A:55 X:0 Y:70 P:45 SP:F9
24976 D178            LDA A9      immediate   A:55 X:0 Y:70 P:45 SP:F9
24979 D17A            STA 85       zeropage   A:FF X:0 Y:70 P:C5 SP:F9
24983 D17C            BIT 24       zeropage   A:FF X:0 Y:70 P:C5 SP:F9
24987 D17E            LDY A0      immediate   A:FF X:0 Y:70 P:C5 SP:F9
24990 D180            LDX A2      immediate   A:FF X:0 Y:11 P:45 SP:F9
24993 D182            LDA A9      immediate   A:FF X:23 Y:11 P:45 SP:F9
24996 D184            LDA A5       zeropage   A:0 X:23 Y:11 P:47 SP:F9
25000 D186            BEQ F0      immediate   A:55 X:23 Y:11 P:45 SP:F9
25003 D188            BMI 30      immediate   A:55 X:23 Y:11 P:45 SP:F9
25006 D18A            CMP C9      immediate   A:55 X:23 Y:11 P:45 SP:F9
25009 D18C            BNE D0      immediate   A:55 X:23 Y:11 P:47 SP:F9
25012 D18E            CPY C0      immediate   A:55 X:23 Y:11 P:47 SP:F9
25015 D190            BNE D0      immediate   A:55 X:23 Y:11 P:47 SP:F9
25018 D192            CPX E0      immediate   A:55 X:23 Y:11 P:47 SP:F9
25021 D194            BVC 50      immediate   A:55 X:23 Y:11 P:47 SP:F9
25024 D196            BEQ F0      immediate   A:55 X:23 Y:11 P:47 SP:F9
25027 D19C            LDA A9      immediate   A:55 X:23 Y:11 P:47 SP:F9
25030 D19E            BIT 24       zeropage   A:46 X:23 Y:11 P:45 SP:F9
25034 D1A0            STA 85       zeropage   A:46 X:23 Y:11 P:C5 SP:F9
25038 D1A2            BEQ F0      immediate   A:46 X:23 Y:11 P:C5 SP:F9
25041 D1A4            BPL 10      immediate   A:46 X:23 Y:11 P:C5 SP:F9
25044 D1A6            BVC 50      immediate   A:46 X:23 Y:11 P:C5 SP:F9
25047 D1A8            LDA A5       zeropage   A:46 X:23 Y:11 P:C5 SP:F9
25051 D1AA            CMP C9      immediate   A:46 X:23 Y:11 P:45 SP:F9
25054 D1AC            BEQ F0      immediate   A:46 X:23 Y:11 P:47 SP:F9
25057 D1B2            LDA A9      immediate   A:46 X:23 Y:11 P:47 SP:F9
25060 D1B4            STA 85       zeropage   A:55 X:23 Y:11 P:45 SP:F9
25064 D1B6            BIT 24       zeropage   A:55 X:23 Y:11 P:45 SP:F9
25068 D1B8            LDA A9      immediate   A:55 X:23 Y:11 P:C5 SP:F9
25071 D1BA            LDX A2      immediate   A:11 X:23 Y:11 P:45 SP:F9
25074 D1BC            LDY A0      immediate   A:11 X:23 Y:11 P:45 SP:F9
25077 D1BE            LDY A4       zeropage   A:11 X:23 Y:0 P:47 SP:F9
25081 D1C0            BEQ F0      immediate   A:11 X:23 Y:55 P:45 SP:F9
25084 D1C2            BMI 30      immediate   A:11 X:23 Y:55 P:45 SP:F9
25087 D1C4            CPY C0      immediate   A:11 X:23 Y:55 P:45 SP:F9
25090 D1C6            BNE D0      immediate   A:11 X:23 Y:55 P:47 SP:F9
25093 D1C8            CMP C9      immediate   A:11 X:23 Y:55 P:47 SP:F9
25096 D1CA            BNE D0      immediate   A:11 X:23 Y:55 P:47 SP:F9
25099 D1CC            CPX E0      immediate   A:11 X:23 Y:55 P:47 SP:F9
25102 D1CE            BVC 50      immediate   A:11 X:23 Y:55 P:47 SP:F9
25105 D1D0            BEQ F0      immediate   A:11 X:23 Y:55 P:47 SP:F9
25108 D1D6            LDY A0      immediate   A:11 X:23 Y:55 P:47 SP:F9
25111 D1D8            BIT 24       zeropage   A:11 X:23 Y:46 P:45 SP:F9
25115 D1DA            STY 84       zeropage   A:11 X:23 Y:46 P:C5 SP:F9
25119 D1DC            BEQ F0      immediate   A:11 X:23 Y:46 P:C5 SP:F9
25122 D1DE            BPL 10      immediate   A:11 X:23 Y:46 P:C5 SP:F9
25125 D1E0            BVC 50      immediate   A:11 X:23 Y:46 P:C5 SP:F9
25128 D1E2            LDY A4       zeropage   A:11 X:23 Y:46 P:C5 SP:F9
25132 D1E4            CPY C0      immediate   A:11 X:23 Y:46 P:45 SP:F9
25135 D1E6            BEQ F0      immediate   A:11 X:23 Y:46 P:47 SP:F9
25138 D1EC            BIT 24       zeropage   A:11 X:23 Y:46 P:47 SP:F9
25142 D1EE            LDA A9      immediate   A:11 X:23 Y:46 P:C5 SP:F9
25145 D1F0            STA 85       zeropage   A:55 X:23 Y:46 P:45 SP:F9
25149 D1F2            LDY A0      immediate   A:55 X:23 Y:46 P:45 SP:F9
25152 D1F4            LDA A9      immediate   A:55 X:23 Y:11 P:45 SP:F9
25155 D1F6            LDX A2      immediate   A:23 X:23 Y:11 P:45 SP:F9
25158 D1F8            LDX A6       zeropage   A:23 X:0 Y:11 P:47 SP:F9
25162 D1FA            BEQ F0      immediate   A:23 X:55 Y:11 P:45 SP:F9
25165 D1FC            BMI 30      immediate   A:23 X:55 Y:11 P:45 SP:F9
25168 D1FE            CPX E0      immediate   A:23 X:55 Y:11 P:45 SP:F9
25171 D200            BNE D0      immediate   A:23 X:55 Y:11 P:47 SP:F9
25174 D202            CPY C0      immediate   A:23 X:55 Y:11 P:47 SP:F9
25177 D204            BNE D0      immediate   A:23 X:55 Y:11 P:47 SP:F9
25180 D206            CMP C9      immediate   A:23 X:55 Y:11 P:47 SP:F9
25183 D208            BVC 50      immediate   A:23 X:55 Y:11 P:47 SP:F9
25186 D20A            BEQ F0      immediate   A:23 X:55 Y:11 P:47 SP:F9
25189 D210            LDX A2      immediate   A:23 X:55 Y:11 P:47 SP:F9
25192 D212            BIT 24       zeropage   A:23 X:46 Y:11 P:45 SP:F9
25196 D214            STX 86       zeropage   A:23 X:46 Y:11 P:C5 SP:F9
25200 D216            BEQ F0      immediate   A:23 X:46 Y:11 P:C5 SP:F9
25203 D218            BPL 10      immediate   A:23 X:46 Y:11 P:C5 SP:F9
25206 D21A            BVC 50      immediate   A:23 X:46 Y:11 P:C5 SP:F9
25209 D21C            LDX A6       zeropage   A:23 X:46 Y:11 P:C5 SP:F9
25213 D21E            CPX E0      immediate   A:23 X:46 Y:11 P:45 SP:F9
25216 D220            BEQ F0      immediate   A:23 X:46 Y:11 P:47 SP:F9
25219 D226            LDA A9      immediate   A:23 X:46 Y:11 P:47 SP:F9
25222 D228            STA 85       zeropage   A:C0 X:46 Y:11 P:C5 SP:F9
25226 D22A            LDX A2      immediate   A:C0 X:46 Y:11 P:C5 SP:F9
25229 D22C            LDY A0      immediate   A:C0 X:33 Y:11 P:45 SP:F9
25232 D22E            LDA A9      immediate   A:C0 X:33 Y:88 P:C5 SP:F9
25235 D230            BIT 24       zeropage   A:5 X:33 Y:88 P:45 SP:F9
25239 D232            BPL 10      immediate   A:5 X:33 Y:88 P:C7 SP:F9
25242 D234            BVC 50      immediate   A:5 X:33 Y:88 P:C7 SP:F9
25245 D236            BNE D0      immediate   A:5 X:33 Y:88 P:C7 SP:F9
25248 D238            CMP C9      immediate   A:5 X:33 Y:88 P:C7 SP:F9
25251 D23A            BNE D0      immediate   A:5 X:33 Y:88 P:47 SP:F9
25254 D23C            CPX E0      immediate   A:5 X:33 Y:88 P:47 SP:F9
25257 D23E            BNE D0      immediate   A:5 X:33 Y:88 P:47 SP:F9
25260 D240            CPY C0      immediate   A:5 X:33 Y:88 P:47 SP:F9
25263 D242            BEQ F0      immediate   A:5 X:33 Y:88 P:47 SP:F9
25266 D248            LDA A9      immediate   A:5 X:33 Y:88 P:47 SP:F9
25269 D24A            STA 85       zeropage   A:3 X:33 Y:88 P:45 SP:F9
25273 D24C            LDA A9      immediate   A:3 X:33 Y:88 P:45 SP:F9
25276 D24E            BIT 24       zeropage   A:1 X:33 Y:88 P:45 SP:F9
25280 D250            BMI 30      immediate   A:1 X:33 Y:88 P:5 SP:F9
25283 D252            BVS 70      immediate   A:1 X:33 Y:88 P:5 SP:F9
25286 D254            BEQ F0      immediate   A:1 X:33 Y:88 P:5 SP:F9
25289 D256            CMP C9      immediate   A:1 X:33 Y:88 P:5 SP:F9
25292 D258            BEQ F0      immediate   A:1 X:33 Y:88 P:7 SP:F9
25295 D25E            LDY A0      immediate   A:1 X:33 Y:88 P:7 SP:F9
25298 D260            LDA A9      immediate   A:1 X:33 Y:7E P:5 SP:F9
25301 D262            STA 85       zeropage   A:AA X:33 Y:7E P:85 SP:F9
25305 D264            JSR 20       absolute   A:AA X:33 Y:7E P:85 SP:F9
25310 F7B6            CLC 18        implied   A:AA X:33 Y:7E P:85 SP:F7
25313 F7B7            LDA A9      immediate   A:AA X:33 Y:7E P:84 SP:F7
25316 F7B9            STA 85       zeropage   A:FF X:33 Y:7E P:84 SP:F7
25320 F7BB            BIT 24       zeropage   A:FF X:33 Y:7E P:84 SP:F7
25324 F7BD            LDA A9      immediate   A:FF X:33 Y:7E P:C4 SP:F7
25327 F7BF            RTS 60        implied   A:55 X:33 Y:7E P:44 SP:F7
25334 D267            ORA 5       zeropage   A:55 X:33 Y:7E P:44 SP:F9
25338 D269            JSR 20       absolute   A:FF X:33 Y:7E P:C4 SP:F9
25343 F7C0            BCS B0      immediate   A:FF X:33 Y:7E P:C4 SP:F7
25346 F7C2            BPL 10      immediate   A:FF X:33 Y:7E P:C4 SP:F7
25349 F7C4            CMP C9      immediate   A:FF X:33 Y:7E P:C4 SP:F7
25352 F7C6            BNE D0      immediate   A:FF X:33 Y:7E P:47 SP:F7
25355 F7C8            BVC 50      immediate   A:FF X:33 Y:7E P:47 SP:F7
25358 F7CA            RTS 60        implied   A:FF X:33 Y:7E P:47 SP:F7
25365 D26C            INY C8        implied   A:FF X:33 Y:7E P:47 SP:F9
25368 D26D            LDA A9      immediate   A:FF X:33 Y:7F P:45 SP:F9
25371 D26F            STA 85       zeropage   A:0 X:33 Y:7F P:47 SP:F9
25375 D271            JSR 20       absolute   A:0 X:33 Y:7F P:47 SP:F9
25380 F7CE            SEC 38        implied   A:0 X:33 Y:7F P:47 SP:F7
25383 F7CF            CLV B8        implied   A:0 X:33 Y:7F P:47 SP:F7
25386 F7D0            LDA A9      immediate   A:0 X:33 Y:7F P:7 SP:F7
25389 F7D2            RTS 60        implied   A:0 X:33 Y:7F P:7 SP:F7
25396 D274            ORA 5       zeropage   A:0 X:33 Y:7F P:7 SP:F9
25400 D276            JSR 20       absolute   A:0 X:33 Y:7F P:7 SP:F9
25405 F7D3            BNE D0      immediate   A:0 X:33 Y:7F P:7 SP:F7
25408 F7D5            BVS 70      immediate   A:0 X:33 Y:7F P:7 SP:F7
25411 F7D7            BCC 90      immediate   A:0 X:33 Y:7F P:7 SP:F7
25414 F7D9            BMI 30      immediate   A:0 X:33 Y:7F P:7 SP:F7
25417 F7DB            RTS 60        implied   A:0 X:33 Y:7F P:7 SP:F7
25424 D279            INY C8        implied   A:0 X:33 Y:7F P:7 SP:F9
25427 D27A            LDA A9      immediate   A:0 X:33 Y:80 P:85 SP:F9
25430 D27C            STA 85       zeropage   A:AA X:33 Y:80 P:85 SP:F9
25434 D27E            JSR 20       absolute   A:AA X:33 Y:80 P:85 SP:F9
25439 F7DF            CLC 18        implied   A:AA X:33 Y:80 P:85 SP:F7
25442 F7E0            BIT 24       zeropage   A:AA X:33 Y:80 P:84 SP:F7
25446 F7E2            LDA A9      immediate   A:AA X:33 Y:80 P:C4 SP:F7
25449 F7E4            RTS 60        implied   A:55 X:33 Y:80 P:44 SP:F7
25456 D281            AND 25       zeropage   A:55 X:33 Y:80 P:44 SP:F9
25460 D283            JSR 20       absolute   A:0 X:33 Y:80 P:46 SP:F9
25465 F7E5            BNE D0      immediate   A:0 X:33 Y:80 P:46 SP:F7
25468 F7E7            BVC 50      immediate   A:0 X:33 Y:80 P:46 SP:F7
25471 F7E9            BCS B0      immediate   A:0 X:33 Y:80 P:46 SP:F7
25474 F7EB            BMI 30      immediate   A:0 X:33 Y:80 P:46 SP:F7
25477 F7ED            RTS 60        implied   A:0 X:33 Y:80 P:46 SP:F7
25484 D286            INY C8        implied   A:0 X:33 Y:80 P:46 SP:F9
25487 D287            LDA A9      immediate   A:0 X:33 Y:81 P:C4 SP:F9
25490 D289            STA 85       zeropage   A:EF X:33 Y:81 P:C4 SP:F9
25494 D28B            JSR 20       absolute   A:EF X:33 Y:81 P:C4 SP:F9
25499 F7F1            SEC 38        implied   A:EF X:33 Y:81 P:C4 SP:F7
25502 F7F2            CLV B8        implied   A:EF X:33 Y:81 P:C5 SP:F7
25505 F7F3            LDA A9      immediate   A:EF X:33 Y:81 P:85 SP:F7
25508 F7F5            RTS 60        implied   A:F8 X:33 Y:81 P:85 SP:F7
25515 D28E            AND 25       zeropage   A:F8 X:33 Y:81 P:85 SP:F9
25519 D290            JSR 20       absolute   A:E8 X:33 Y:81 P:85 SP:F9
25524 F7F6            BCC 90      immediate   A:E8 X:33 Y:81 P:85 SP:F7
25527 F7F8            BPL 10      immediate   A:E8 X:33 Y:81 P:85 SP:F7
25530 F7FA            CMP C9      immediate   A:E8 X:33 Y:81 P:85 SP:F7
25533 F7FC            BNE D0      immediate   A:E8 X:33 Y:81 P:7 SP:F7
25536 F7FE            BVS 70      immediate   A:E8 X:33 Y:81 P:7 SP:F7
25539 F800            RTS 60        implied   A:E8 X:33 Y:81 P:7 SP:F7
25546 D293            INY C8        implied   A:E8 X:33 Y:81 P:7 SP:F9
25549 D294            LDA A9      immediate   A:E8 X:33 Y:82 P:85 SP:F9
25552 D296            STA 85       zeropage   A:AA X:33 Y:82 P:85 SP:F9
25556 D298            JSR 20       absolute   A:AA X:33 Y:82 P:85 SP:F9
25561 F804            CLC 18        implied   A:AA X:33 Y:82 P:85 SP:F7
25564 F805            BIT 24       zeropage   A:AA X:33 Y:82 P:84 SP:F7
25568 F807            LDA A9      immediate   A:AA X:33 Y:82 P:C4 SP:F7
25571 F809            RTS 60        implied   A:5F X:33 Y:82 P:44 SP:F7
25578 D29B            EOR 45       zeropage   A:5F X:33 Y:82 P:44 SP:F9
25582 D29D            JSR 20       absolute   A:F5 X:33 Y:82 P:C4 SP:F9
25587 F80A            BCS B0      immediate   A:F5 X:33 Y:82 P:C4 SP:F7
25590 F80C            BPL 10      immediate   A:F5 X:33 Y:82 P:C4 SP:F7
25593 F80E            CMP C9      immediate   A:F5 X:33 Y:82 P:C4 SP:F7
25596 F810            BNE D0      immediate   A:F5 X:33 Y:82 P:47 SP:F7
25599 F812            BVC 50      immediate   A:F5 X:33 Y:82 P:47 SP:F7
