0 C79E            SEI 78        implied   A:0 X:0 Y:0 P:24 SP:FD
3 C79F            CLD D8        implied   A:0 X:0 Y:0 P:24 SP:FD
6 C7A0            LDA A9      immediate   A:0 X:0 Y:0 P:24 SP:FD
9 C7A2            STA 8D       absolute   A:10 X:0 Y:0 P:24 SP:FD
14 C7A5            LDX A2      immediate   A:10 X:0 Y:0 P:24 SP:FD
17 C7A7            TXS 9A        implied   A:10 X:FF Y:0 P:A4 SP:FD
20 C7A8            LDA AD       absolute   A:10 X:FF Y:0 P:A4 SP:FF
25 C7AB            AND 29      immediate   A:FF X:FF Y:0 P:A4 SP:FF
28 C7AD            BEQ F0      immediate   A:80 X:FF Y:0 P:A4 SP:FF
31 C7AF            LDY A0      immediate   A:80 X:FF Y:0 P:A4 SP:FF
34 C7B1            STY 84       zeropage   A:80 X:FF Y:7 P:24 SP:FF
38 C7B3            LDY A0      immediate   A:80 X:FF Y:7 P:24 SP:FF
41 C7B5            STY 84       zeropage   A:80 X:FF Y:0 P:26 SP:FF
45 C7B7            LDA A9      immediate   A:80 X:FF Y:0 P:26 SP:FF
48 C7B9            STA 91   (zeropage),y   A:0 X:FF Y:0 P:26 SP:FF
55 C7BB            DEY 88        implied   A:0 X:FF Y:0 P:26 SP:FF
58 C7BC            BNE D0      immediate   A:0 X:FF Y:FF P:A4 SP:FF
61 C7B9            STA 91   (zeropage),y   A:0 X:FF Y:FF P:A4 SP:FF
68 C7BB            DEY 88        implied   A:0 X:FF Y:FF P:A4 SP:FF
71 C7BC            BNE D0      immediate   A:0 X:FF Y:FE P:A4 SP:FF
74 C7B9            STA 91   (zeropage),y   A:0 X:FF Y:FE P:A4 SP:FF
81 C7BB            DEY 88        implied   A:0 X:FF Y:FE P:A4 SP:FF
84 C7BC            BNE D0      immediate   A:0 X:FF Y:FD P:A4 SP:FF
87 C7B9            STA 91   (zeropage),y   A:0 X:FF Y:FD P:A4 SP:FF
94 C7BB            DEY 88        implied   A:0 X:FF Y:FD P:A4 SP:FF
97 C7BC            BNE D0      immediate   A:0 X:FF Y:FC P:A4 SP:FF
100 C7B9            STA 91   (zeropage),y   A:0 X:FF Y:FC P:A4 SP:FF
107 C7BB            DEY 88        implied   A:0 X:FF Y:FC P:A4 SP:FF
110 C7BC            BNE D0      immediate   A:0 X:FF Y:FB P:A4 SP:FF
113 C7B9            STA 91   (zeropage),y   A:0 X:FF Y:FB P:A4 SP:FF
120 C7BB            DEY 88        implied   A:0 X:FF Y:FB P:A4 SP:FF
123 C7BC            BNE D0      immediate   A:0 X:FF Y:FA P:A4 SP:FF
126 C7B9            STA 91   (zeropage),y   A:0 X:FF Y:FA P:A4 SP:FF
133 C7BB            DEY 88        implied   A:0 X:FF Y:FA P:A4 SP:FF
136 C7BC            BNE D0      immediate   A:0 X:FF Y:F9 P:A4 SP:FF
139 C7B9            STA 91   (zeropage),y   A:0 X:FF Y:F9 P:A4 SP:FF
146 C7BB            DEY 88        implied   A:0 X:FF Y:F9 P:A4 SP:FF
149 C7BC            BNE D0      immediate   A:0 X:FF Y:F8 P:A4 SP:FF
152 C7B9            STA 91   (zeropage),y   A:0 X:FF Y:F8 P:A4 SP:FF
159 C7BB            DEY 88        implied   A:0 X:FF Y:F8 P:A4 SP:FF
162 C7BC            BNE D0      immediate   A:0 X:FF Y:F7 P:A4 SP:FF
165 C7B9            STA 91   (zeropage),y   A:0 X:FF Y:F7 P:A4 SP:FF
172 C7BB            DEY 88        implied   A:0 X:FF Y:F7 P:A4 SP:FF
175 C7BC            BNE D0      immediate   A:0 X:FF Y:F6 P:A4 SP:FF
178 C7B9            STA 91   (zeropage),y   A:0 X:FF Y:F6 P:A4 SP:FF
185 C7BB            DEY 88        implied   A:0 X:FF Y:F6 P:A4 SP:FF
188 C7BC            BNE D0      immediate   A:0 X:FF Y:F5 P:A4 SP:FF
191 C7B9            STA 91   (zeropage),y   A:0 X:FF Y:F5 P:A4 SP:FF
198 C7BB            DEY 88        implied   A:0 X:FF Y:F5 P:A4 SP:FF
201 C7BC            BNE D0      immediate   A:0 X:FF Y:F4 P:A4 SP:FF
204 C7B9            STA 91   (zeropage),y   A:0 X:FF Y:F4 P:A4 SP:FF
211 C7BB            DEY 88        implied   A:0 X:FF Y:F4 P:A4 SP:FF
214 C7BC            BNE D0      immediate   A:0 X:FF Y:F3 P:A4 SP:FF
217 C7B9            STA 91   (zeropage),y   A:0 X:FF Y:F3 P:A4 SP:FF
224 C7BB            DEY 88        implied   A:0 X:FF Y:F3 P:A4 SP:FF
227 C7BC            BNE D0      immediate   A:0 X:FF Y:F2 P:A4 SP:FF
230 C7B9            STA 91   (zeropage),y   A:0 X:FF Y:F2 P:A4 SP:FF
237 C7BB            DEY 88        implied   A:0 X:FF Y:F2 P:A4 SP:FF
240 C7BC            BNE D0      immediate   A:0 X:FF Y:F1 P:A4 SP:FF
243 C7B9            STA 91   (zeropage),y   A:0 X:FF Y:F1 P:A4 SP:FF
250 C7BB            DEY 88        implied   A:0 X:FF Y:F1 P:A4 SP:FF
253 C7BC            BNE D0      immediate   A:0 X:FF Y:F0 P:A4 SP:FF
256 C7B9            STA 91   (zeropage),y   A:0 X:FF Y:F0 P:A4 SP:FF
263 C7BB            DEY 88        implied   A:0 X:FF Y:F0 P:A4 SP:FF
266 C7BC            BNE D0      immediate   A:0 X:FF Y:EF P:A4 SP:FF
269 C7B9            STA 91   (zeropage),y   A:0 X:FF Y:EF P:A4 SP:FF
276 C7BB            DEY 88        implied   A:0 X:FF Y:EF P:A4 SP:FF
279 C7BC            BNE D0      immediate   A:0 X:FF Y:EE P:A4 SP:FF
282 C7B9            STA 91   (zeropage),y   A:0 X:FF Y:EE P:A4 SP:FF
289 C7BB            DEY 88        implied   A:0 X:FF Y:EE P:A4 SP:FF
292 C7BC            BNE D0      immediate   A:0 X:FF Y:ED P:A4 SP:FF
295 C7B9            STA 91   (zeropage),y   A:0 X:FF Y:ED P:A4 SP:FF
302 C7BB            DEY 88        implied   A:0 X:FF Y:ED P:A4 SP:FF
305 C7BC            BNE D0      immediate   A:0 X:FF Y:EC P:A4 SP:FF
308 C7B9            STA 91   (zeropage),y   A:0 X:FF Y:EC P:A4 SP:FF
315 C7BB            DEY 88        implied   A:0 X:FF Y:EC P:A4 SP:FF
318 C7BC            BNE D0      immediate   A:0 X:FF Y:EB P:A4 SP:FF
321 C7B9            STA 91   (zeropage),y   A:0 X:FF Y:EB P:A4 SP:FF
328 C7BB            DEY 88        implied   A:0 X:FF Y:EB P:A4 SP:FF
331 C7BC            BNE D0      immediate   A:0 X:FF Y:EA P:A4 SP:FF
334 C7B9            STA 91   (zeropage),y   A:0 X:FF Y:EA P:A4 SP:FF
341 C7BB            DEY 88        implied   A:0 X:FF Y:EA P:A4 SP:FF
344 C7BC            BNE D0      immediate   A:0 X:FF Y:E9 P:A4 SP:FF
347 C7B9            STA 91   (zeropage),y   A:0 X:FF Y:E9 P:A4 SP:FF
354 C7BB            DEY 88        implied   A:0 X:FF Y:E9 P:A4 SP:FF
357 C7BC            BNE D0      immediate   A:0 X:FF Y:E8 P:A4 SP:FF
360 C7B9            STA 91   (zeropage),y   A:0 X:FF Y:E8 P:A4 SP:FF
367 C7BB            DEY 88        implied   A:0 X:FF Y:E8 P:A4 SP:FF
370 C7BC            BNE D0      immediate   A:0 X:FF Y:E7 P:A4 SP:FF
373 C7B9            STA 91   (zeropage),y   A:0 X:FF Y:E7 P:A4 SP:FF
380 C7BB            DEY 88        implied   A:0 X:FF Y:E7 P:A4 SP:FF
383 C7BC            BNE D0      immediate   A:0 X:FF Y:E6 P:A4 SP:FF
386 C7B9            STA 91   (zeropage),y   A:0 X:FF Y:E6 P:A4 SP:FF
393 C7BB            DEY 88        implied   A:0 X:FF Y:E6 P:A4 SP:FF
396 C7BC            BNE D0      immediate   A:0 X:FF Y:E5 P:A4 SP:FF
399 C7B9            STA 91   (zeropage),y   A:0 X:FF Y:E5 P:A4 SP:FF
406 C7BB            DEY 88        implied   A:0 X:FF Y:E5 P:A4 SP:FF
409 C7BC            BNE D0      immediate   A:0 X:FF Y:E4 P:A4 SP:FF
412 C7B9            STA 91   (zeropage),y   A:0 X:FF Y:E4 P:A4 SP:FF
419 C7BB            DEY 88        implied   A:0 X:FF Y:E4 P:A4 SP:FF
422 C7BC            BNE D0      immediate   A:0 X:FF Y:E3 P:A4 SP:FF
425 C7B9            STA 91   (zeropage),y   A:0 X:FF Y:E3 P:A4 SP:FF
432 C7BB            DEY 88        implied   A:0 X:FF Y:E3 P:A4 SP:FF
435 C7BC            BNE D0      immediate   A:0 X:FF Y:E2 P:A4 SP:FF
438 C7B9            STA 91   (zeropage),y   A:0 X:FF Y:E2 P:A4 SP:FF
445 C7BB            DEY 88        implied   A:0 X:FF Y:E2 P:A4 SP:FF
448 C7BC            BNE D0      immediate   A:0 X:FF Y:E1 P:A4 SP:FF
451 C7B9            STA 91   (zeropage),y   A:0 X:FF Y:E1 P:A4 SP:FF
458 C7BB            DEY 88        implied   A:0 X:FF Y:E1 P:A4 SP:FF
461 C7BC            BNE D0      immediate   A:0 X:FF Y:E0 P:A4 SP:FF
464 C7B9            STA 91   (zeropage),y   A:0 X:FF Y:E0 P:A4 SP:FF
471 C7BB            DEY 88        implied   A:0 X:FF Y:E0 P:A4 SP:FF
474 C7BC            BNE D0      immediate   A:0 X:FF Y:DF P:A4 SP:FF
477 C7B9            STA 91   (zeropage),y   A:0 X:FF Y:DF P:A4 SP:FF
484 C7BB            DEY 88        implied   A:0 X:FF Y:DF P:A4 SP:FF
487 C7BC            BNE D0      immediate   A:0 X:FF Y:DE P:A4 SP:FF
490 C7B9            STA 91   (zeropage),y   A:0 X:FF Y:DE P:A4 SP:FF
497 C7BB            DEY 88        implied   A:0 X:FF Y:DE P:A4 SP:FF
500 C7BC            BNE D0      immediate   A:0 X:FF Y:DD P:A4 SP:FF
503 C7B9            STA 91   (zeropage),y   A:0 X:FF Y:DD P:A4 SP:FF
510 C7BB            DEY 88        implied   A:0 X:FF Y:DD P:A4 SP:FF
513 C7BC            BNE D0      immediate   A:0 X:FF Y:DC P:A4 SP:FF
516 C7B9            STA 91   (zeropage),y   A:0 X:FF Y:DC P:A4 SP:FF
523 C7BB            DEY 88        implied   A:0 X:FF Y:DC P:A4 SP:FF
526 C7BC            BNE D0      immediate   A:0 X:FF Y:DB P:A4 SP:FF
529 C7B9            STA 91   (zeropage),y   A:0 X:FF Y:DB P:A4 SP:FF
536 C7BB            DEY 88        implied   A:0 X:FF Y:DB P:A4 SP:FF
539 C7BC            BNE D0      immediate   A:0 X:FF Y:DA P:A4 SP:FF
542 C7B9            STA 91   (zeropage),y   A:0 X:FF Y:DA P:A4 SP:FF
549 C7BB            DEY 88        implied   A:0 X:FF Y:DA P:A4 SP:FF
552 C7BC            BNE D0      immediate   A:0 X:FF Y:D9 P:A4 SP:FF
555 C7B9            STA 91   (zeropage),y   A:0 X:FF Y:D9 P:A4 SP:FF
562 C7BB            DEY 88        implied   A:0 X:FF Y:D9 P:A4 SP:FF
565 C7BC            BNE D0      immediate   A:0 X:FF Y:D8 P:A4 SP:FF
568 C7B9            STA 91   (zeropage),y   A:0 X:FF Y:D8 P:A4 SP:FF
575 C7BB            DEY 88        implied   A:0 X:FF Y:D8 P:A4 SP:FF
578 C7BC            BNE D0      immediate   A:0 X:FF Y:D7 P:A4 SP:FF
581 C7B9            STA 91   (zeropage),y   A:0 X:FF Y:D7 P:A4 SP:FF
588 C7BB            DEY 88        implied   A:0 X:FF Y:D7 P:A4 SP:FF
591 C7BC            BNE D0      immediate   A:0 X:FF Y:D6 P:A4 SP:FF
594 C7B9            STA 91   (zeropage),y   A:0 X:FF Y:D6 P:A4 SP:FF
601 C7BB            DEY 88        implied   A:0 X:FF Y:D6 P:A4 SP:FF
604 C7BC            BNE D0      immediate   A:0 X:FF Y:D5 P:A4 SP:FF
607 C7B9            STA 91   (zeropage),y   A:0 X:FF Y:D5 P:A4 SP:FF
614 C7BB            DEY 88        implied   A:0 X:FF Y:D5 P:A4 SP:FF
617 C7BC            BNE D0      immediate   A:0 X:FF Y:D4 P:A4 SP:FF
620 C7B9            STA 91   (zeropage),y   A:0 X:FF Y:D4 P:A4 SP:FF
627 C7BB            DEY 88        implied   A:0 X:FF Y:D4 P:A4 SP:FF
630 C7BC            BNE D0      immediate   A:0 X:FF Y:D3 P:A4 SP:FF
633 C7B9            STA 91   (zeropage),y   A:0 X:FF Y:D3 P:A4 SP:FF
640 C7BB            DEY 88        implied   A:0 X:FF Y:D3 P:A4 SP:FF
643 C7BC            BNE D0      immediate   A:0 X:FF Y:D2 P:A4 SP:FF
646 C7B9            STA 91   (zeropage),y   A:0 X:FF Y:D2 P:A4 SP:FF
653 C7BB            DEY 88        implied   A:0 X:FF Y:D2 P:A4 SP:FF
656 C7BC            BNE D0      immediate   A:0 X:FF Y:D1 P:A4 SP:FF
659 C7B9            STA 91   (zeropage),y   A:0 X:FF Y:D1 P:A4 SP:FF
666 C7BB            DEY 88        implied   A:0 X:FF Y:D1 P:A4 SP:FF
669 C7BC            BNE D0      immediate   A:0 X:FF Y:D0 P:A4 SP:FF
672 C7B9            STA 91   (zeropage),y   A:0 X:FF Y:D0 P:A4 SP:FF
679 C7BB            DEY 88        implied   A:0 X:FF Y:D0 P:A4 SP:FF
682 C7BC            BNE D0      immediate   A:0 X:FF Y:CF P:A4 SP:FF
685 C7B9            STA 91   (zeropage),y   A:0 X:FF Y:CF P:A4 SP:FF
692 C7BB            DEY 88        implied   A:0 X:FF Y:CF P:A4 SP:FF
695 C7BC            BNE D0      immediate   A:0 X:FF Y:CE P:A4 SP:FF
698 C7B9            STA 91   (zeropage),y   A:0 X:FF Y:CE P:A4 SP:FF
705 C7BB            DEY 88        implied   A:0 X:FF Y:CE P:A4 SP:FF
708 C7BC            BNE D0      immediate   A:0 X:FF Y:CD P:A4 SP:FF
711 C7B9            STA 91   (zeropage),y   A:0 X:FF Y:CD P:A4 SP:FF
718 C7BB            DEY 88        implied   A:0 X:FF Y:CD P:A4 SP:FF
721 C7BC            BNE D0      immediate   A:0 X:FF Y:CC P:A4 SP:FF
724 C7B9            STA 91   (zeropage),y   A:0 X:FF Y:CC P:A4 SP:FF
731 C7BB            DEY 88        implied   A:0 X:FF Y:CC P:A4 SP:FF
734 C7BC            BNE D0      immediate   A:0 X:FF Y:CB P:A4 SP:FF
737 C7B9            STA 91   (zeropage),y   A:0 X:FF Y:CB P:A4 SP:FF
744 C7BB            DEY 88        implied   A:0 X:FF Y:CB P:A4 SP:FF
747 C7BC            BNE D0      immediate   A:0 X:FF Y:CA P:A4 SP:FF
750 C7B9            STA 91   (zeropage),y   A:0 X:FF Y:CA P:A4 SP:FF
757 C7BB            DEY 88        implied   A:0 X:FF Y:CA P:A4 SP:FF
760 C7BC            BNE D0      immediate   A:0 X:FF Y:C9 P:A4 SP:FF
763 C7B9            STA 91   (zeropage),y   A:0 X:FF Y:C9 P:A4 SP:FF
770 C7BB            DEY 88        implied   A:0 X:FF Y:C9 P:A4 SP:FF
773 C7BC            BNE D0      immediate   A:0 X:FF Y:C8 P:A4 SP:FF
776 C7B9            STA 91   (zeropage),y   A:0 X:FF Y:C8 P:A4 SP:FF
783 C7BB            DEY 88        implied   A:0 X:FF Y:C8 P:A4 SP:FF
786 C7BC            BNE D0      immediate   A:0 X:FF Y:C7 P:A4 SP:FF
789 C7B9            STA 91   (zeropage),y   A:0 X:FF Y:C7 P:A4 SP:FF
796 C7BB            DEY 88        implied   A:0 X:FF Y:C7 P:A4 SP:FF
799 C7BC            BNE D0      immediate   A:0 X:FF Y:C6 P:A4 SP:FF
802 C7B9            STA 91   (zeropage),y   A:0 X:FF Y:C6 P:A4 SP:FF
809 C7BB            DEY 88        implied   A:0 X:FF Y:C6 P:A4 SP:FF
812 C7BC            BNE D0      immediate   A:0 X:FF Y:C5 P:A4 SP:FF
815 C7B9            STA 91   (zeropage),y   A:0 X:FF Y:C5 P:A4 SP:FF
822 C7BB            DEY 88        implied   A:0 X:FF Y:C5 P:A4 SP:FF
825 C7BC            BNE D0      immediate   A:0 X:FF Y:C4 P:A4 SP:FF
828 C7B9            STA 91   (zeropage),y   A:0 X:FF Y:C4 P:A4 SP:FF
835 C7BB            DEY 88        implied   A:0 X:FF Y:C4 P:A4 SP:FF
838 C7BC            BNE D0      immediate   A:0 X:FF Y:C3 P:A4 SP:FF
841 C7B9            STA 91   (zeropage),y   A:0 X:FF Y:C3 P:A4 SP:FF
848 C7BB            DEY 88        implied   A:0 X:FF Y:C3 P:A4 SP:FF
851 C7BC            BNE D0      immediate   A:0 X:FF Y:C2 P:A4 SP:FF
854 C7B9            STA 91   (zeropage),y   A:0 X:FF Y:C2 P:A4 SP:FF
861 C7BB            DEY 88        implied   A:0 X:FF Y:C2 P:A4 SP:FF
864 C7BC            BNE D0      immediate   A:0 X:FF Y:C1 P:A4 SP:FF
867 C7B9            STA 91   (zeropage),y   A:0 X:FF Y:C1 P:A4 SP:FF
874 C7BB            DEY 88        implied   A:0 X:FF Y:C1 P:A4 SP:FF
877 C7BC            BNE D0      immediate   A:0 X:FF Y:C0 P:A4 SP:FF
880 C7B9            STA 91   (zeropage),y   A:0 X:FF Y:C0 P:A4 SP:FF
887 C7BB            DEY 88        implied   A:0 X:FF Y:C0 P:A4 SP:FF
890 C7BC            BNE D0      immediate   A:0 X:FF Y:BF P:A4 SP:FF
893 C7B9            STA 91   (zeropage),y   A:0 X:FF Y:BF P:A4 SP:FF
900 C7BB            DEY 88        implied   A:0 X:FF Y:BF P:A4 SP:FF
903 C7BC            BNE D0      immediate   A:0 X:FF Y:BE P:A4 SP:FF
906 C7B9            STA 91   (zeropage),y   A:0 X:FF Y:BE P:A4 SP:FF
913 C7BB            DEY 88        implied   A:0 X:FF Y:BE P:A4 SP:FF
916 C7BC            BNE D0      immediate   A:0 X:FF Y:BD P:A4 SP:FF
919 C7B9            STA 91   (zeropage),y   A:0 X:FF Y:BD P:A4 SP:FF
926 C7BB            DEY 88        implied   A:0 X:FF Y:BD P:A4 SP:FF
929 C7BC            BNE D0      immediate   A:0 X:FF Y:BC P:A4 SP:FF
932 C7B9            STA 91   (zeropage),y   A:0 X:FF Y:BC P:A4 SP:FF
939 C7BB            DEY 88        implied   A:0 X:FF Y:BC P:A4 SP:FF
942 C7BC            BNE D0      immediate   A:0 X:FF Y:BB P:A4 SP:FF
945 C7B9            STA 91   (zeropage),y   A:0 X:FF Y:BB P:A4 SP:FF
952 C7BB            DEY 88        implied   A:0 X:FF Y:BB P:A4 SP:FF
955 C7BC            BNE D0      immediate   A:0 X:FF Y:BA P:A4 SP:FF
958 C7B9            STA 91   (zeropage),y   A:0 X:FF Y:BA P:A4 SP:FF
965 C7BB            DEY 88        implied   A:0 X:FF Y:BA P:A4 SP:FF
968 C7BC            BNE D0      immediate   A:0 X:FF Y:B9 P:A4 SP:FF
971 C7B9            STA 91   (zeropage),y   A:0 X:FF Y:B9 P:A4 SP:FF
978 C7BB            DEY 88        implied   A:0 X:FF Y:B9 P:A4 SP:FF
981 C7BC            BNE D0      immediate   A:0 X:FF Y:B8 P:A4 SP:FF
984 C7B9            STA 91   (zeropage),y   A:0 X:FF Y:B8 P:A4 SP:FF
991 C7BB            DEY 88        implied   A:0 X:FF Y:B8 P:A4 SP:FF
994 C7BC            BNE D0      immediate   A:0 X:FF Y:B7 P:A4 SP:FF
997 C7B9            STA 91   (zeropage),y   A:0 X:FF Y:B7 P:A4 SP:FF
1004 C7BB            DEY 88        implied   A:0 X:FF Y:B7 P:A4 SP:FF
1007 C7BC            BNE D0      immediate   A:0 X:FF Y:B6 P:A4 SP:FF
1010 C7B9            STA 91   (zeropage),y   A:0 X:FF Y:B6 P:A4 SP:FF
1017 C7BB            DEY 88        implied   A:0 X:FF Y:B6 P:A4 SP:FF
1020 C7BC            BNE D0      immediate   A:0 X:FF Y:B5 P:A4 SP:FF
1023 C7B9            STA 91   (zeropage),y   A:0 X:FF Y:B5 P:A4 SP:FF
1030 C7BB            DEY 88        implied   A:0 X:FF Y:B5 P:A4 SP:FF
1033 C7BC            BNE D0      immediate   A:0 X:FF Y:B4 P:A4 SP:FF
1036 C7B9            STA 91   (zeropage),y   A:0 X:FF Y:B4 P:A4 SP:FF
1043 C7BB            DEY 88        implied   A:0 X:FF Y:B4 P:A4 SP:FF
1046 C7BC            BNE D0      immediate   A:0 X:FF Y:B3 P:A4 SP:FF
1049 C7B9            STA 91   (zeropage),y   A:0 X:FF Y:B3 P:A4 SP:FF
1056 C7BB            DEY 88        implied   A:0 X:FF Y:B3 P:A4 SP:FF
1059 C7BC            BNE D0      immediate   A:0 X:FF Y:B2 P:A4 SP:FF
1062 C7B9            STA 91   (zeropage),y   A:0 X:FF Y:B2 P:A4 SP:FF
1069 C7BB            DEY 88        implied   A:0 X:FF Y:B2 P:A4 SP:FF
1072 C7BC            BNE D0      immediate   A:0 X:FF Y:B1 P:A4 SP:FF
1075 C7B9            STA 91   (zeropage),y   A:0 X:FF Y:B1 P:A4 SP:FF
1082 C7BB            DEY 88        implied   A:0 X:FF Y:B1 P:A4 SP:FF
1085 C7BC            BNE D0      immediate   A:0 X:FF Y:B0 P:A4 SP:FF
1088 C7B9            STA 91   (zeropage),y   A:0 X:FF Y:B0 P:A4 SP:FF
1095 C7BB            DEY 88        implied   A:0 X:FF Y:B0 P:A4 SP:FF
1098 C7BC            BNE D0      immediate   A:0 X:FF Y:AF P:A4 SP:FF
1101 C7B9            STA 91   (zeropage),y   A:0 X:FF Y:AF P:A4 SP:FF
1108 C7BB            DEY 88        implied   A:0 X:FF Y:AF P:A4 SP:FF
1111 C7BC            BNE D0      immediate   A:0 X:FF Y:AE P:A4 SP:FF
1114 C7B9            STA 91   (zeropage),y   A:0 X:FF Y:AE P:A4 SP:FF
1121 C7BB            DEY 88        implied   A:0 X:FF Y:AE P:A4 SP:FF
1124 C7BC            BNE D0      immediate   A:0 X:FF Y:AD P:A4 SP:FF
1127 C7B9            STA 91   (zeropage),y   A:0 X:FF Y:AD P:A4 SP:FF
1134 C7BB            DEY 88        implied   A:0 X:FF Y:AD P:A4 SP:FF
1137 C7BC            BNE D0      immediate   A:0 X:FF Y:AC P:A4 SP:FF
1140 C7B9            STA 91   (zeropage),y   A:0 X:FF Y:AC P:A4 SP:FF
1147 C7BB            DEY 88        implied   A:0 X:FF Y:AC P:A4 SP:FF
1150 C7BC            BNE D0      immediate   A:0 X:FF Y:AB P:A4 SP:FF
1153 C7B9            STA 91   (zeropage),y   A:0 X:FF Y:AB P:A4 SP:FF
1160 C7BB            DEY 88        implied   A:0 X:FF Y:AB P:A4 SP:FF
1163 C7BC            BNE D0      immediate   A:0 X:FF Y:AA P:A4 SP:FF
1166 C7B9            STA 91   (zeropage),y   A:0 X:FF Y:AA P:A4 SP:FF
1173 C7BB            DEY 88        implied   A:0 X:FF Y:AA P:A4 SP:FF
1176 C7BC            BNE D0      immediate   A:0 X:FF Y:A9 P:A4 SP:FF
1179 C7B9            STA 91   (zeropage),y   A:0 X:FF Y:A9 P:A4 SP:FF
1186 C7BB            DEY 88        implied   A:0 X:FF Y:A9 P:A4 SP:FF
1189 C7BC            BNE D0      immediate   A:0 X:FF Y:A8 P:A4 SP:FF
1192 C7B9            STA 91   (zeropage),y   A:0 X:FF Y:A8 P:A4 SP:FF
1199 C7BB            DEY 88        implied   A:0 X:FF Y:A8 P:A4 SP:FF
1202 C7BC            BNE D0      immediate   A:0 X:FF Y:A7 P:A4 SP:FF
1205 C7B9            STA 91   (zeropage),y   A:0 X:FF Y:A7 P:A4 SP:FF
1212 C7BB            DEY 88        implied   A:0 X:FF Y:A7 P:A4 SP:FF
1215 C7BC            BNE D0      immediate   A:0 X:FF Y:A6 P:A4 SP:FF
1218 C7B9            STA 91   (zeropage),y   A:0 X:FF Y:A6 P:A4 SP:FF
1225 C7BB            DEY 88        implied   A:0 X:FF Y:A6 P:A4 SP:FF
1228 C7BC            BNE D0      immediate   A:0 X:FF Y:A5 P:A4 SP:FF
1231 C7B9            STA 91   (zeropage),y   A:0 X:FF Y:A5 P:A4 SP:FF
1238 C7BB            DEY 88        implied   A:0 X:FF Y:A5 P:A4 SP:FF
1241 C7BC            BNE D0      immediate   A:0 X:FF Y:A4 P:A4 SP:FF
1244 C7B9            STA 91   (zeropage),y   A:0 X:FF Y:A4 P:A4 SP:FF
1251 C7BB            DEY 88        implied   A:0 X:FF Y:A4 P:A4 SP:FF
1254 C7BC            BNE D0      immediate   A:0 X:FF Y:A3 P:A4 SP:FF
1257 C7B9            STA 91   (zeropage),y   A:0 X:FF Y:A3 P:A4 SP:FF
1264 C7BB            DEY 88        implied   A:0 X:FF Y:A3 P:A4 SP:FF
1267 C7BC            BNE D0      immediate   A:0 X:FF Y:A2 P:A4 SP:FF
1270 C7B9            STA 91   (zeropage),y   A:0 X:FF Y:A2 P:A4 SP:FF
1277 C7BB            DEY 88        implied   A:0 X:FF Y:A2 P:A4 SP:FF
1280 C7BC            BNE D0      immediate   A:0 X:FF Y:A1 P:A4 SP:FF
1283 C7B9            STA 91   (zeropage),y   A:0 X:FF Y:A1 P:A4 SP:FF
1290 C7BB            DEY 88        implied   A:0 X:FF Y:A1 P:A4 SP:FF
1293 C7BC            BNE D0      immediate   A:0 X:FF Y:A0 P:A4 SP:FF
1296 C7B9            STA 91   (zeropage),y   A:0 X:FF Y:A0 P:A4 SP:FF
1303 C7BB            DEY 88        implied   A:0 X:FF Y:A0 P:A4 SP:FF
1306 C7BC            BNE D0      immediate   A:0 X:FF Y:9F P:A4 SP:FF
1309 C7B9            STA 91   (zeropage),y   A:0 X:FF Y:9F P:A4 SP:FF
1316 C7BB            DEY 88        implied   A:0 X:FF Y:9F P:A4 SP:FF
1319 C7BC            BNE D0      immediate   A:0 X:FF Y:9E P:A4 SP:FF
1322 C7B9            STA 91   (zeropage),y   A:0 X:FF Y:9E P:A4 SP:FF
1329 C7BB            DEY 88        implied   A:0 X:FF Y:9E P:A4 SP:FF
1332 C7BC            BNE D0      immediate   A:0 X:FF Y:9D P:A4 SP:FF
1335 C7B9            STA 91   (zeropage),y   A:0 X:FF Y:9D P:A4 SP:FF
1342 C7BB            DEY 88        implied   A:0 X:FF Y:9D P:A4 SP:FF
1345 C7BC            BNE D0      immediate   A:0 X:FF Y:9C P:A4 SP:FF
1348 C7B9            STA 91   (zeropage),y   A:0 X:FF Y:9C P:A4 SP:FF
1355 C7BB            DEY 88        implied   A:0 X:FF Y:9C P:A4 SP:FF
1358 C7BC            BNE D0      immediate   A:0 X:FF Y:9B P:A4 SP:FF
1361 C7B9            STA 91   (zeropage),y   A:0 X:FF Y:9B P:A4 SP:FF
1368 C7BB            DEY 88        implied   A:0 X:FF Y:9B P:A4 SP:FF
1371 C7BC            BNE D0      immediate   A:0 X:FF Y:9A P:A4 SP:FF
1374 C7B9            STA 91   (zeropage),y   A:0 X:FF Y:9A P:A4 SP:FF
1381 C7BB            DEY 88        implied   A:0 X:FF Y:9A P:A4 SP:FF
1384 C7BC            BNE D0      immediate   A:0 X:FF Y:99 P:A4 SP:FF
1387 C7B9            STA 91   (zeropage),y   A:0 X:FF Y:99 P:A4 SP:FF
1394 C7BB            DEY 88        implied   A:0 X:FF Y:99 P:A4 SP:FF
1397 C7BC            BNE D0      immediate   A:0 X:FF Y:98 P:A4 SP:FF
1400 C7B9            STA 91   (zeropage),y   A:0 X:FF Y:98 P:A4 SP:FF
1407 C7BB            DEY 88        implied   A:0 X:FF Y:98 P:A4 SP:FF
1410 C7BC            BNE D0      immediate   A:0 X:FF Y:97 P:A4 SP:FF
1413 C7B9            STA 91   (zeropage),y   A:0 X:FF Y:97 P:A4 SP:FF
1420 C7BB            DEY 88        implied   A:0 X:FF Y:97 P:A4 SP:FF
1423 C7BC            BNE D0      immediate   A:0 X:FF Y:96 P:A4 SP:FF
1426 C7B9            STA 91   (zeropage),y   A:0 X:FF Y:96 P:A4 SP:FF
1433 C7BB            DEY 88        implied   A:0 X:FF Y:96 P:A4 SP:FF
1436 C7BC            BNE D0      immediate   A:0 X:FF Y:95 P:A4 SP:FF
1439 C7B9            STA 91   (zeropage),y   A:0 X:FF Y:95 P:A4 SP:FF
1446 C7BB            DEY 88        implied   A:0 X:FF Y:95 P:A4 SP:FF
1449 C7BC            BNE D0      immediate   A:0 X:FF Y:94 P:A4 SP:FF
1452 C7B9            STA 91   (zeropage),y   A:0 X:FF Y:94 P:A4 SP:FF
1459 C7BB            DEY 88        implied   A:0 X:FF Y:94 P:A4 SP:FF
1462 C7BC            BNE D0      immediate   A:0 X:FF Y:93 P:A4 SP:FF
1465 C7B9            STA 91   (zeropage),y   A:0 X:FF Y:93 P:A4 SP:FF
1472 C7BB            DEY 88        implied   A:0 X:FF Y:93 P:A4 SP:FF
1475 C7BC            BNE D0      immediate   A:0 X:FF Y:92 P:A4 SP:FF
1478 C7B9            STA 91   (zeropage),y   A:0 X:FF Y:92 P:A4 SP:FF
1485 C7BB            DEY 88        implied   A:0 X:FF Y:92 P:A4 SP:FF
1488 C7BC            BNE D0      immediate   A:0 X:FF Y:91 P:A4 SP:FF
1491 C7B9            STA 91   (zeropage),y   A:0 X:FF Y:91 P:A4 SP:FF
1498 C7BB            DEY 88        implied   A:0 X:FF Y:91 P:A4 SP:FF
1501 C7BC            BNE D0      immediate   A:0 X:FF Y:90 P:A4 SP:FF
1504 C7B9            STA 91   (zeropage),y   A:0 X:FF Y:90 P:A4 SP:FF
1511 C7BB            DEY 88        implied   A:0 X:FF Y:90 P:A4 SP:FF
1514 C7BC            BNE D0      immediate   A:0 X:FF Y:8F P:A4 SP:FF
1517 C7B9            STA 91   (zeropage),y   A:0 X:FF Y:8F P:A4 SP:FF
1524 C7BB            DEY 88        implied   A:0 X:FF Y:8F P:A4 SP:FF
1527 C7BC            BNE D0      immediate   A:0 X:FF Y:8E P:A4 SP:FF
1530 C7B9            STA 91   (zeropage),y   A:0 X:FF Y:8E P:A4 SP:FF
1537 C7BB            DEY 88        implied   A:0 X:FF Y:8E P:A4 SP:FF
1540 C7BC            BNE D0      immediate   A:0 X:FF Y:8D P:A4 SP:FF
1543 C7B9            STA 91   (zeropage),y   A:0 X:FF Y:8D P:A4 SP:FF
1550 C7BB            DEY 88        implied   A:0 X:FF Y:8D P:A4 SP:FF
1553 C7BC            BNE D0      immediate   A:0 X:FF Y:8C P:A4 SP:FF
1556 C7B9            STA 91   (zeropage),y   A:0 X:FF Y:8C P:A4 SP:FF
1563 C7BB            DEY 88        implied   A:0 X:FF Y:8C P:A4 SP:FF
1566 C7BC            BNE D0      immediate   A:0 X:FF Y:8B P:A4 SP:FF
1569 C7B9            STA 91   (zeropage),y   A:0 X:FF Y:8B P:A4 SP:FF
1576 C7BB            DEY 88        implied   A:0 X:FF Y:8B P:A4 SP:FF
1579 C7BC            BNE D0      immediate   A:0 X:FF Y:8A P:A4 SP:FF
1582 C7B9            STA 91   (zeropage),y   A:0 X:FF Y:8A P:A4 SP:FF
1589 C7BB            DEY 88        implied   A:0 X:FF Y:8A P:A4 SP:FF
1592 C7BC            BNE D0      immediate   A:0 X:FF Y:89 P:A4 SP:FF
1595 C7B9            STA 91   (zeropage),y   A:0 X:FF Y:89 P:A4 SP:FF
1602 C7BB            DEY 88        implied   A:0 X:FF Y:89 P:A4 SP:FF
1605 C7BC            BNE D0      immediate   A:0 X:FF Y:88 P:A4 SP:FF
1608 C7B9            STA 91   (zeropage),y   A:0 X:FF Y:88 P:A4 SP:FF
1615 C7BB            DEY 88        implied   A:0 X:FF Y:88 P:A4 SP:FF
1618 C7BC            BNE D0      immediate   A:0 X:FF Y:87 P:A4 SP:FF
1621 C7B9            STA 91   (zeropage),y   A:0 X:FF Y:87 P:A4 SP:FF
1628 C7BB            DEY 88        implied   A:0 X:FF Y:87 P:A4 SP:FF
1631 C7BC            BNE D0      immediate   A:0 X:FF Y:86 P:A4 SP:FF
1634 C7B9            STA 91   (zeropage),y   A:0 X:FF Y:86 P:A4 SP:FF
1641 C7BB            DEY 88        implied   A:0 X:FF Y:86 P:A4 SP:FF
1644 C7BC            BNE D0      immediate   A:0 X:FF Y:85 P:A4 SP:FF
1647 C7B9            STA 91   (zeropage),y   A:0 X:FF Y:85 P:A4 SP:FF
1654 C7BB            DEY 88        implied   A:0 X:FF Y:85 P:A4 SP:FF
1657 C7BC            BNE D0      immediate   A:0 X:FF Y:84 P:A4 SP:FF
1660 C7B9            STA 91   (zeropage),y   A:0 X:FF Y:84 P:A4 SP:FF
1667 C7BB            DEY 88        implied   A:0 X:FF Y:84 P:A4 SP:FF
1670 C7BC            BNE D0      immediate   A:0 X:FF Y:83 P:A4 SP:FF
1673 C7B9            STA 91   (zeropage),y   A:0 X:FF Y:83 P:A4 SP:FF
1680 C7BB            DEY 88        implied   A:0 X:FF Y:83 P:A4 SP:FF
1683 C7BC            BNE D0      immediate   A:0 X:FF Y:82 P:A4 SP:FF
1686 C7B9            STA 91   (zeropage),y   A:0 X:FF Y:82 P:A4 SP:FF
1693 C7BB            DEY 88        implied   A:0 X:FF Y:82 P:A4 SP:FF
1696 C7BC            BNE D0      immediate   A:0 X:FF Y:81 P:A4 SP:FF
1699 C7B9            STA 91   (zeropage),y   A:0 X:FF Y:81 P:A4 SP:FF
1706 C7BB            DEY 88        implied   A:0 X:FF Y:81 P:A4 SP:FF
1709 C7BC            BNE D0      immediate   A:0 X:FF Y:80 P:A4 SP:FF
1712 C7B9            STA 91   (zeropage),y   A:0 X:FF Y:80 P:A4 SP:FF
1719 C7BB            DEY 88        implied   A:0 X:FF Y:80 P:A4 SP:FF
1722 C7BC            BNE D0      immediate   A:0 X:FF Y:7F P:24 SP:FF
1725 C7B9            STA 91   (zeropage),y   A:0 X:FF Y:7F P:24 SP:FF
1732 C7BB            DEY 88        implied   A:0 X:FF Y:7F P:24 SP:FF
1735 C7BC            BNE D0      immediate   A:0 X:FF Y:7E P:24 SP:FF
1738 C7B9            STA 91   (zeropage),y   A:0 X:FF Y:7E P:24 SP:FF
1745 C7BB            DEY 88        implied   A:0 X:FF Y:7E P:24 SP:FF
1748 C7BC            BNE D0      immediate   A:0 X:FF Y:7D P:24 SP:FF
1751 C7B9            STA 91   (zeropage),y   A:0 X:FF Y:7D P:24 SP:FF
1758 C7BB            DEY 88        implied   A:0 X:FF Y:7D P:24 SP:FF
1761 C7BC            BNE D0      immediate   A:0 X:FF Y:7C P:24 SP:FF
1764 C7B9            STA 91   (zeropage),y   A:0 X:FF Y:7C P:24 SP:FF
1771 C7BB            DEY 88        implied   A:0 X:FF Y:7C P:24 SP:FF
1774 C7BC            BNE D0      immediate   A:0 X:FF Y:7B P:24 SP:FF
1777 C7B9            STA 91   (zeropage),y   A:0 X:FF Y:7B P:24 SP:FF
1784 C7BB            DEY 88        implied   A:0 X:FF Y:7B P:24 SP:FF
1787 C7BC            BNE D0      immediate   A:0 X:FF Y:7A P:24 SP:FF
1790 C7B9            STA 91   (zeropage),y   A:0 X:FF Y:7A P:24 SP:FF
1797 C7BB            DEY 88        implied   A:0 X:FF Y:7A P:24 SP:FF
1800 C7BC            BNE D0      immediate   A:0 X:FF Y:79 P:24 SP:FF
1803 C7B9            STA 91   (zeropage),y   A:0 X:FF Y:79 P:24 SP:FF
1810 C7BB            DEY 88        implied   A:0 X:FF Y:79 P:24 SP:FF
1813 C7BC            BNE D0      immediate   A:0 X:FF Y:78 P:24 SP:FF
1816 C7B9            STA 91   (zeropage),y   A:0 X:FF Y:78 P:24 SP:FF
1823 C7BB            DEY 88        implied   A:0 X:FF Y:78 P:24 SP:FF
1826 C7BC            BNE D0      immediate   A:0 X:FF Y:77 P:24 SP:FF
1829 C7B9            STA 91   (zeropage),y   A:0 X:FF Y:77 P:24 SP:FF
1836 C7BB            DEY 88        implied   A:0 X:FF Y:77 P:24 SP:FF
1839 C7BC            BNE D0      immediate   A:0 X:FF Y:76 P:24 SP:FF
1842 C7B9            STA 91   (zeropage),y   A:0 X:FF Y:76 P:24 SP:FF
1849 C7BB            DEY 88        implied   A:0 X:FF Y:76 P:24 SP:FF
1852 C7BC            BNE D0      immediate   A:0 X:FF Y:75 P:24 SP:FF
1855 C7B9            STA 91   (zeropage),y   A:0 X:FF Y:75 P:24 SP:FF
1862 C7BB            DEY 88        implied   A:0 X:FF Y:75 P:24 SP:FF
1865 C7BC            BNE D0      immediate   A:0 X:FF Y:74 P:24 SP:FF
1868 C7B9            STA 91   (zeropage),y   A:0 X:FF Y:74 P:24 SP:FF
1875 C7BB            DEY 88        implied   A:0 X:FF Y:74 P:24 SP:FF
1878 C7BC            BNE D0      immediate   A:0 X:FF Y:73 P:24 SP:FF
1881 C7B9            STA 91   (zeropage),y   A:0 X:FF Y:73 P:24 SP:FF
1888 C7BB            DEY 88        implied   A:0 X:FF Y:73 P:24 SP:FF
1891 C7BC            BNE D0      immediate   A:0 X:FF Y:72 P:24 SP:FF
1894 C7B9            STA 91   (zeropage),y   A:0 X:FF Y:72 P:24 SP:FF
1901 C7BB            DEY 88        implied   A:0 X:FF Y:72 P:24 SP:FF
1904 C7BC            BNE D0      immediate   A:0 X:FF Y:71 P:24 SP:FF
1907 C7B9            STA 91   (zeropage),y   A:0 X:FF Y:71 P:24 SP:FF
1914 C7BB            DEY 88        implied   A:0 X:FF Y:71 P:24 SP:FF
1917 C7BC            BNE D0      immediate   A:0 X:FF Y:70 P:24 SP:FF
1920 C7B9            STA 91   (zeropage),y   A:0 X:FF Y:70 P:24 SP:FF
1927 C7BB            DEY 88        implied   A:0 X:FF Y:70 P:24 SP:FF
1930 C7BC            BNE D0      immediate   A:0 X:FF Y:6F P:24 SP:FF
1933 C7B9            STA 91   (zeropage),y   A:0 X:FF Y:6F P:24 SP:FF
1940 C7BB            DEY 88        implied   A:0 X:FF Y:6F P:24 SP:FF
1943 C7BC            BNE D0      immediate   A:0 X:FF Y:6E P:24 SP:FF
1946 C7B9            STA 91   (zeropage),y   A:0 X:FF Y:6E P:24 SP:FF
1953 C7BB            DEY 88        implied   A:0 X:FF Y:6E P:24 SP:FF
1956 C7BC            BNE D0      immediate   A:0 X:FF Y:6D P:24 SP:FF
1959 C7B9            STA 91   (zeropage),y   A:0 X:FF Y:6D P:24 SP:FF
1966 C7BB            DEY 88        implied   A:0 X:FF Y:6D P:24 SP:FF
1969 C7BC            BNE D0      immediate   A:0 X:FF Y:6C P:24 SP:FF
1972 C7B9            STA 91   (zeropage),y   A:0 X:FF Y:6C P:24 SP:FF
1979 C7BB            DEY 88        implied   A:0 X:FF Y:6C P:24 SP:FF
1982 C7BC            BNE D0      immediate   A:0 X:FF Y:6B P:24 SP:FF
1985 C7B9            STA 91   (zeropage),y   A:0 X:FF Y:6B P:24 SP:FF
1992 C7BB            DEY 88        implied   A:0 X:FF Y:6B P:24 SP:FF
1995 C7BC            BNE D0      immediate   A:0 X:FF Y:6A P:24 SP:FF
1998 C7B9            STA 91   (zeropage),y   A:0 X:FF Y:6A P:24 SP:FF
2005 C7BB            DEY 88        implied   A:0 X:FF Y:6A P:24 SP:FF
2008 C7BC            BNE D0      immediate   A:0 X:FF Y:69 P:24 SP:FF
2011 C7B9            STA 91   (zeropage),y   A:0 X:FF Y:69 P:24 SP:FF
2018 C7BB            DEY 88        implied   A:0 X:FF Y:69 P:24 SP:FF
2021 C7BC            BNE D0      immediate   A:0 X:FF Y:68 P:24 SP:FF
2024 C7B9            STA 91   (zeropage),y   A:0 X:FF Y:68 P:24 SP:FF
2031 C7BB            DEY 88        implied   A:0 X:FF Y:68 P:24 SP:FF
2034 C7BC            BNE D0      immediate   A:0 X:FF Y:67 P:24 SP:FF
2037 C7B9            STA 91   (zeropage),y   A:0 X:FF Y:67 P:24 SP:FF
2044 C7BB            DEY 88        implied   A:0 X:FF Y:67 P:24 SP:FF
2047 C7BC            BNE D0      immediate   A:0 X:FF Y:66 P:24 SP:FF
2050 C7B9            STA 91   (zeropage),y   A:0 X:FF Y:66 P:24 SP:FF
2057 C7BB            DEY 88        implied   A:0 X:FF Y:66 P:24 SP:FF
2060 C7BC            BNE D0      immediate   A:0 X:FF Y:65 P:24 SP:FF
2063 C7B9            STA 91   (zeropage),y   A:0 X:FF Y:65 P:24 SP:FF
2070 C7BB            DEY 88        implied   A:0 X:FF Y:65 P:24 SP:FF
2073 C7BC            BNE D0      immediate   A:0 X:FF Y:64 P:24 SP:FF
2076 C7B9            STA 91   (zeropage),y   A:0 X:FF Y:64 P:24 SP:FF
2083 C7BB            DEY 88        implied   A:0 X:FF Y:64 P:24 SP:FF
2086 C7BC            BNE D0      immediate   A:0 X:FF Y:63 P:24 SP:FF
2089 C7B9            STA 91   (zeropage),y   A:0 X:FF Y:63 P:24 SP:FF
2096 C7BB            DEY 88        implied   A:0 X:FF Y:63 P:24 SP:FF
2099 C7BC            BNE D0      immediate   A:0 X:FF Y:62 P:24 SP:FF
2102 C7B9            STA 91   (zeropage),y   A:0 X:FF Y:62 P:24 SP:FF
2109 C7BB            DEY 88        implied   A:0 X:FF Y:62 P:24 SP:FF
2112 C7BC            BNE D0      immediate   A:0 X:FF Y:61 P:24 SP:FF
2115 C7B9            STA 91   (zeropage),y   A:0 X:FF Y:61 P:24 SP:FF
2122 C7BB            DEY 88        implied   A:0 X:FF Y:61 P:24 SP:FF
2125 C7BC            BNE D0      immediate   A:0 X:FF Y:60 P:24 SP:FF
2128 C7B9            STA 91   (zeropage),y   A:0 X:FF Y:60 P:24 SP:FF
2135 C7BB            DEY 88        implied   A:0 X:FF Y:60 P:24 SP:FF
2138 C7BC            BNE D0      immediate   A:0 X:FF Y:5F P:24 SP:FF
2141 C7B9            STA 91   (zeropage),y   A:0 X:FF Y:5F P:24 SP:FF
2148 C7BB            DEY 88        implied   A:0 X:FF Y:5F P:24 SP:FF
2151 C7BC            BNE D0      immediate   A:0 X:FF Y:5E P:24 SP:FF
2154 C7B9            STA 91   (zeropage),y   A:0 X:FF Y:5E P:24 SP:FF
2161 C7BB            DEY 88        implied   A:0 X:FF Y:5E P:24 SP:FF
2164 C7BC            BNE D0      immediate   A:0 X:FF Y:5D P:24 SP:FF
2167 C7B9            STA 91   (zeropage),y   A:0 X:FF Y:5D P:24 SP:FF
2174 C7BB            DEY 88        implied   A:0 X:FF Y:5D P:24 SP:FF
2177 C7BC            BNE D0      immediate   A:0 X:FF Y:5C P:24 SP:FF
2180 C7B9            STA 91   (zeropage),y   A:0 X:FF Y:5C P:24 SP:FF
2187 C7BB            DEY 88        implied   A:0 X:FF Y:5C P:24 SP:FF
2190 C7BC            BNE D0      immediate   A:0 X:FF Y:5B P:24 SP:FF
2193 C7B9            STA 91   (zeropage),y   A:0 X:FF Y:5B P:24 SP:FF
2200 C7BB            DEY 88        implied   A:0 X:FF Y:5B P:24 SP:FF
2203 C7BC            BNE D0      immediate   A:0 X:FF Y:5A P:24 SP:FF
2206 C7B9            STA 91   (zeropage),y   A:0 X:FF Y:5A P:24 SP:FF
2213 C7BB            DEY 88        implied   A:0 X:FF Y:5A P:24 SP:FF
2216 C7BC            BNE D0      immediate   A:0 X:FF Y:59 P:24 SP:FF
2219 C7B9            STA 91   (zeropage),y   A:0 X:FF Y:59 P:24 SP:FF
2226 C7BB            DEY 88        implied   A:0 X:FF Y:59 P:24 SP:FF
2229 C7BC            BNE D0      immediate   A:0 X:FF Y:58 P:24 SP:FF
2232 C7B9            STA 91   (zeropage),y   A:0 X:FF Y:58 P:24 SP:FF
2239 C7BB            DEY 88        implied   A:0 X:FF Y:58 P:24 SP:FF
2242 C7BC            BNE D0      immediate   A:0 X:FF Y:57 P:24 SP:FF
2245 C7B9            STA 91   (zeropage),y   A:0 X:FF Y:57 P:24 SP:FF
2252 C7BB            DEY 88        implied   A:0 X:FF Y:57 P:24 SP:FF
2255 C7BC            BNE D0      immediate   A:0 X:FF Y:56 P:24 SP:FF
2258 C7B9            STA 91   (zeropage),y   A:0 X:FF Y:56 P:24 SP:FF
2265 C7BB            DEY 88        implied   A:0 X:FF Y:56 P:24 SP:FF
2268 C7BC            BNE D0      immediate   A:0 X:FF Y:55 P:24 SP:FF
2271 C7B9            STA 91   (zeropage),y   A:0 X:FF Y:55 P:24 SP:FF
2278 C7BB            DEY 88        implied   A:0 X:FF Y:55 P:24 SP:FF
2281 C7BC            BNE D0      immediate   A:0 X:FF Y:54 P:24 SP:FF
2284 C7B9            STA 91   (zeropage),y   A:0 X:FF Y:54 P:24 SP:FF
2291 C7BB            DEY 88        implied   A:0 X:FF Y:54 P:24 SP:FF
2294 C7BC            BNE D0      immediate   A:0 X:FF Y:53 P:24 SP:FF
2297 C7B9            STA 91   (zeropage),y   A:0 X:FF Y:53 P:24 SP:FF
2304 C7BB            DEY 88        implied   A:0 X:FF Y:53 P:24 SP:FF
2307 C7BC            BNE D0      immediate   A:0 X:FF Y:52 P:24 SP:FF
2310 C7B9            STA 91   (zeropage),y   A:0 X:FF Y:52 P:24 SP:FF
2317 C7BB            DEY 88        implied   A:0 X:FF Y:52 P:24 SP:FF
2320 C7BC            BNE D0      immediate   A:0 X:FF Y:51 P:24 SP:FF
2323 C7B9            STA 91   (zeropage),y   A:0 X:FF Y:51 P:24 SP:FF
2330 C7BB            DEY 88        implied   A:0 X:FF Y:51 P:24 SP:FF
2333 C7BC            BNE D0      immediate   A:0 X:FF Y:50 P:24 SP:FF
2336 C7B9            STA 91   (zeropage),y   A:0 X:FF Y:50 P:24 SP:FF
2343 C7BB            DEY 88        implied   A:0 X:FF Y:50 P:24 SP:FF
2346 C7BC            BNE D0      immediate   A:0 X:FF Y:4F P:24 SP:FF
2349 C7B9            STA 91   (zeropage),y   A:0 X:FF Y:4F P:24 SP:FF
2356 C7BB            DEY 88        implied   A:0 X:FF Y:4F P:24 SP:FF
2359 C7BC            BNE D0      immediate   A:0 X:FF Y:4E P:24 SP:FF
2362 C7B9            STA 91   (zeropage),y   A:0 X:FF Y:4E P:24 SP:FF
2369 C7BB            DEY 88        implied   A:0 X:FF Y:4E P:24 SP:FF
2372 C7BC            BNE D0      immediate   A:0 X:FF Y:4D P:24 SP:FF
2375 C7B9            STA 91   (zeropage),y   A:0 X:FF Y:4D P:24 SP:FF
2382 C7BB            DEY 88        implied   A:0 X:FF Y:4D P:24 SP:FF
2385 C7BC            BNE D0      immediate   A:0 X:FF Y:4C P:24 SP:FF
2388 C7B9            STA 91   (zeropage),y   A:0 X:FF Y:4C P:24 SP:FF
2395 C7BB            DEY 88        implied   A:0 X:FF Y:4C P:24 SP:FF
2398 C7BC            BNE D0      immediate   A:0 X:FF Y:4B P:24 SP:FF
2401 C7B9            STA 91   (zeropage),y   A:0 X:FF Y:4B P:24 SP:FF
2408 C7BB            DEY 88        implied   A:0 X:FF Y:4B P:24 SP:FF
2411 C7BC            BNE D0      immediate   A:0 X:FF Y:4A P:24 SP:FF
2414 C7B9            STA 91   (zeropage),y   A:0 X:FF Y:4A P:24 SP:FF
2421 C7BB            DEY 88        implied   A:0 X:FF Y:4A P:24 SP:FF
2424 C7BC            BNE D0      immediate   A:0 X:FF Y:49 P:24 SP:FF
2427 C7B9            STA 91   (zeropage),y   A:0 X:FF Y:49 P:24 SP:FF
2434 C7BB            DEY 88        implied   A:0 X:FF Y:49 P:24 SP:FF
2437 C7BC            BNE D0      immediate   A:0 X:FF Y:48 P:24 SP:FF
2440 C7B9            STA 91   (zeropage),y   A:0 X:FF Y:48 P:24 SP:FF
2447 C7BB            DEY 88        implied   A:0 X:FF Y:48 P:24 SP:FF
2450 C7BC            BNE D0      immediate   A:0 X:FF Y:47 P:24 SP:FF
2453 C7B9            STA 91   (zeropage),y   A:0 X:FF Y:47 P:24 SP:FF
2460 C7BB            DEY 88        implied   A:0 X:FF Y:47 P:24 SP:FF
2463 C7BC            BNE D0      immediate   A:0 X:FF Y:46 P:24 SP:FF
2466 C7B9            STA 91   (zeropage),y   A:0 X:FF Y:46 P:24 SP:FF
2473 C7BB            DEY 88        implied   A:0 X:FF Y:46 P:24 SP:FF
2476 C7BC            BNE D0      immediate   A:0 X:FF Y:45 P:24 SP:FF
2479 C7B9            STA 91   (zeropage),y   A:0 X:FF Y:45 P:24 SP:FF
2486 C7BB            DEY 88        implied   A:0 X:FF Y:45 P:24 SP:FF
2489 C7BC            BNE D0      immediate   A:0 X:FF Y:44 P:24 SP:FF
2492 C7B9            STA 91   (zeropage),y   A:0 X:FF Y:44 P:24 SP:FF
2499 C7BB            DEY 88        implied   A:0 X:FF Y:44 P:24 SP:FF
2502 C7BC            BNE D0      immediate   A:0 X:FF Y:43 P:24 SP:FF
2505 C7B9            STA 91   (zeropage),y   A:0 X:FF Y:43 P:24 SP:FF
2512 C7BB            DEY 88        implied   A:0 X:FF Y:43 P:24 SP:FF
2515 C7BC            BNE D0      immediate   A:0 X:FF Y:42 P:24 SP:FF
2518 C7B9            STA 91   (zeropage),y   A:0 X:FF Y:42 P:24 SP:FF
2525 C7BB            DEY 88        implied   A:0 X:FF Y:42 P:24 SP:FF
2528 C7BC            BNE D0      immediate   A:0 X:FF Y:41 P:24 SP:FF
2531 C7B9            STA 91   (zeropage),y   A:0 X:FF Y:41 P:24 SP:FF
2538 C7BB            DEY 88        implied   A:0 X:FF Y:41 P:24 SP:FF
2541 C7BC            BNE D0      immediate   A:0 X:FF Y:40 P:24 SP:FF
2544 C7B9            STA 91   (zeropage),y   A:0 X:FF Y:40 P:24 SP:FF
2551 C7BB            DEY 88        implied   A:0 X:FF Y:40 P:24 SP:FF
2554 C7BC            BNE D0      immediate   A:0 X:FF Y:3F P:24 SP:FF
2557 C7B9            STA 91   (zeropage),y   A:0 X:FF Y:3F P:24 SP:FF
2564 C7BB            DEY 88        implied   A:0 X:FF Y:3F P:24 SP:FF
2567 C7BC            BNE D0      immediate   A:0 X:FF Y:3E P:24 SP:FF
2570 C7B9            STA 91   (zeropage),y   A:0 X:FF Y:3E P:24 SP:FF
2577 C7BB            DEY 88        implied   A:0 X:FF Y:3E P:24 SP:FF
2580 C7BC            BNE D0      immediate   A:0 X:FF Y:3D P:24 SP:FF
2583 C7B9            STA 91   (zeropage),y   A:0 X:FF Y:3D P:24 SP:FF
2590 C7BB            DEY 88        implied   A:0 X:FF Y:3D P:24 SP:FF
2593 C7BC            BNE D0      immediate   A:0 X:FF Y:3C P:24 SP:FF
2596 C7B9            STA 91   (zeropage),y   A:0 X:FF Y:3C P:24 SP:FF
2603 C7BB            DEY 88        implied   A:0 X:FF Y:3C P:24 SP:FF
2606 C7BC            BNE D0      immediate   A:0 X:FF Y:3B P:24 SP:FF
2609 C7B9            STA 91   (zeropage),y   A:0 X:FF Y:3B P:24 SP:FF
2616 C7BB            DEY 88        implied   A:0 X:FF Y:3B P:24 SP:FF
2619 C7BC            BNE D0      immediate   A:0 X:FF Y:3A P:24 SP:FF
2622 C7B9            STA 91   (zeropage),y   A:0 X:FF Y:3A P:24 SP:FF
2629 C7BB            DEY 88        implied   A:0 X:FF Y:3A P:24 SP:FF
2632 C7BC            BNE D0      immediate   A:0 X:FF Y:39 P:24 SP:FF
2635 C7B9            STA 91   (zeropage),y   A:0 X:FF Y:39 P:24 SP:FF
2642 C7BB            DEY 88        implied   A:0 X:FF Y:39 P:24 SP:FF
2645 C7BC            BNE D0      immediate   A:0 X:FF Y:38 P:24 SP:FF
2648 C7B9            STA 91   (zeropage),y   A:0 X:FF Y:38 P:24 SP:FF
2655 C7BB            DEY 88        implied   A:0 X:FF Y:38 P:24 SP:FF
2658 C7BC            BNE D0      immediate   A:0 X:FF Y:37 P:24 SP:FF
2661 C7B9            STA 91   (zeropage),y   A:0 X:FF Y:37 P:24 SP:FF
2668 C7BB            DEY 88        implied   A:0 X:FF Y:37 P:24 SP:FF
2671 C7BC            BNE D0      immediate   A:0 X:FF Y:36 P:24 SP:FF
2674 C7B9            STA 91   (zeropage),y   A:0 X:FF Y:36 P:24 SP:FF
2681 C7BB            DEY 88        implied   A:0 X:FF Y:36 P:24 SP:FF
2684 C7BC            BNE D0      immediate   A:0 X:FF Y:35 P:24 SP:FF
2687 C7B9            STA 91   (zeropage),y   A:0 X:FF Y:35 P:24 SP:FF
2694 C7BB            DEY 88        implied   A:0 X:FF Y:35 P:24 SP:FF
2697 C7BC            BNE D0      immediate   A:0 X:FF Y:34 P:24 SP:FF
2700 C7B9            STA 91   (zeropage),y   A:0 X:FF Y:34 P:24 SP:FF
2707 C7BB            DEY 88        implied   A:0 X:FF Y:34 P:24 SP:FF
2710 C7BC            BNE D0      immediate   A:0 X:FF Y:33 P:24 SP:FF
2713 C7B9            STA 91   (zeropage),y   A:0 X:FF Y:33 P:24 SP:FF
2720 C7BB            DEY 88        implied   A:0 X:FF Y:33 P:24 SP:FF
2723 C7BC            BNE D0      immediate   A:0 X:FF Y:32 P:24 SP:FF
2726 C7B9            STA 91   (zeropage),y   A:0 X:FF Y:32 P:24 SP:FF
2733 C7BB            DEY 88        implied   A:0 X:FF Y:32 P:24 SP:FF
2736 C7BC            BNE D0      immediate   A:0 X:FF Y:31 P:24 SP:FF
2739 C7B9            STA 91   (zeropage),y   A:0 X:FF Y:31 P:24 SP:FF
2746 C7BB            DEY 88        implied   A:0 X:FF Y:31 P:24 SP:FF
2749 C7BC            BNE D0      immediate   A:0 X:FF Y:30 P:24 SP:FF
2752 C7B9            STA 91   (zeropage),y   A:0 X:FF Y:30 P:24 SP:FF
2759 C7BB            DEY 88        implied   A:0 X:FF Y:30 P:24 SP:FF
2762 C7BC            BNE D0      immediate   A:0 X:FF Y:2F P:24 SP:FF
2765 C7B9            STA 91   (zeropage),y   A:0 X:FF Y:2F P:24 SP:FF
2772 C7BB            DEY 88        implied   A:0 X:FF Y:2F P:24 SP:FF
2775 C7BC            BNE D0      immediate   A:0 X:FF Y:2E P:24 SP:FF
2778 C7B9            STA 91   (zeropage),y   A:0 X:FF Y:2E P:24 SP:FF
2785 C7BB            DEY 88        implied   A:0 X:FF Y:2E P:24 SP:FF
2788 C7BC            BNE D0      immediate   A:0 X:FF Y:2D P:24 SP:FF
2791 C7B9            STA 91   (zeropage),y   A:0 X:FF Y:2D P:24 SP:FF
2798 C7BB            DEY 88        implied   A:0 X:FF Y:2D P:24 SP:FF
2801 C7BC            BNE D0      immediate   A:0 X:FF Y:2C P:24 SP:FF
2804 C7B9            STA 91   (zeropage),y   A:0 X:FF Y:2C P:24 SP:FF
2811 C7BB            DEY 88        implied   A:0 X:FF Y:2C P:24 SP:FF
2814 C7BC            BNE D0      immediate   A:0 X:FF Y:2B P:24 SP:FF
2817 C7B9            STA 91   (zeropage),y   A:0 X:FF Y:2B P:24 SP:FF
2824 C7BB            DEY 88        implied   A:0 X:FF Y:2B P:24 SP:FF
2827 C7BC            BNE D0      immediate   A:0 X:FF Y:2A P:24 SP:FF
2830 C7B9            STA 91   (zeropage),y   A:0 X:FF Y:2A P:24 SP:FF
2837 C7BB            DEY 88        implied   A:0 X:FF Y:2A P:24 SP:FF
2840 C7BC            BNE D0      immediate   A:0 X:FF Y:29 P:24 SP:FF
2843 C7B9            STA 91   (zeropage),y   A:0 X:FF Y:29 P:24 SP:FF
2850 C7BB            DEY 88        implied   A:0 X:FF Y:29 P:24 SP:FF
2853 C7BC            BNE D0      immediate   A:0 X:FF Y:28 P:24 SP:FF
2856 C7B9            STA 91   (zeropage),y   A:0 X:FF Y:28 P:24 SP:FF
2863 C7BB            DEY 88        implied   A:0 X:FF Y:28 P:24 SP:FF
2866 C7BC            BNE D0      immediate   A:0 X:FF Y:27 P:24 SP:FF
2869 C7B9            STA 91   (zeropage),y   A:0 X:FF Y:27 P:24 SP:FF
2876 C7BB            DEY 88        implied   A:0 X:FF Y:27 P:24 SP:FF
2879 C7BC            BNE D0      immediate   A:0 X:FF Y:26 P:24 SP:FF
2882 C7B9            STA 91   (zeropage),y   A:0 X:FF Y:26 P:24 SP:FF
2889 C7BB            DEY 88        implied   A:0 X:FF Y:26 P:24 SP:FF
2892 C7BC            BNE D0      immediate   A:0 X:FF Y:25 P:24 SP:FF
2895 C7B9            STA 91   (zeropage),y   A:0 X:FF Y:25 P:24 SP:FF
2902 C7BB            DEY 88        implied   A:0 X:FF Y:25 P:24 SP:FF
2905 C7BC            BNE D0      immediate   A:0 X:FF Y:24 P:24 SP:FF
2908 C7B9            STA 91   (zeropage),y   A:0 X:FF Y:24 P:24 SP:FF
2915 C7BB            DEY 88        implied   A:0 X:FF Y:24 P:24 SP:FF
2918 C7BC            BNE D0      immediate   A:0 X:FF Y:23 P:24 SP:FF
2921 C7B9            STA 91   (zeropage),y   A:0 X:FF Y:23 P:24 SP:FF
2928 C7BB            DEY 88        implied   A:0 X:FF Y:23 P:24 SP:FF
2931 C7BC            BNE D0      immediate   A:0 X:FF Y:22 P:24 SP:FF
2934 C7B9            STA 91   (zeropage),y   A:0 X:FF Y:22 P:24 SP:FF
2941 C7BB            DEY 88        implied   A:0 X:FF Y:22 P:24 SP:FF
2944 C7BC            BNE D0      immediate   A:0 X:FF Y:21 P:24 SP:FF
2947 C7B9            STA 91   (zeropage),y   A:0 X:FF Y:21 P:24 SP:FF
2954 C7BB            DEY 88        implied   A:0 X:FF Y:21 P:24 SP:FF
2957 C7BC            BNE D0      immediate   A:0 X:FF Y:20 P:24 SP:FF
2960 C7B9            STA 91   (zeropage),y   A:0 X:FF Y:20 P:24 SP:FF
2967 C7BB            DEY 88        implied   A:0 X:FF Y:20 P:24 SP:FF
2970 C7BC            BNE D0      immediate   A:0 X:FF Y:1F P:24 SP:FF
2973 C7B9            STA 91   (zeropage),y   A:0 X:FF Y:1F P:24 SP:FF
2980 C7BB            DEY 88        implied   A:0 X:FF Y:1F P:24 SP:FF
2983 C7BC            BNE D0      immediate   A:0 X:FF Y:1E P:24 SP:FF
2986 C7B9            STA 91   (zeropage),y   A:0 X:FF Y:1E P:24 SP:FF
2993 C7BB            DEY 88        implied   A:0 X:FF Y:1E P:24 SP:FF
2996 C7BC            BNE D0      immediate   A:0 X:FF Y:1D P:24 SP:FF
2999 C7B9            STA 91   (zeropage),y   A:0 X:FF Y:1D P:24 SP:FF
3006 C7BB            DEY 88        implied   A:0 X:FF Y:1D P:24 SP:FF
3009 C7BC            BNE D0      immediate   A:0 X:FF Y:1C P:24 SP:FF
3012 C7B9            STA 91   (zeropage),y   A:0 X:FF Y:1C P:24 SP:FF
3019 C7BB            DEY 88        implied   A:0 X:FF Y:1C P:24 SP:FF
3022 C7BC            BNE D0      immediate   A:0 X:FF Y:1B P:24 SP:FF
3025 C7B9            STA 91   (zeropage),y   A:0 X:FF Y:1B P:24 SP:FF
3032 C7BB            DEY 88        implied   A:0 X:FF Y:1B P:24 SP:FF
3035 C7BC            BNE D0      immediate   A:0 X:FF Y:1A P:24 SP:FF
3038 C7B9            STA 91   (zeropage),y   A:0 X:FF Y:1A P:24 SP:FF
3045 C7BB            DEY 88        implied   A:0 X:FF Y:1A P:24 SP:FF
3048 C7BC            BNE D0      immediate   A:0 X:FF Y:19 P:24 SP:FF
3051 C7B9            STA 91   (zeropage),y   A:0 X:FF Y:19 P:24 SP:FF
3058 C7BB            DEY 88        implied   A:0 X:FF Y:19 P:24 SP:FF
3061 C7BC            BNE D0      immediate   A:0 X:FF Y:18 P:24 SP:FF
3064 C7B9            STA 91   (zeropage),y   A:0 X:FF Y:18 P:24 SP:FF
3071 C7BB            DEY 88        implied   A:0 X:FF Y:18 P:24 SP:FF
3074 C7BC            BNE D0      immediate   A:0 X:FF Y:17 P:24 SP:FF
3077 C7B9            STA 91   (zeropage),y   A:0 X:FF Y:17 P:24 SP:FF
3084 C7BB            DEY 88        implied   A:0 X:FF Y:17 P:24 SP:FF
3087 C7BC            BNE D0      immediate   A:0 X:FF Y:16 P:24 SP:FF
3090 C7B9            STA 91   (zeropage),y   A:0 X:FF Y:16 P:24 SP:FF
3097 C7BB            DEY 88        implied   A:0 X:FF Y:16 P:24 SP:FF
3100 C7BC            BNE D0      immediate   A:0 X:FF Y:15 P:24 SP:FF
3103 C7B9            STA 91   (zeropage),y   A:0 X:FF Y:15 P:24 SP:FF
3110 C7BB            DEY 88        implied   A:0 X:FF Y:15 P:24 SP:FF
3113 C7BC            BNE D0      immediate   A:0 X:FF Y:14 P:24 SP:FF
3116 C7B9            STA 91   (zeropage),y   A:0 X:FF Y:14 P:24 SP:FF
3123 C7BB            DEY 88        implied   A:0 X:FF Y:14 P:24 SP:FF
3126 C7BC            BNE D0      immediate   A:0 X:FF Y:13 P:24 SP:FF
3129 C7B9            STA 91   (zeropage),y   A:0 X:FF Y:13 P:24 SP:FF
3136 C7BB            DEY 88        implied   A:0 X:FF Y:13 P:24 SP:FF
3139 C7BC            BNE D0      immediate   A:0 X:FF Y:12 P:24 SP:FF
3142 C7B9            STA 91   (zeropage),y   A:0 X:FF Y:12 P:24 SP:FF
3149 C7BB            DEY 88        implied   A:0 X:FF Y:12 P:24 SP:FF
3152 C7BC            BNE D0      immediate   A:0 X:FF Y:11 P:24 SP:FF
3155 C7B9            STA 91   (zeropage),y   A:0 X:FF Y:11 P:24 SP:FF
3162 C7BB            DEY 88        implied   A:0 X:FF Y:11 P:24 SP:FF
3165 C7BC            BNE D0      immediate   A:0 X:FF Y:10 P:24 SP:FF
3168 C7B9            STA 91   (zeropage),y   A:0 X:FF Y:10 P:24 SP:FF
3175 C7BB            DEY 88        implied   A:0 X:FF Y:10 P:24 SP:FF
3178 C7BC            BNE D0      immediate   A:0 X:FF Y:F P:24 SP:FF
3181 C7B9            STA 91   (zeropage),y   A:0 X:FF Y:F P:24 SP:FF
3188 C7BB            DEY 88        implied   A:0 X:FF Y:F P:24 SP:FF
3191 C7BC            BNE D0      immediate   A:0 X:FF Y:E P:24 SP:FF
3194 C7B9            STA 91   (zeropage),y   A:0 X:FF Y:E P:24 SP:FF
3201 C7BB            DEY 88        implied   A:0 X:FF Y:E P:24 SP:FF
3204 C7BC            BNE D0      immediate   A:0 X:FF Y:D P:24 SP:FF
3207 C7B9            STA 91   (zeropage),y   A:0 X:FF Y:D P:24 SP:FF
3214 C7BB            DEY 88        implied   A:0 X:FF Y:D P:24 SP:FF
3217 C7BC            BNE D0      immediate   A:0 X:FF Y:C P:24 SP:FF
3220 C7B9            STA 91   (zeropage),y   A:0 X:FF Y:C P:24 SP:FF
3227 C7BB            DEY 88        implied   A:0 X:FF Y:C P:24 SP:FF
3230 C7BC            BNE D0      immediate   A:0 X:FF Y:B P:24 SP:FF
3233 C7B9            STA 91   (zeropage),y   A:0 X:FF Y:B P:24 SP:FF
3240 C7BB            DEY 88        implied   A:0 X:FF Y:B P:24 SP:FF
3243 C7BC            BNE D0      immediate   A:0 X:FF Y:A P:24 SP:FF
3246 C7B9            STA 91   (zeropage),y   A:0 X:FF Y:A P:24 SP:FF
3253 C7BB            DEY 88        implied   A:0 X:FF Y:A P:24 SP:FF
3256 C7BC            BNE D0      immediate   A:0 X:FF Y:9 P:24 SP:FF
3259 C7B9            STA 91   (zeropage),y   A:0 X:FF Y:9 P:24 SP:FF
3266 C7BB            DEY 88        implied   A:0 X:FF Y:9 P:24 SP:FF
3269 C7BC            BNE D0      immediate   A:0 X:FF Y:8 P:24 SP:FF
3272 C7B9            STA 91   (zeropage),y   A:0 X:FF Y:8 P:24 SP:FF
3279 C7BB            DEY 88        implied   A:0 X:FF Y:8 P:24 SP:FF
3282 C7BC            BNE D0      immediate   A:0 X:FF Y:7 P:24 SP:FF
3285 C7B9            STA 91   (zeropage),y   A:0 X:FF Y:7 P:24 SP:FF
3292 C7BB            DEY 88        implied   A:0 X:FF Y:7 P:24 SP:FF
3295 C7BC            BNE D0      immediate   A:0 X:FF Y:6 P:24 SP:FF
3298 C7B9            STA 91   (zeropage),y   A:0 X:FF Y:6 P:24 SP:FF
3305 C7BB            DEY 88        implied   A:0 X:FF Y:6 P:24 SP:FF
3308 C7BC            BNE D0      immediate   A:0 X:FF Y:5 P:24 SP:FF
3311 C7B9            STA 91   (zeropage),y   A:0 X:FF Y:5 P:24 SP:FF
3318 C7BB            DEY 88        implied   A:0 X:FF Y:5 P:24 SP:FF
3321 C7BC            BNE D0      immediate   A:0 X:FF Y:4 P:24 SP:FF
3324 C7B9            STA 91   (zeropage),y   A:0 X:FF Y:4 P:24 SP:FF
3331 C7BB            DEY 88        implied   A:0 X:FF Y:4 P:24 SP:FF
3334 C7BC            BNE D0      immediate   A:0 X:FF Y:3 P:24 SP:FF
3337 C7B9            STA 91   (zeropage),y   A:0 X:FF Y:3 P:24 SP:FF
3344 C7BB            DEY 88        implied   A:0 X:FF Y:3 P:24 SP:FF
3347 C7BC            BNE D0      immediate   A:0 X:FF Y:2 P:24 SP:FF
3350 C7B9            STA 91   (zeropage),y   A:0 X:FF Y:2 P:24 SP:FF
3357 C7BB            DEY 88        implied   A:0 X:FF Y:2 P:24 SP:FF
3360 C7BC            BNE D0      immediate   A:0 X:FF Y:1 P:24 SP:FF
3363 C7B9            STA 91   (zeropage),y   A:0 X:FF Y:1 P:24 SP:FF
3370 C7BB            DEY 88        implied   A:0 X:FF Y:1 P:24 SP:FF
3373 C7BC            BNE D0      immediate   A:0 X:FF Y:0 P:26 SP:FF
3376 C7BE            DEC C6       zeropage   A:0 X:FF Y:0 P:26 SP:FF
3382 C7C0            BPL 10      immediate   A:0 X:FF Y:0 P:24 SP:FF
3385 C7B9            STA 91   (zeropage),y   A:0 X:FF Y:0 P:24 SP:FF
3392 C7BB            DEY 88        implied   A:0 X:FF Y:0 P:24 SP:FF
3395 C7BC            BNE D0      immediate   A:0 X:FF Y:FF P:A4 SP:FF
3398 C7B9            STA 91   (zeropage),y   A:0 X:FF Y:FF P:A4 SP:FF
3405 C7BB            DEY 88        implied   A:0 X:FF Y:FF P:A4 SP:FF
3408 C7BC            BNE D0      immediate   A:0 X:FF Y:FE P:A4 SP:FF
3411 C7B9            STA 91   (zeropage),y   A:0 X:FF Y:FE P:A4 SP:FF
3418 C7BB            DEY 88        implied   A:0 X:FF Y:FE P:A4 SP:FF
3421 C7BC            BNE D0      immediate   A:0 X:FF Y:FD P:A4 SP:FF
3424 C7B9            STA 91   (zeropage),y   A:0 X:FF Y:FD P:A4 SP:FF
3431 C7BB            DEY 88        implied   A:0 X:FF Y:FD P:A4 SP:FF
3434 C7BC            BNE D0      immediate   A:0 X:FF Y:FC P:A4 SP:FF
3437 C7B9            STA 91   (zeropage),y   A:0 X:FF Y:FC P:A4 SP:FF
3444 C7BB            DEY 88        implied   A:0 X:FF Y:FC P:A4 SP:FF
3447 C7BC            BNE D0      immediate   A:0 X:FF Y:FB P:A4 SP:FF
3450 C7B9            STA 91   (zeropage),y   A:0 X:FF Y:FB P:A4 SP:FF
3457 C7BB            DEY 88        implied   A:0 X:FF Y:FB P:A4 SP:FF
3460 C7BC            BNE D0      immediate   A:0 X:FF Y:FA P:A4 SP:FF
3463 C7B9            STA 91   (zeropage),y   A:0 X:FF Y:FA P:A4 SP:FF
3470 C7BB            DEY 88        implied   A:0 X:FF Y:FA P:A4 SP:FF
3473 C7BC            BNE D0      immediate   A:0 X:FF Y:F9 P:A4 SP:FF
3476 C7B9            STA 91   (zeropage),y   A:0 X:FF Y:F9 P:A4 SP:FF
3483 C7BB            DEY 88        implied   A:0 X:FF Y:F9 P:A4 SP:FF
3486 C7BC            BNE D0      immediate   A:0 X:FF Y:F8 P:A4 SP:FF
3489 C7B9            STA 91   (zeropage),y   A:0 X:FF Y:F8 P:A4 SP:FF
3496 C7BB            DEY 88        implied   A:0 X:FF Y:F8 P:A4 SP:FF
3499 C7BC            BNE D0      immediate   A:0 X:FF Y:F7 P:A4 SP:FF
3502 C7B9            STA 91   (zeropage),y   A:0 X:FF Y:F7 P:A4 SP:FF
3509 C7BB            DEY 88        implied   A:0 X:FF Y:F7 P:A4 SP:FF
3512 C7BC            BNE D0      immediate   A:0 X:FF Y:F6 P:A4 SP:FF
3515 C7B9            STA 91   (zeropage),y   A:0 X:FF Y:F6 P:A4 SP:FF
3522 C7BB            DEY 88        implied   A:0 X:FF Y:F6 P:A4 SP:FF
3525 C7BC            BNE D0      immediate   A:0 X:FF Y:F5 P:A4 SP:FF
3528 C7B9            STA 91   (zeropage),y   A:0 X:FF Y:F5 P:A4 SP:FF
3535 C7BB            DEY 88        implied   A:0 X:FF Y:F5 P:A4 SP:FF
3538 C7BC            BNE D0      immediate   A:0 X:FF Y:F4 P:A4 SP:FF
3541 C7B9            STA 91   (zeropage),y   A:0 X:FF Y:F4 P:A4 SP:FF
3548 C7BB            DEY 88        implied   A:0 X:FF Y:F4 P:A4 SP:FF
3551 C7BC            BNE D0      immediate   A:0 X:FF Y:F3 P:A4 SP:FF
3554 C7B9            STA 91   (zeropage),y   A:0 X:FF Y:F3 P:A4 SP:FF
3561 C7BB            DEY 88        implied   A:0 X:FF Y:F3 P:A4 SP:FF
3564 C7BC            BNE D0      immediate   A:0 X:FF Y:F2 P:A4 SP:FF
3567 C7B9            STA 91   (zeropage),y   A:0 X:FF Y:F2 P:A4 SP:FF
3574 C7BB            DEY 88        implied   A:0 X:FF Y:F2 P:A4 SP:FF
3577 C7BC            BNE D0      immediate   A:0 X:FF Y:F1 P:A4 SP:FF
3580 C7B9            STA 91   (zeropage),y   A:0 X:FF Y:F1 P:A4 SP:FF
3587 C7BB            DEY 88        implied   A:0 X:FF Y:F1 P:A4 SP:FF
3590 C7BC            BNE D0      immediate   A:0 X:FF Y:F0 P:A4 SP:FF
3593 C7B9            STA 91   (zeropage),y   A:0 X:FF Y:F0 P:A4 SP:FF
3600 C7BB            DEY 88        implied   A:0 X:FF Y:F0 P:A4 SP:FF
3603 C7BC            BNE D0      immediate   A:0 X:FF Y:EF P:A4 SP:FF
3606 C7B9            STA 91   (zeropage),y   A:0 X:FF Y:EF P:A4 SP:FF
3613 C7BB            DEY 88        implied   A:0 X:FF Y:EF P:A4 SP:FF
3616 C7BC            BNE D0      immediate   A:0 X:FF Y:EE P:A4 SP:FF
3619 C7B9            STA 91   (zeropage),y   A:0 X:FF Y:EE P:A4 SP:FF
3626 C7BB            DEY 88        implied   A:0 X:FF Y:EE P:A4 SP:FF
3629 C7BC            BNE D0      immediate   A:0 X:FF Y:ED P:A4 SP:FF
3632 C7B9            STA 91   (zeropage),y   A:0 X:FF Y:ED P:A4 SP:FF
3639 C7BB            DEY 88        implied   A:0 X:FF Y:ED P:A4 SP:FF
3642 C7BC            BNE D0      immediate   A:0 X:FF Y:EC P:A4 SP:FF
3645 C7B9            STA 91   (zeropage),y   A:0 X:FF Y:EC P:A4 SP:FF
3652 C7BB            DEY 88        implied   A:0 X:FF Y:EC P:A4 SP:FF
3655 C7BC            BNE D0      immediate   A:0 X:FF Y:EB P:A4 SP:FF
3658 C7B9            STA 91   (zeropage),y   A:0 X:FF Y:EB P:A4 SP:FF
3665 C7BB            DEY 88        implied   A:0 X:FF Y:EB P:A4 SP:FF
3668 C7BC            BNE D0      immediate   A:0 X:FF Y:EA P:A4 SP:FF
3671 C7B9            STA 91   (zeropage),y   A:0 X:FF Y:EA P:A4 SP:FF
3678 C7BB            DEY 88        implied   A:0 X:FF Y:EA P:A4 SP:FF
3681 C7BC            BNE D0      immediate   A:0 X:FF Y:E9 P:A4 SP:FF
3684 C7B9            STA 91   (zeropage),y   A:0 X:FF Y:E9 P:A4 SP:FF
3691 C7BB            DEY 88        implied   A:0 X:FF Y:E9 P:A4 SP:FF
3694 C7BC            BNE D0      immediate   A:0 X:FF Y:E8 P:A4 SP:FF
3697 C7B9            STA 91   (zeropage),y   A:0 X:FF Y:E8 P:A4 SP:FF
3704 C7BB            DEY 88        implied   A:0 X:FF Y:E8 P:A4 SP:FF
3707 C7BC            BNE D0      immediate   A:0 X:FF Y:E7 P:A4 SP:FF
3710 C7B9            STA 91   (zeropage),y   A:0 X:FF Y:E7 P:A4 SP:FF
3717 C7BB            DEY 88        implied   A:0 X:FF Y:E7 P:A4 SP:FF
3720 C7BC            BNE D0      immediate   A:0 X:FF Y:E6 P:A4 SP:FF
3723 C7B9            STA 91   (zeropage),y   A:0 X:FF Y:E6 P:A4 SP:FF
3730 C7BB            DEY 88        implied   A:0 X:FF Y:E6 P:A4 SP:FF
3733 C7BC            BNE D0      immediate   A:0 X:FF Y:E5 P:A4 SP:FF
3736 C7B9            STA 91   (zeropage),y   A:0 X:FF Y:E5 P:A4 SP:FF
3743 C7BB            DEY 88        implied   A:0 X:FF Y:E5 P:A4 SP:FF
3746 C7BC            BNE D0      immediate   A:0 X:FF Y:E4 P:A4 SP:FF
3749 C7B9            STA 91   (zeropage),y   A:0 X:FF Y:E4 P:A4 SP:FF
3756 C7BB            DEY 88        implied   A:0 X:FF Y:E4 P:A4 SP:FF
3759 C7BC            BNE D0      immediate   A:0 X:FF Y:E3 P:A4 SP:FF
3762 C7B9            STA 91   (zeropage),y   A:0 X:FF Y:E3 P:A4 SP:FF
3769 C7BB            DEY 88        implied   A:0 X:FF Y:E3 P:A4 SP:FF
3772 C7BC            BNE D0      immediate   A:0 X:FF Y:E2 P:A4 SP:FF
3775 C7B9            STA 91   (zeropage),y   A:0 X:FF Y:E2 P:A4 SP:FF
3782 C7BB            DEY 88        implied   A:0 X:FF Y:E2 P:A4 SP:FF
3785 C7BC            BNE D0      immediate   A:0 X:FF Y:E1 P:A4 SP:FF
3788 C7B9            STA 91   (zeropage),y   A:0 X:FF Y:E1 P:A4 SP:FF
3795 C7BB            DEY 88        implied   A:0 X:FF Y:E1 P:A4 SP:FF
3798 C7BC            BNE D0      immediate   A:0 X:FF Y:E0 P:A4 SP:FF
3801 C7B9            STA 91   (zeropage),y   A:0 X:FF Y:E0 P:A4 SP:FF
3808 C7BB            DEY 88        implied   A:0 X:FF Y:E0 P:A4 SP:FF
3811 C7BC            BNE D0      immediate   A:0 X:FF Y:DF P:A4 SP:FF
3814 C7B9            STA 91   (zeropage),y   A:0 X:FF Y:DF P:A4 SP:FF
3821 C7BB            DEY 88        implied   A:0 X:FF Y:DF P:A4 SP:FF
3824 C7BC            BNE D0      immediate   A:0 X:FF Y:DE P:A4 SP:FF
3827 C7B9            STA 91   (zeropage),y   A:0 X:FF Y:DE P:A4 SP:FF
3834 C7BB            DEY 88        implied   A:0 X:FF Y:DE P:A4 SP:FF
3837 C7BC            BNE D0      immediate   A:0 X:FF Y:DD P:A4 SP:FF
3840 C7B9            STA 91   (zeropage),y   A:0 X:FF Y:DD P:A4 SP:FF
3847 C7BB            DEY 88        implied   A:0 X:FF Y:DD P:A4 SP:FF
3850 C7BC            BNE D0      immediate   A:0 X:FF Y:DC P:A4 SP:FF
3853 C7B9            STA 91   (zeropage),y   A:0 X:FF Y:DC P:A4 SP:FF
3860 C7BB            DEY 88        implied   A:0 X:FF Y:DC P:A4 SP:FF
3863 C7BC            BNE D0      immediate   A:0 X:FF Y:DB P:A4 SP:FF
3866 C7B9            STA 91   (zeropage),y   A:0 X:FF Y:DB P:A4 SP:FF
3873 C7BB            DEY 88        implied   A:0 X:FF Y:DB P:A4 SP:FF
3876 C7BC            BNE D0      immediate   A:0 X:FF Y:DA P:A4 SP:FF
3879 C7B9            STA 91   (zeropage),y   A:0 X:FF Y:DA P:A4 SP:FF
3886 C7BB            DEY 88        implied   A:0 X:FF Y:DA P:A4 SP:FF
3889 C7BC            BNE D0      immediate   A:0 X:FF Y:D9 P:A4 SP:FF
3892 C7B9            STA 91   (zeropage),y   A:0 X:FF Y:D9 P:A4 SP:FF
3899 C7BB            DEY 88        implied   A:0 X:FF Y:D9 P:A4 SP:FF
3902 C7BC            BNE D0      immediate   A:0 X:FF Y:D8 P:A4 SP:FF
3905 C7B9            STA 91   (zeropage),y   A:0 X:FF Y:D8 P:A4 SP:FF
3912 C7BB            DEY 88        implied   A:0 X:FF Y:D8 P:A4 SP:FF
3915 C7BC            BNE D0      immediate   A:0 X:FF Y:D7 P:A4 SP:FF
3918 C7B9            STA 91   (zeropage),y   A:0 X:FF Y:D7 P:A4 SP:FF
3925 C7BB            DEY 88        implied   A:0 X:FF Y:D7 P:A4 SP:FF
3928 C7BC            BNE D0      immediate   A:0 X:FF Y:D6 P:A4 SP:FF
3931 C7B9            STA 91   (zeropage),y   A:0 X:FF Y:D6 P:A4 SP:FF
3938 C7BB            DEY 88        implied   A:0 X:FF Y:D6 P:A4 SP:FF
3941 C7BC            BNE D0      immediate   A:0 X:FF Y:D5 P:A4 SP:FF
3944 C7B9            STA 91   (zeropage),y   A:0 X:FF Y:D5 P:A4 SP:FF
3951 C7BB            DEY 88        implied   A:0 X:FF Y:D5 P:A4 SP:FF
3954 C7BC            BNE D0      immediate   A:0 X:FF Y:D4 P:A4 SP:FF
3957 C7B9            STA 91   (zeropage),y   A:0 X:FF Y:D4 P:A4 SP:FF
3964 C7BB            DEY 88        implied   A:0 X:FF Y:D4 P:A4 SP:FF
3967 C7BC            BNE D0      immediate   A:0 X:FF Y:D3 P:A4 SP:FF
3970 C7B9            STA 91   (zeropage),y   A:0 X:FF Y:D3 P:A4 SP:FF
3977 C7BB            DEY 88        implied   A:0 X:FF Y:D3 P:A4 SP:FF
3980 C7BC            BNE D0      immediate   A:0 X:FF Y:D2 P:A4 SP:FF
3983 C7B9            STA 91   (zeropage),y   A:0 X:FF Y:D2 P:A4 SP:FF
3990 C7BB            DEY 88        implied   A:0 X:FF Y:D2 P:A4 SP:FF
3993 C7BC            BNE D0      immediate   A:0 X:FF Y:D1 P:A4 SP:FF
3996 C7B9            STA 91   (zeropage),y   A:0 X:FF Y:D1 P:A4 SP:FF
4003 C7BB            DEY 88        implied   A:0 X:FF Y:D1 P:A4 SP:FF
4006 C7BC            BNE D0      immediate   A:0 X:FF Y:D0 P:A4 SP:FF
4009 C7B9            STA 91   (zeropage),y   A:0 X:FF Y:D0 P:A4 SP:FF
4016 C7BB            DEY 88        implied   A:0 X:FF Y:D0 P:A4 SP:FF
4019 C7BC            BNE D0      immediate   A:0 X:FF Y:CF P:A4 SP:FF
4022 C7B9            STA 91   (zeropage),y   A:0 X:FF Y:CF P:A4 SP:FF
4029 C7BB            DEY 88        implied   A:0 X:FF Y:CF P:A4 SP:FF
4032 C7BC            BNE D0      immediate   A:0 X:FF Y:CE P:A4 SP:FF
4035 C7B9            STA 91   (zeropage),y   A:0 X:FF Y:CE P:A4 SP:FF
4042 C7BB            DEY 88        implied   A:0 X:FF Y:CE P:A4 SP:FF
4045 C7BC            BNE D0      immediate   A:0 X:FF Y:CD P:A4 SP:FF
4048 C7B9            STA 91   (zeropage),y   A:0 X:FF Y:CD P:A4 SP:FF
4055 C7BB            DEY 88        implied   A:0 X:FF Y:CD P:A4 SP:FF
4058 C7BC            BNE D0      immediate   A:0 X:FF Y:CC P:A4 SP:FF
4061 C7B9            STA 91   (zeropage),y   A:0 X:FF Y:CC P:A4 SP:FF
4068 C7BB            DEY 88        implied   A:0 X:FF Y:CC P:A4 SP:FF
4071 C7BC            BNE D0      immediate   A:0 X:FF Y:CB P:A4 SP:FF
4074 C7B9            STA 91   (zeropage),y   A:0 X:FF Y:CB P:A4 SP:FF
4081 C7BB            DEY 88        implied   A:0 X:FF Y:CB P:A4 SP:FF
4084 C7BC            BNE D0      immediate   A:0 X:FF Y:CA P:A4 SP:FF
4087 C7B9            STA 91   (zeropage),y   A:0 X:FF Y:CA P:A4 SP:FF
4094 C7BB            DEY 88        implied   A:0 X:FF Y:CA P:A4 SP:FF
4097 C7BC            BNE D0      immediate   A:0 X:FF Y:C9 P:A4 SP:FF
4100 C7B9            STA 91   (zeropage),y   A:0 X:FF Y:C9 P:A4 SP:FF
4107 C7BB            DEY 88        implied   A:0 X:FF Y:C9 P:A4 SP:FF
4110 C7BC            BNE D0      immediate   A:0 X:FF Y:C8 P:A4 SP:FF
4113 C7B9            STA 91   (zeropage),y   A:0 X:FF Y:C8 P:A4 SP:FF
4120 C7BB            DEY 88        implied   A:0 X:FF Y:C8 P:A4 SP:FF
4123 C7BC            BNE D0      immediate   A:0 X:FF Y:C7 P:A4 SP:FF
4126 C7B9            STA 91   (zeropage),y   A:0 X:FF Y:C7 P:A4 SP:FF
4133 C7BB            DEY 88        implied   A:0 X:FF Y:C7 P:A4 SP:FF
4136 C7BC            BNE D0      immediate   A:0 X:FF Y:C6 P:A4 SP:FF
4139 C7B9            STA 91   (zeropage),y   A:0 X:FF Y:C6 P:A4 SP:FF
4146 C7BB            DEY 88        implied   A:0 X:FF Y:C6 P:A4 SP:FF
4149 C7BC            BNE D0      immediate   A:0 X:FF Y:C5 P:A4 SP:FF
4152 C7B9            STA 91   (zeropage),y   A:0 X:FF Y:C5 P:A4 SP:FF
4159 C7BB            DEY 88        implied   A:0 X:FF Y:C5 P:A4 SP:FF
4162 C7BC            BNE D0      immediate   A:0 X:FF Y:C4 P:A4 SP:FF
4165 C7B9            STA 91   (zeropage),y   A:0 X:FF Y:C4 P:A4 SP:FF
4172 C7BB            DEY 88        implied   A:0 X:FF Y:C4 P:A4 SP:FF
4175 C7BC            BNE D0      immediate   A:0 X:FF Y:C3 P:A4 SP:FF
4178 C7B9            STA 91   (zeropage),y   A:0 X:FF Y:C3 P:A4 SP:FF
4185 C7BB            DEY 88        implied   A:0 X:FF Y:C3 P:A4 SP:FF
4188 C7BC            BNE D0      immediate   A:0 X:FF Y:C2 P:A4 SP:FF
4191 C7B9            STA 91   (zeropage),y   A:0 X:FF Y:C2 P:A4 SP:FF
4198 C7BB            DEY 88        implied   A:0 X:FF Y:C2 P:A4 SP:FF
4201 C7BC            BNE D0      immediate   A:0 X:FF Y:C1 P:A4 SP:FF
4204 C7B9            STA 91   (zeropage),y   A:0 X:FF Y:C1 P:A4 SP:FF
4211 C7BB            DEY 88        implied   A:0 X:FF Y:C1 P:A4 SP:FF
4214 C7BC            BNE D0      immediate   A:0 X:FF Y:C0 P:A4 SP:FF
4217 C7B9            STA 91   (zeropage),y   A:0 X:FF Y:C0 P:A4 SP:FF
4224 C7BB            DEY 88        implied   A:0 X:FF Y:C0 P:A4 SP:FF
4227 C7BC            BNE D0      immediate   A:0 X:FF Y:BF P:A4 SP:FF
4230 C7B9            STA 91   (zeropage),y   A:0 X:FF Y:BF P:A4 SP:FF
4237 C7BB            DEY 88        implied   A:0 X:FF Y:BF P:A4 SP:FF
4240 C7BC            BNE D0      immediate   A:0 X:FF Y:BE P:A4 SP:FF
4243 C7B9            STA 91   (zeropage),y   A:0 X:FF Y:BE P:A4 SP:FF
4250 C7BB            DEY 88        implied   A:0 X:FF Y:BE P:A4 SP:FF
4253 C7BC            BNE D0      immediate   A:0 X:FF Y:BD P:A4 SP:FF
4256 C7B9            STA 91   (zeropage),y   A:0 X:FF Y:BD P:A4 SP:FF
4263 C7BB            DEY 88        implied   A:0 X:FF Y:BD P:A4 SP:FF
4266 C7BC            BNE D0      immediate   A:0 X:FF Y:BC P:A4 SP:FF
4269 C7B9            STA 91   (zeropage),y   A:0 X:FF Y:BC P:A4 SP:FF
4276 C7BB            DEY 88        implied   A:0 X:FF Y:BC P:A4 SP:FF
4279 C7BC            BNE D0      immediate   A:0 X:FF Y:BB P:A4 SP:FF
4282 C7B9            STA 91   (zeropage),y   A:0 X:FF Y:BB P:A4 SP:FF
4289 C7BB            DEY 88        implied   A:0 X:FF Y:BB P:A4 SP:FF
4292 C7BC            BNE D0      immediate   A:0 X:FF Y:BA P:A4 SP:FF
4295 C7B9            STA 91   (zeropage),y   A:0 X:FF Y:BA P:A4 SP:FF
4302 C7BB            DEY 88        implied   A:0 X:FF Y:BA P:A4 SP:FF
4305 C7BC            BNE D0      immediate   A:0 X:FF Y:B9 P:A4 SP:FF
4308 C7B9            STA 91   (zeropage),y   A:0 X:FF Y:B9 P:A4 SP:FF
4315 C7BB            DEY 88        implied   A:0 X:FF Y:B9 P:A4 SP:FF
4318 C7BC            BNE D0      immediate   A:0 X:FF Y:B8 P:A4 SP:FF
4321 C7B9            STA 91   (zeropage),y   A:0 X:FF Y:B8 P:A4 SP:FF
4328 C7BB            DEY 88        implied   A:0 X:FF Y:B8 P:A4 SP:FF
4331 C7BC            BNE D0      immediate   A:0 X:FF Y:B7 P:A4 SP:FF
4334 C7B9            STA 91   (zeropage),y   A:0 X:FF Y:B7 P:A4 SP:FF
4341 C7BB            DEY 88        implied   A:0 X:FF Y:B7 P:A4 SP:FF
4344 C7BC            BNE D0      immediate   A:0 X:FF Y:B6 P:A4 SP:FF
4347 C7B9            STA 91   (zeropage),y   A:0 X:FF Y:B6 P:A4 SP:FF
4354 C7BB            DEY 88        implied   A:0 X:FF Y:B6 P:A4 SP:FF
4357 C7BC            BNE D0      immediate   A:0 X:FF Y:B5 P:A4 SP:FF
4360 C7B9            STA 91   (zeropage),y   A:0 X:FF Y:B5 P:A4 SP:FF
4367 C7BB            DEY 88        implied   A:0 X:FF Y:B5 P:A4 SP:FF
4370 C7BC            BNE D0      immediate   A:0 X:FF Y:B4 P:A4 SP:FF
4373 C7B9            STA 91   (zeropage),y   A:0 X:FF Y:B4 P:A4 SP:FF
4380 C7BB            DEY 88        implied   A:0 X:FF Y:B4 P:A4 SP:FF
4383 C7BC            BNE D0      immediate   A:0 X:FF Y:B3 P:A4 SP:FF
4386 C7B9            STA 91   (zeropage),y   A:0 X:FF Y:B3 P:A4 SP:FF
4393 C7BB            DEY 88        implied   A:0 X:FF Y:B3 P:A4 SP:FF
4396 C7BC            BNE D0      immediate   A:0 X:FF Y:B2 P:A4 SP:FF
4399 C7B9            STA 91   (zeropage),y   A:0 X:FF Y:B2 P:A4 SP:FF
4406 C7BB            DEY 88        implied   A:0 X:FF Y:B2 P:A4 SP:FF
4409 C7BC            BNE D0      immediate   A:0 X:FF Y:B1 P:A4 SP:FF
4412 C7B9            STA 91   (zeropage),y   A:0 X:FF Y:B1 P:A4 SP:FF
4419 C7BB            DEY 88        implied   A:0 X:FF Y:B1 P:A4 SP:FF
4422 C7BC            BNE D0      immediate   A:0 X:FF Y:B0 P:A4 SP:FF
4425 C7B9            STA 91   (zeropage),y   A:0 X:FF Y:B0 P:A4 SP:FF
4432 C7BB            DEY 88        implied   A:0 X:FF Y:B0 P:A4 SP:FF
4435 C7BC            BNE D0      immediate   A:0 X:FF Y:AF P:A4 SP:FF
4438 C7B9            STA 91   (zeropage),y   A:0 X:FF Y:AF P:A4 SP:FF
4445 C7BB            DEY 88        implied   A:0 X:FF Y:AF P:A4 SP:FF
4448 C7BC            BNE D0      immediate   A:0 X:FF Y:AE P:A4 SP:FF
4451 C7B9            STA 91   (zeropage),y   A:0 X:FF Y:AE P:A4 SP:FF
4458 C7BB            DEY 88        implied   A:0 X:FF Y:AE P:A4 SP:FF
4461 C7BC            BNE D0      immediate   A:0 X:FF Y:AD P:A4 SP:FF
4464 C7B9            STA 91   (zeropage),y   A:0 X:FF Y:AD P:A4 SP:FF
4471 C7BB            DEY 88        implied   A:0 X:FF Y:AD P:A4 SP:FF
4474 C7BC            BNE D0      immediate   A:0 X:FF Y:AC P:A4 SP:FF
4477 C7B9            STA 91   (zeropage),y   A:0 X:FF Y:AC P:A4 SP:FF
4484 C7BB            DEY 88        implied   A:0 X:FF Y:AC P:A4 SP:FF
4487 C7BC            BNE D0      immediate   A:0 X:FF Y:AB P:A4 SP:FF
4490 C7B9            STA 91   (zeropage),y   A:0 X:FF Y:AB P:A4 SP:FF
4497 C7BB            DEY 88        implied   A:0 X:FF Y:AB P:A4 SP:FF
4500 C7BC            BNE D0      immediate   A:0 X:FF Y:AA P:A4 SP:FF
4503 C7B9            STA 91   (zeropage),y   A:0 X:FF Y:AA P:A4 SP:FF
4510 C7BB            DEY 88        implied   A:0 X:FF Y:AA P:A4 SP:FF
4513 C7BC            BNE D0      immediate   A:0 X:FF Y:A9 P:A4 SP:FF
4516 C7B9            STA 91   (zeropage),y   A:0 X:FF Y:A9 P:A4 SP:FF
4523 C7BB            DEY 88        implied   A:0 X:FF Y:A9 P:A4 SP:FF
4526 C7BC            BNE D0      immediate   A:0 X:FF Y:A8 P:A4 SP:FF
4529 C7B9            STA 91   (zeropage),y   A:0 X:FF Y:A8 P:A4 SP:FF
4536 C7BB            DEY 88        implied   A:0 X:FF Y:A8 P:A4 SP:FF
4539 C7BC            BNE D0      immediate   A:0 X:FF Y:A7 P:A4 SP:FF
4542 C7B9            STA 91   (zeropage),y   A:0 X:FF Y:A7 P:A4 SP:FF
4549 C7BB            DEY 88        implied   A:0 X:FF Y:A7 P:A4 SP:FF
4552 C7BC            BNE D0      immediate   A:0 X:FF Y:A6 P:A4 SP:FF
4555 C7B9            STA 91   (zeropage),y   A:0 X:FF Y:A6 P:A4 SP:FF
4562 C7BB            DEY 88        implied   A:0 X:FF Y:A6 P:A4 SP:FF
4565 C7BC            BNE D0      immediate   A:0 X:FF Y:A5 P:A4 SP:FF
4568 C7B9            STA 91   (zeropage),y   A:0 X:FF Y:A5 P:A4 SP:FF
4575 C7BB            DEY 88        implied   A:0 X:FF Y:A5 P:A4 SP:FF
4578 C7BC            BNE D0      immediate   A:0 X:FF Y:A4 P:A4 SP:FF
4581 C7B9            STA 91   (zeropage),y   A:0 X:FF Y:A4 P:A4 SP:FF
4588 C7BB            DEY 88        implied   A:0 X:FF Y:A4 P:A4 SP:FF
4591 C7BC            BNE D0      immediate   A:0 X:FF Y:A3 P:A4 SP:FF
4594 C7B9            STA 91   (zeropage),y   A:0 X:FF Y:A3 P:A4 SP:FF
4601 C7BB            DEY 88        implied   A:0 X:FF Y:A3 P:A4 SP:FF
4604 C7BC            BNE D0      immediate   A:0 X:FF Y:A2 P:A4 SP:FF
4607 C7B9            STA 91   (zeropage),y   A:0 X:FF Y:A2 P:A4 SP:FF
4614 C7BB            DEY 88        implied   A:0 X:FF Y:A2 P:A4 SP:FF
4617 C7BC            BNE D0      immediate   A:0 X:FF Y:A1 P:A4 SP:FF
4620 C7B9            STA 91   (zeropage),y   A:0 X:FF Y:A1 P:A4 SP:FF
4627 C7BB            DEY 88        implied   A:0 X:FF Y:A1 P:A4 SP:FF
4630 C7BC            BNE D0      immediate   A:0 X:FF Y:A0 P:A4 SP:FF
4633 C7B9            STA 91   (zeropage),y   A:0 X:FF Y:A0 P:A4 SP:FF
4640 C7BB            DEY 88        implied   A:0 X:FF Y:A0 P:A4 SP:FF
4643 C7BC            BNE D0      immediate   A:0 X:FF Y:9F P:A4 SP:FF
4646 C7B9            STA 91   (zeropage),y   A:0 X:FF Y:9F P:A4 SP:FF
4653 C7BB            DEY 88        implied   A:0 X:FF Y:9F P:A4 SP:FF
4656 C7BC            BNE D0      immediate   A:0 X:FF Y:9E P:A4 SP:FF
4659 C7B9            STA 91   (zeropage),y   A:0 X:FF Y:9E P:A4 SP:FF
4666 C7BB            DEY 88        implied   A:0 X:FF Y:9E P:A4 SP:FF
4669 C7BC            BNE D0      immediate   A:0 X:FF Y:9D P:A4 SP:FF
4672 C7B9            STA 91   (zeropage),y   A:0 X:FF Y:9D P:A4 SP:FF
4679 C7BB            DEY 88        implied   A:0 X:FF Y:9D P:A4 SP:FF
4682 C7BC            BNE D0      immediate   A:0 X:FF Y:9C P:A4 SP:FF
4685 C7B9            STA 91   (zeropage),y   A:0 X:FF Y:9C P:A4 SP:FF
4692 C7BB            DEY 88        implied   A:0 X:FF Y:9C P:A4 SP:FF
4695 C7BC            BNE D0      immediate   A:0 X:FF Y:9B P:A4 SP:FF
4698 C7B9            STA 91   (zeropage),y   A:0 X:FF Y:9B P:A4 SP:FF
4705 C7BB            DEY 88        implied   A:0 X:FF Y:9B P:A4 SP:FF
4708 C7BC            BNE D0      immediate   A:0 X:FF Y:9A P:A4 SP:FF
4711 C7B9            STA 91   (zeropage),y   A:0 X:FF Y:9A P:A4 SP:FF
4718 C7BB            DEY 88        implied   A:0 X:FF Y:9A P:A4 SP:FF
4721 C7BC            BNE D0      immediate   A:0 X:FF Y:99 P:A4 SP:FF
4724 C7B9            STA 91   (zeropage),y   A:0 X:FF Y:99 P:A4 SP:FF
4731 C7BB            DEY 88        implied   A:0 X:FF Y:99 P:A4 SP:FF
4734 C7BC            BNE D0      immediate   A:0 X:FF Y:98 P:A4 SP:FF
4737 C7B9            STA 91   (zeropage),y   A:0 X:FF Y:98 P:A4 SP:FF
4744 C7BB            DEY 88        implied   A:0 X:FF Y:98 P:A4 SP:FF
4747 C7BC            BNE D0      immediate   A:0 X:FF Y:97 P:A4 SP:FF
4750 C7B9            STA 91   (zeropage),y   A:0 X:FF Y:97 P:A4 SP:FF
4757 C7BB            DEY 88        implied   A:0 X:FF Y:97 P:A4 SP:FF
4760 C7BC            BNE D0      immediate   A:0 X:FF Y:96 P:A4 SP:FF
4763 C7B9            STA 91   (zeropage),y   A:0 X:FF Y:96 P:A4 SP:FF
4770 C7BB            DEY 88        implied   A:0 X:FF Y:96 P:A4 SP:FF
4773 C7BC            BNE D0      immediate   A:0 X:FF Y:95 P:A4 SP:FF
4776 C7B9            STA 91   (zeropage),y   A:0 X:FF Y:95 P:A4 SP:FF
4783 C7BB            DEY 88        implied   A:0 X:FF Y:95 P:A4 SP:FF
4786 C7BC            BNE D0      immediate   A:0 X:FF Y:94 P:A4 SP:FF
4789 C7B9            STA 91   (zeropage),y   A:0 X:FF Y:94 P:A4 SP:FF
4796 C7BB            DEY 88        implied   A:0 X:FF Y:94 P:A4 SP:FF
4799 C7BC            BNE D0      immediate   A:0 X:FF Y:93 P:A4 SP:FF
4802 C7B9            STA 91   (zeropage),y   A:0 X:FF Y:93 P:A4 SP:FF
4809 C7BB            DEY 88        implied   A:0 X:FF Y:93 P:A4 SP:FF
4812 C7BC            BNE D0      immediate   A:0 X:FF Y:92 P:A4 SP:FF
4815 C7B9            STA 91   (zeropage),y   A:0 X:FF Y:92 P:A4 SP:FF
4822 C7BB            DEY 88        implied   A:0 X:FF Y:92 P:A4 SP:FF
4825 C7BC            BNE D0      immediate   A:0 X:FF Y:91 P:A4 SP:FF
4828 C7B9            STA 91   (zeropage),y   A:0 X:FF Y:91 P:A4 SP:FF
4835 C7BB            DEY 88        implied   A:0 X:FF Y:91 P:A4 SP:FF
4838 C7BC            BNE D0      immediate   A:0 X:FF Y:90 P:A4 SP:FF
4841 C7B9            STA 91   (zeropage),y   A:0 X:FF Y:90 P:A4 SP:FF
4848 C7BB            DEY 88        implied   A:0 X:FF Y:90 P:A4 SP:FF
4851 C7BC            BNE D0      immediate   A:0 X:FF Y:8F P:A4 SP:FF
4854 C7B9            STA 91   (zeropage),y   A:0 X:FF Y:8F P:A4 SP:FF
4861 C7BB            DEY 88        implied   A:0 X:FF Y:8F P:A4 SP:FF
4864 C7BC            BNE D0      immediate   A:0 X:FF Y:8E P:A4 SP:FF
4867 C7B9            STA 91   (zeropage),y   A:0 X:FF Y:8E P:A4 SP:FF
4874 C7BB            DEY 88        implied   A:0 X:FF Y:8E P:A4 SP:FF
4877 C7BC            BNE D0      immediate   A:0 X:FF Y:8D P:A4 SP:FF
4880 C7B9            STA 91   (zeropage),y   A:0 X:FF Y:8D P:A4 SP:FF
4887 C7BB            DEY 88        implied   A:0 X:FF Y:8D P:A4 SP:FF
4890 C7BC            BNE D0      immediate   A:0 X:FF Y:8C P:A4 SP:FF
4893 C7B9            STA 91   (zeropage),y   A:0 X:FF Y:8C P:A4 SP:FF
4900 C7BB            DEY 88        implied   A:0 X:FF Y:8C P:A4 SP:FF
4903 C7BC            BNE D0      immediate   A:0 X:FF Y:8B P:A4 SP:FF
4906 C7B9            STA 91   (zeropage),y   A:0 X:FF Y:8B P:A4 SP:FF
4913 C7BB            DEY 88        implied   A:0 X:FF Y:8B P:A4 SP:FF
4916 C7BC            BNE D0      immediate   A:0 X:FF Y:8A P:A4 SP:FF
4919 C7B9            STA 91   (zeropage),y   A:0 X:FF Y:8A P:A4 SP:FF
4926 C7BB            DEY 88        implied   A:0 X:FF Y:8A P:A4 SP:FF
4929 C7BC            BNE D0      immediate   A:0 X:FF Y:89 P:A4 SP:FF
4932 C7B9            STA 91   (zeropage),y   A:0 X:FF Y:89 P:A4 SP:FF
4939 C7BB            DEY 88        implied   A:0 X:FF Y:89 P:A4 SP:FF
4942 C7BC            BNE D0      immediate   A:0 X:FF Y:88 P:A4 SP:FF
4945 C7B9            STA 91   (zeropage),y   A:0 X:FF Y:88 P:A4 SP:FF
4952 C7BB            DEY 88        implied   A:0 X:FF Y:88 P:A4 SP:FF
4955 C7BC            BNE D0      immediate   A:0 X:FF Y:87 P:A4 SP:FF
4958 C7B9            STA 91   (zeropage),y   A:0 X:FF Y:87 P:A4 SP:FF
4965 C7BB            DEY 88        implied   A:0 X:FF Y:87 P:A4 SP:FF
4968 C7BC            BNE D0      immediate   A:0 X:FF Y:86 P:A4 SP:FF
4971 C7B9            STA 91   (zeropage),y   A:0 X:FF Y:86 P:A4 SP:FF
4978 C7BB            DEY 88        implied   A:0 X:FF Y:86 P:A4 SP:FF
4981 C7BC            BNE D0      immediate   A:0 X:FF Y:85 P:A4 SP:FF
4984 C7B9            STA 91   (zeropage),y   A:0 X:FF Y:85 P:A4 SP:FF
4991 C7BB            DEY 88        implied   A:0 X:FF Y:85 P:A4 SP:FF
4994 C7BC            BNE D0      immediate   A:0 X:FF Y:84 P:A4 SP:FF
4997 C7B9            STA 91   (zeropage),y   A:0 X:FF Y:84 P:A4 SP:FF
5004 C7BB            DEY 88        implied   A:0 X:FF Y:84 P:A4 SP:FF
5007 C7BC            BNE D0      immediate   A:0 X:FF Y:83 P:A4 SP:FF
5010 C7B9            STA 91   (zeropage),y   A:0 X:FF Y:83 P:A4 SP:FF
5017 C7BB            DEY 88        implied   A:0 X:FF Y:83 P:A4 SP:FF
5020 C7BC            BNE D0      immediate   A:0 X:FF Y:82 P:A4 SP:FF
5023 C7B9            STA 91   (zeropage),y   A:0 X:FF Y:82 P:A4 SP:FF
5030 C7BB            DEY 88        implied   A:0 X:FF Y:82 P:A4 SP:FF
5033 C7BC            BNE D0      immediate   A:0 X:FF Y:81 P:A4 SP:FF
5036 C7B9            STA 91   (zeropage),y   A:0 X:FF Y:81 P:A4 SP:FF
5043 C7BB            DEY 88        implied   A:0 X:FF Y:81 P:A4 SP:FF
5046 C7BC            BNE D0      immediate   A:0 X:FF Y:80 P:A4 SP:FF
5049 C7B9            STA 91   (zeropage),y   A:0 X:FF Y:80 P:A4 SP:FF
5056 C7BB            DEY 88        implied   A:0 X:FF Y:80 P:A4 SP:FF
5059 C7BC            BNE D0      immediate   A:0 X:FF Y:7F P:24 SP:FF
5062 C7B9            STA 91   (zeropage),y   A:0 X:FF Y:7F P:24 SP:FF
5069 C7BB            DEY 88        implied   A:0 X:FF Y:7F P:24 SP:FF
5072 C7BC            BNE D0      immediate   A:0 X:FF Y:7E P:24 SP:FF
5075 C7B9            STA 91   (zeropage),y   A:0 X:FF Y:7E P:24 SP:FF
5082 C7BB            DEY 88        implied   A:0 X:FF Y:7E P:24 SP:FF
5085 C7BC            BNE D0      immediate   A:0 X:FF Y:7D P:24 SP:FF
5088 C7B9            STA 91   (zeropage),y   A:0 X:FF Y:7D P:24 SP:FF
5095 C7BB            DEY 88        implied   A:0 X:FF Y:7D P:24 SP:FF
5098 C7BC            BNE D0      immediate   A:0 X:FF Y:7C P:24 SP:FF
5101 C7B9            STA 91   (zeropage),y   A:0 X:FF Y:7C P:24 SP:FF
5108 C7BB            DEY 88        implied   A:0 X:FF Y:7C P:24 SP:FF
5111 C7BC            BNE D0      immediate   A:0 X:FF Y:7B P:24 SP:FF
5114 C7B9            STA 91   (zeropage),y   A:0 X:FF Y:7B P:24 SP:FF
5121 C7BB            DEY 88        implied   A:0 X:FF Y:7B P:24 SP:FF
5124 C7BC            BNE D0      immediate   A:0 X:FF Y:7A P:24 SP:FF
5127 C7B9            STA 91   (zeropage),y   A:0 X:FF Y:7A P:24 SP:FF
5134 C7BB            DEY 88        implied   A:0 X:FF Y:7A P:24 SP:FF
5137 C7BC            BNE D0      immediate   A:0 X:FF Y:79 P:24 SP:FF
5140 C7B9            STA 91   (zeropage),y   A:0 X:FF Y:79 P:24 SP:FF
5147 C7BB            DEY 88        implied   A:0 X:FF Y:79 P:24 SP:FF
5150 C7BC            BNE D0      immediate   A:0 X:FF Y:78 P:24 SP:FF
5153 C7B9            STA 91   (zeropage),y   A:0 X:FF Y:78 P:24 SP:FF
5160 C7BB            DEY 88        implied   A:0 X:FF Y:78 P:24 SP:FF
5163 C7BC            BNE D0      immediate   A:0 X:FF Y:77 P:24 SP:FF
5166 C7B9            STA 91   (zeropage),y   A:0 X:FF Y:77 P:24 SP:FF
5173 C7BB            DEY 88        implied   A:0 X:FF Y:77 P:24 SP:FF
5176 C7BC            BNE D0      immediate   A:0 X:FF Y:76 P:24 SP:FF
5179 C7B9            STA 91   (zeropage),y   A:0 X:FF Y:76 P:24 SP:FF
5186 C7BB            DEY 88        implied   A:0 X:FF Y:76 P:24 SP:FF
5189 C7BC            BNE D0      immediate   A:0 X:FF Y:75 P:24 SP:FF
5192 C7B9            STA 91   (zeropage),y   A:0 X:FF Y:75 P:24 SP:FF
5199 C7BB            DEY 88        implied   A:0 X:FF Y:75 P:24 SP:FF
5202 C7BC            BNE D0      immediate   A:0 X:FF Y:74 P:24 SP:FF
5205 C7B9            STA 91   (zeropage),y   A:0 X:FF Y:74 P:24 SP:FF
5212 C7BB            DEY 88        implied   A:0 X:FF Y:74 P:24 SP:FF
5215 C7BC            BNE D0      immediate   A:0 X:FF Y:73 P:24 SP:FF
5218 C7B9            STA 91   (zeropage),y   A:0 X:FF Y:73 P:24 SP:FF
5225 C7BB            DEY 88        implied   A:0 X:FF Y:73 P:24 SP:FF
5228 C7BC            BNE D0      immediate   A:0 X:FF Y:72 P:24 SP:FF
5231 C7B9            STA 91   (zeropage),y   A:0 X:FF Y:72 P:24 SP:FF
5238 C7BB            DEY 88        implied   A:0 X:FF Y:72 P:24 SP:FF
5241 C7BC            BNE D0      immediate   A:0 X:FF Y:71 P:24 SP:FF
5244 C7B9            STA 91   (zeropage),y   A:0 X:FF Y:71 P:24 SP:FF
5251 C7BB            DEY 88        implied   A:0 X:FF Y:71 P:24 SP:FF
5254 C7BC            BNE D0      immediate   A:0 X:FF Y:70 P:24 SP:FF
5257 C7B9            STA 91   (zeropage),y   A:0 X:FF Y:70 P:24 SP:FF
5264 C7BB            DEY 88        implied   A:0 X:FF Y:70 P:24 SP:FF
5267 C7BC            BNE D0      immediate   A:0 X:FF Y:6F P:24 SP:FF
5270 C7B9            STA 91   (zeropage),y   A:0 X:FF Y:6F P:24 SP:FF
5277 C7BB            DEY 88        implied   A:0 X:FF Y:6F P:24 SP:FF
5280 C7BC            BNE D0      immediate   A:0 X:FF Y:6E P:24 SP:FF
5283 C7B9            STA 91   (zeropage),y   A:0 X:FF Y:6E P:24 SP:FF
5290 C7BB            DEY 88        implied   A:0 X:FF Y:6E P:24 SP:FF
5293 C7BC            BNE D0      immediate   A:0 X:FF Y:6D P:24 SP:FF
5296 C7B9            STA 91   (zeropage),y   A:0 X:FF Y:6D P:24 SP:FF
5303 C7BB            DEY 88        implied   A:0 X:FF Y:6D P:24 SP:FF
5306 C7BC            BNE D0      immediate   A:0 X:FF Y:6C P:24 SP:FF
5309 C7B9            STA 91   (zeropage),y   A:0 X:FF Y:6C P:24 SP:FF
5316 C7BB            DEY 88        implied   A:0 X:FF Y:6C P:24 SP:FF
5319 C7BC            BNE D0      immediate   A:0 X:FF Y:6B P:24 SP:FF
5322 C7B9            STA 91   (zeropage),y   A:0 X:FF Y:6B P:24 SP:FF
5329 C7BB            DEY 88        implied   A:0 X:FF Y:6B P:24 SP:FF
5332 C7BC            BNE D0      immediate   A:0 X:FF Y:6A P:24 SP:FF
5335 C7B9            STA 91   (zeropage),y   A:0 X:FF Y:6A P:24 SP:FF
5342 C7BB            DEY 88        implied   A:0 X:FF Y:6A P:24 SP:FF
5345 C7BC            BNE D0      immediate   A:0 X:FF Y:69 P:24 SP:FF
5348 C7B9            STA 91   (zeropage),y   A:0 X:FF Y:69 P:24 SP:FF
5355 C7BB            DEY 88        implied   A:0 X:FF Y:69 P:24 SP:FF
5358 C7BC            BNE D0      immediate   A:0 X:FF Y:68 P:24 SP:FF
5361 C7B9            STA 91   (zeropage),y   A:0 X:FF Y:68 P:24 SP:FF
5368 C7BB            DEY 88        implied   A:0 X:FF Y:68 P:24 SP:FF
5371 C7BC            BNE D0      immediate   A:0 X:FF Y:67 P:24 SP:FF
5374 C7B9            STA 91   (zeropage),y   A:0 X:FF Y:67 P:24 SP:FF
5381 C7BB            DEY 88        implied   A:0 X:FF Y:67 P:24 SP:FF
5384 C7BC            BNE D0      immediate   A:0 X:FF Y:66 P:24 SP:FF
5387 C7B9            STA 91   (zeropage),y   A:0 X:FF Y:66 P:24 SP:FF
5394 C7BB            DEY 88        implied   A:0 X:FF Y:66 P:24 SP:FF
5397 C7BC            BNE D0      immediate   A:0 X:FF Y:65 P:24 SP:FF
5400 C7B9            STA 91   (zeropage),y   A:0 X:FF Y:65 P:24 SP:FF
5407 C7BB            DEY 88        implied   A:0 X:FF Y:65 P:24 SP:FF
5410 C7BC            BNE D0      immediate   A:0 X:FF Y:64 P:24 SP:FF
5413 C7B9            STA 91   (zeropage),y   A:0 X:FF Y:64 P:24 SP:FF
5420 C7BB            DEY 88        implied   A:0 X:FF Y:64 P:24 SP:FF
5423 C7BC            BNE D0      immediate   A:0 X:FF Y:63 P:24 SP:FF
5426 C7B9            STA 91   (zeropage),y   A:0 X:FF Y:63 P:24 SP:FF
5433 C7BB            DEY 88        implied   A:0 X:FF Y:63 P:24 SP:FF
5436 C7BC            BNE D0      immediate   A:0 X:FF Y:62 P:24 SP:FF
5439 C7B9            STA 91   (zeropage),y   A:0 X:FF Y:62 P:24 SP:FF
5446 C7BB            DEY 88        implied   A:0 X:FF Y:62 P:24 SP:FF
5449 C7BC            BNE D0      immediate   A:0 X:FF Y:61 P:24 SP:FF
5452 C7B9            STA 91   (zeropage),y   A:0 X:FF Y:61 P:24 SP:FF
5459 C7BB            DEY 88        implied   A:0 X:FF Y:61 P:24 SP:FF
5462 C7BC            BNE D0      immediate   A:0 X:FF Y:60 P:24 SP:FF
5465 C7B9            STA 91   (zeropage),y   A:0 X:FF Y:60 P:24 SP:FF
5472 C7BB            DEY 88        implied   A:0 X:FF Y:60 P:24 SP:FF
5475 C7BC            BNE D0      immediate   A:0 X:FF Y:5F P:24 SP:FF
5478 C7B9            STA 91   (zeropage),y   A:0 X:FF Y:5F P:24 SP:FF
5485 C7BB            DEY 88        implied   A:0 X:FF Y:5F P:24 SP:FF
5488 C7BC            BNE D0      immediate   A:0 X:FF Y:5E P:24 SP:FF
5491 C7B9            STA 91   (zeropage),y   A:0 X:FF Y:5E P:24 SP:FF
5498 C7BB            DEY 88        implied   A:0 X:FF Y:5E P:24 SP:FF
5501 C7BC            BNE D0      immediate   A:0 X:FF Y:5D P:24 SP:FF
5504 C7B9            STA 91   (zeropage),y   A:0 X:FF Y:5D P:24 SP:FF
5511 C7BB            DEY 88        implied   A:0 X:FF Y:5D P:24 SP:FF
5514 C7BC            BNE D0      immediate   A:0 X:FF Y:5C P:24 SP:FF
5517 C7B9            STA 91   (zeropage),y   A:0 X:FF Y:5C P:24 SP:FF
5524 C7BB            DEY 88        implied   A:0 X:FF Y:5C P:24 SP:FF
5527 C7BC            BNE D0      immediate   A:0 X:FF Y:5B P:24 SP:FF
5530 C7B9            STA 91   (zeropage),y   A:0 X:FF Y:5B P:24 SP:FF
5537 C7BB            DEY 88        implied   A:0 X:FF Y:5B P:24 SP:FF
5540 C7BC            BNE D0      immediate   A:0 X:FF Y:5A P:24 SP:FF
5543 C7B9            STA 91   (zeropage),y   A:0 X:FF Y:5A P:24 SP:FF
5550 C7BB            DEY 88        implied   A:0 X:FF Y:5A P:24 SP:FF
5553 C7BC            BNE D0      immediate   A:0 X:FF Y:59 P:24 SP:FF
5556 C7B9            STA 91   (zeropage),y   A:0 X:FF Y:59 P:24 SP:FF
5563 C7BB            DEY 88        implied   A:0 X:FF Y:59 P:24 SP:FF
5566 C7BC            BNE D0      immediate   A:0 X:FF Y:58 P:24 SP:FF
5569 C7B9            STA 91   (zeropage),y   A:0 X:FF Y:58 P:24 SP:FF
5576 C7BB            DEY 88        implied   A:0 X:FF Y:58 P:24 SP:FF
5579 C7BC            BNE D0      immediate   A:0 X:FF Y:57 P:24 SP:FF
5582 C7B9            STA 91   (zeropage),y   A:0 X:FF Y:57 P:24 SP:FF
5589 C7BB            DEY 88        implied   A:0 X:FF Y:57 P:24 SP:FF
5592 C7BC            BNE D0      immediate   A:0 X:FF Y:56 P:24 SP:FF
5595 C7B9            STA 91   (zeropage),y   A:0 X:FF Y:56 P:24 SP:FF
5602 C7BB            DEY 88        implied   A:0 X:FF Y:56 P:24 SP:FF
5605 C7BC            BNE D0      immediate   A:0 X:FF Y:55 P:24 SP:FF
5608 C7B9            STA 91   (zeropage),y   A:0 X:FF Y:55 P:24 SP:FF
5615 C7BB            DEY 88        implied   A:0 X:FF Y:55 P:24 SP:FF
5618 C7BC            BNE D0      immediate   A:0 X:FF Y:54 P:24 SP:FF
5621 C7B9            STA 91   (zeropage),y   A:0 X:FF Y:54 P:24 SP:FF
5628 C7BB            DEY 88        implied   A:0 X:FF Y:54 P:24 SP:FF
5631 C7BC            BNE D0      immediate   A:0 X:FF Y:53 P:24 SP:FF
5634 C7B9            STA 91   (zeropage),y   A:0 X:FF Y:53 P:24 SP:FF
5641 C7BB            DEY 88        implied   A:0 X:FF Y:53 P:24 SP:FF
5644 C7BC            BNE D0      immediate   A:0 X:FF Y:52 P:24 SP:FF
5647 C7B9            STA 91   (zeropage),y   A:0 X:FF Y:52 P:24 SP:FF
5654 C7BB            DEY 88        implied   A:0 X:FF Y:52 P:24 SP:FF
5657 C7BC            BNE D0      immediate   A:0 X:FF Y:51 P:24 SP:FF
5660 C7B9            STA 91   (zeropage),y   A:0 X:FF Y:51 P:24 SP:FF
5667 C7BB            DEY 88        implied   A:0 X:FF Y:51 P:24 SP:FF
5670 C7BC            BNE D0      immediate   A:0 X:FF Y:50 P:24 SP:FF
5673 C7B9            STA 91   (zeropage),y   A:0 X:FF Y:50 P:24 SP:FF
5680 C7BB            DEY 88        implied   A:0 X:FF Y:50 P:24 SP:FF
5683 C7BC            BNE D0      immediate   A:0 X:FF Y:4F P:24 SP:FF
5686 C7B9            STA 91   (zeropage),y   A:0 X:FF Y:4F P:24 SP:FF
5693 C7BB            DEY 88        implied   A:0 X:FF Y:4F P:24 SP:FF
5696 C7BC            BNE D0      immediate   A:0 X:FF Y:4E P:24 SP:FF
5699 C7B9            STA 91   (zeropage),y   A:0 X:FF Y:4E P:24 SP:FF
5706 C7BB            DEY 88        implied   A:0 X:FF Y:4E P:24 SP:FF
5709 C7BC            BNE D0      immediate   A:0 X:FF Y:4D P:24 SP:FF
5712 C7B9            STA 91   (zeropage),y   A:0 X:FF Y:4D P:24 SP:FF
5719 C7BB            DEY 88        implied   A:0 X:FF Y:4D P:24 SP:FF
5722 C7BC            BNE D0      immediate   A:0 X:FF Y:4C P:24 SP:FF
5725 C7B9            STA 91   (zeropage),y   A:0 X:FF Y:4C P:24 SP:FF
5732 C7BB            DEY 88        implied   A:0 X:FF Y:4C P:24 SP:FF
5735 C7BC            BNE D0      immediate   A:0 X:FF Y:4B P:24 SP:FF
5738 C7B9            STA 91   (zeropage),y   A:0 X:FF Y:4B P:24 SP:FF
5745 C7BB            DEY 88        implied   A:0 X:FF Y:4B P:24 SP:FF
5748 C7BC            BNE D0      immediate   A:0 X:FF Y:4A P:24 SP:FF
5751 C7B9            STA 91   (zeropage),y   A:0 X:FF Y:4A P:24 SP:FF
5758 C7BB            DEY 88        implied   A:0 X:FF Y:4A P:24 SP:FF
5761 C7BC            BNE D0      immediate   A:0 X:FF Y:49 P:24 SP:FF
5764 C7B9            STA 91   (zeropage),y   A:0 X:FF Y:49 P:24 SP:FF
5771 C7BB            DEY 88        implied   A:0 X:FF Y:49 P:24 SP:FF
5774 C7BC            BNE D0      immediate   A:0 X:FF Y:48 P:24 SP:FF
5777 C7B9            STA 91   (zeropage),y   A:0 X:FF Y:48 P:24 SP:FF
5784 C7BB            DEY 88        implied   A:0 X:FF Y:48 P:24 SP:FF
5787 C7BC            BNE D0      immediate   A:0 X:FF Y:47 P:24 SP:FF
5790 C7B9            STA 91   (zeropage),y   A:0 X:FF Y:47 P:24 SP:FF
5797 C7BB            DEY 88        implied   A:0 X:FF Y:47 P:24 SP:FF
5800 C7BC            BNE D0      immediate   A:0 X:FF Y:46 P:24 SP:FF
5803 C7B9            STA 91   (zeropage),y   A:0 X:FF Y:46 P:24 SP:FF
5810 C7BB            DEY 88        implied   A:0 X:FF Y:46 P:24 SP:FF
5813 C7BC            BNE D0      immediate   A:0 X:FF Y:45 P:24 SP:FF
5816 C7B9            STA 91   (zeropage),y   A:0 X:FF Y:45 P:24 SP:FF
5823 C7BB            DEY 88        implied   A:0 X:FF Y:45 P:24 SP:FF
5826 C7BC            BNE D0      immediate   A:0 X:FF Y:44 P:24 SP:FF
5829 C7B9            STA 91   (zeropage),y   A:0 X:FF Y:44 P:24 SP:FF
5836 C7BB            DEY 88        implied   A:0 X:FF Y:44 P:24 SP:FF
5839 C7BC            BNE D0      immediate   A:0 X:FF Y:43 P:24 SP:FF
5842 C7B9            STA 91   (zeropage),y   A:0 X:FF Y:43 P:24 SP:FF
5849 C7BB            DEY 88        implied   A:0 X:FF Y:43 P:24 SP:FF
5852 C7BC            BNE D0      immediate   A:0 X:FF Y:42 P:24 SP:FF
5855 C7B9            STA 91   (zeropage),y   A:0 X:FF Y:42 P:24 SP:FF
5862 C7BB            DEY 88        implied   A:0 X:FF Y:42 P:24 SP:FF
5865 C7BC            BNE D0      immediate   A:0 X:FF Y:41 P:24 SP:FF
5868 C7B9            STA 91   (zeropage),y   A:0 X:FF Y:41 P:24 SP:FF
5875 C7BB            DEY 88        implied   A:0 X:FF Y:41 P:24 SP:FF
5878 C7BC            BNE D0      immediate   A:0 X:FF Y:40 P:24 SP:FF
5881 C7B9            STA 91   (zeropage),y   A:0 X:FF Y:40 P:24 SP:FF
5888 C7BB            DEY 88        implied   A:0 X:FF Y:40 P:24 SP:FF
5891 C7BC            BNE D0      immediate   A:0 X:FF Y:3F P:24 SP:FF
5894 C7B9            STA 91   (zeropage),y   A:0 X:FF Y:3F P:24 SP:FF
5901 C7BB            DEY 88        implied   A:0 X:FF Y:3F P:24 SP:FF
5904 C7BC            BNE D0      immediate   A:0 X:FF Y:3E P:24 SP:FF
5907 C7B9            STA 91   (zeropage),y   A:0 X:FF Y:3E P:24 SP:FF
5914 C7BB            DEY 88        implied   A:0 X:FF Y:3E P:24 SP:FF
5917 C7BC            BNE D0      immediate   A:0 X:FF Y:3D P:24 SP:FF
5920 C7B9            STA 91   (zeropage),y   A:0 X:FF Y:3D P:24 SP:FF
5927 C7BB            DEY 88        implied   A:0 X:FF Y:3D P:24 SP:FF
5930 C7BC            BNE D0      immediate   A:0 X:FF Y:3C P:24 SP:FF
5933 C7B9            STA 91   (zeropage),y   A:0 X:FF Y:3C P:24 SP:FF
5940 C7BB            DEY 88        implied   A:0 X:FF Y:3C P:24 SP:FF
5943 C7BC            BNE D0      immediate   A:0 X:FF Y:3B P:24 SP:FF
5946 C7B9            STA 91   (zeropage),y   A:0 X:FF Y:3B P:24 SP:FF
5953 C7BB            DEY 88        implied   A:0 X:FF Y:3B P:24 SP:FF
5956 C7BC            BNE D0      immediate   A:0 X:FF Y:3A P:24 SP:FF
5959 C7B9            STA 91   (zeropage),y   A:0 X:FF Y:3A P:24 SP:FF
5966 C7BB            DEY 88        implied   A:0 X:FF Y:3A P:24 SP:FF
5969 C7BC            BNE D0      immediate   A:0 X:FF Y:39 P:24 SP:FF
5972 C7B9            STA 91   (zeropage),y   A:0 X:FF Y:39 P:24 SP:FF
5979 C7BB            DEY 88        implied   A:0 X:FF Y:39 P:24 SP:FF
5982 C7BC            BNE D0      immediate   A:0 X:FF Y:38 P:24 SP:FF
5985 C7B9            STA 91   (zeropage),y   A:0 X:FF Y:38 P:24 SP:FF
5992 C7BB            DEY 88        implied   A:0 X:FF Y:38 P:24 SP:FF
5995 C7BC            BNE D0      immediate   A:0 X:FF Y:37 P:24 SP:FF
5998 C7B9            STA 91   (zeropage),y   A:0 X:FF Y:37 P:24 SP:FF
6005 C7BB            DEY 88        implied   A:0 X:FF Y:37 P:24 SP:FF
6008 C7BC            BNE D0      immediate   A:0 X:FF Y:36 P:24 SP:FF
6011 C7B9            STA 91   (zeropage),y   A:0 X:FF Y:36 P:24 SP:FF
6018 C7BB            DEY 88        implied   A:0 X:FF Y:36 P:24 SP:FF
6021 C7BC            BNE D0      immediate   A:0 X:FF Y:35 P:24 SP:FF
6024 C7B9            STA 91   (zeropage),y   A:0 X:FF Y:35 P:24 SP:FF
6031 C7BB            DEY 88        implied   A:0 X:FF Y:35 P:24 SP:FF
6034 C7BC            BNE D0      immediate   A:0 X:FF Y:34 P:24 SP:FF
6037 C7B9            STA 91   (zeropage),y   A:0 X:FF Y:34 P:24 SP:FF
6044 C7BB            DEY 88        implied   A:0 X:FF Y:34 P:24 SP:FF
6047 C7BC            BNE D0      immediate   A:0 X:FF Y:33 P:24 SP:FF
6050 C7B9            STA 91   (zeropage),y   A:0 X:FF Y:33 P:24 SP:FF
6057 C7BB            DEY 88        implied   A:0 X:FF Y:33 P:24 SP:FF
6060 C7BC            BNE D0      immediate   A:0 X:FF Y:32 P:24 SP:FF
6063 C7B9            STA 91   (zeropage),y   A:0 X:FF Y:32 P:24 SP:FF
6070 C7BB            DEY 88        implied   A:0 X:FF Y:32 P:24 SP:FF
6073 C7BC            BNE D0      immediate   A:0 X:FF Y:31 P:24 SP:FF
6076 C7B9            STA 91   (zeropage),y   A:0 X:FF Y:31 P:24 SP:FF
6083 C7BB            DEY 88        implied   A:0 X:FF Y:31 P:24 SP:FF
6086 C7BC            BNE D0      immediate   A:0 X:FF Y:30 P:24 SP:FF
6089 C7B9            STA 91   (zeropage),y   A:0 X:FF Y:30 P:24 SP:FF
6096 C7BB            DEY 88        implied   A:0 X:FF Y:30 P:24 SP:FF
6099 C7BC            BNE D0      immediate   A:0 X:FF Y:2F P:24 SP:FF
6102 C7B9            STA 91   (zeropage),y   A:0 X:FF Y:2F P:24 SP:FF
6109 C7BB            DEY 88        implied   A:0 X:FF Y:2F P:24 SP:FF
6112 C7BC            BNE D0      immediate   A:0 X:FF Y:2E P:24 SP:FF
6115 C7B9            STA 91   (zeropage),y   A:0 X:FF Y:2E P:24 SP:FF
6122 C7BB            DEY 88        implied   A:0 X:FF Y:2E P:24 SP:FF
6125 C7BC            BNE D0      immediate   A:0 X:FF Y:2D P:24 SP:FF
6128 C7B9            STA 91   (zeropage),y   A:0 X:FF Y:2D P:24 SP:FF
6135 C7BB            DEY 88        implied   A:0 X:FF Y:2D P:24 SP:FF
6138 C7BC            BNE D0      immediate   A:0 X:FF Y:2C P:24 SP:FF
6141 C7B9            STA 91   (zeropage),y   A:0 X:FF Y:2C P:24 SP:FF
6148 C7BB            DEY 88        implied   A:0 X:FF Y:2C P:24 SP:FF
6151 C7BC            BNE D0      immediate   A:0 X:FF Y:2B P:24 SP:FF
6154 C7B9            STA 91   (zeropage),y   A:0 X:FF Y:2B P:24 SP:FF
6161 C7BB            DEY 88        implied   A:0 X:FF Y:2B P:24 SP:FF
6164 C7BC            BNE D0      immediate   A:0 X:FF Y:2A P:24 SP:FF
6167 C7B9            STA 91   (zeropage),y   A:0 X:FF Y:2A P:24 SP:FF
6174 C7BB            DEY 88        implied   A:0 X:FF Y:2A P:24 SP:FF
6177 C7BC            BNE D0      immediate   A:0 X:FF Y:29 P:24 SP:FF
6180 C7B9            STA 91   (zeropage),y   A:0 X:FF Y:29 P:24 SP:FF
6187 C7BB            DEY 88        implied   A:0 X:FF Y:29 P:24 SP:FF
6190 C7BC            BNE D0      immediate   A:0 X:FF Y:28 P:24 SP:FF
6193 C7B9            STA 91   (zeropage),y   A:0 X:FF Y:28 P:24 SP:FF
6200 C7BB            DEY 88        implied   A:0 X:FF Y:28 P:24 SP:FF
6203 C7BC            BNE D0      immediate   A:0 X:FF Y:27 P:24 SP:FF
6206 C7B9            STA 91   (zeropage),y   A:0 X:FF Y:27 P:24 SP:FF
6213 C7BB            DEY 88        implied   A:0 X:FF Y:27 P:24 SP:FF
6216 C7BC            BNE D0      immediate   A:0 X:FF Y:26 P:24 SP:FF
6219 C7B9            STA 91   (zeropage),y   A:0 X:FF Y:26 P:24 SP:FF
6226 C7BB            DEY 88        implied   A:0 X:FF Y:26 P:24 SP:FF
6229 C7BC            BNE D0      immediate   A:0 X:FF Y:25 P:24 SP:FF
6232 C7B9            STA 91   (zeropage),y   A:0 X:FF Y:25 P:24 SP:FF
6239 C7BB            DEY 88        implied   A:0 X:FF Y:25 P:24 SP:FF
6242 C7BC            BNE D0      immediate   A:0 X:FF Y:24 P:24 SP:FF
6245 C7B9            STA 91   (zeropage),y   A:0 X:FF Y:24 P:24 SP:FF
6252 C7BB            DEY 88        implied   A:0 X:FF Y:24 P:24 SP:FF
6255 C7BC            BNE D0      immediate   A:0 X:FF Y:23 P:24 SP:FF
6258 C7B9            STA 91   (zeropage),y   A:0 X:FF Y:23 P:24 SP:FF
6265 C7BB            DEY 88        implied   A:0 X:FF Y:23 P:24 SP:FF
6268 C7BC            BNE D0      immediate   A:0 X:FF Y:22 P:24 SP:FF
6271 C7B9            STA 91   (zeropage),y   A:0 X:FF Y:22 P:24 SP:FF
6278 C7BB            DEY 88        implied   A:0 X:FF Y:22 P:24 SP:FF
6281 C7BC            BNE D0      immediate   A:0 X:FF Y:21 P:24 SP:FF
6284 C7B9            STA 91   (zeropage),y   A:0 X:FF Y:21 P:24 SP:FF
6291 C7BB            DEY 88        implied   A:0 X:FF Y:21 P:24 SP:FF
6294 C7BC            BNE D0      immediate   A:0 X:FF Y:20 P:24 SP:FF
6297 C7B9            STA 91   (zeropage),y   A:0 X:FF Y:20 P:24 SP:FF
6304 C7BB            DEY 88        implied   A:0 X:FF Y:20 P:24 SP:FF
6307 C7BC            BNE D0      immediate   A:0 X:FF Y:1F P:24 SP:FF
6310 C7B9            STA 91   (zeropage),y   A:0 X:FF Y:1F P:24 SP:FF
6317 C7BB            DEY 88        implied   A:0 X:FF Y:1F P:24 SP:FF
6320 C7BC            BNE D0      immediate   A:0 X:FF Y:1E P:24 SP:FF
6323 C7B9            STA 91   (zeropage),y   A:0 X:FF Y:1E P:24 SP:FF
6330 C7BB            DEY 88        implied   A:0 X:FF Y:1E P:24 SP:FF
6333 C7BC            BNE D0      immediate   A:0 X:FF Y:1D P:24 SP:FF
6336 C7B9            STA 91   (zeropage),y   A:0 X:FF Y:1D P:24 SP:FF
6343 C7BB            DEY 88        implied   A:0 X:FF Y:1D P:24 SP:FF
6346 C7BC            BNE D0      immediate   A:0 X:FF Y:1C P:24 SP:FF
6349 C7B9            STA 91   (zeropage),y   A:0 X:FF Y:1C P:24 SP:FF
6356 C7BB            DEY 88        implied   A:0 X:FF Y:1C P:24 SP:FF
6359 C7BC            BNE D0      immediate   A:0 X:FF Y:1B P:24 SP:FF
6362 C7B9            STA 91   (zeropage),y   A:0 X:FF Y:1B P:24 SP:FF
6369 C7BB            DEY 88        implied   A:0 X:FF Y:1B P:24 SP:FF
6372 C7BC            BNE D0      immediate   A:0 X:FF Y:1A P:24 SP:FF
6375 C7B9            STA 91   (zeropage),y   A:0 X:FF Y:1A P:24 SP:FF
6382 C7BB            DEY 88        implied   A:0 X:FF Y:1A P:24 SP:FF
6385 C7BC            BNE D0      immediate   A:0 X:FF Y:19 P:24 SP:FF
6388 C7B9            STA 91   (zeropage),y   A:0 X:FF Y:19 P:24 SP:FF
6395 C7BB            DEY 88        implied   A:0 X:FF Y:19 P:24 SP:FF
6398 C7BC            BNE D0      immediate   A:0 X:FF Y:18 P:24 SP:FF
6401 C7B9            STA 91   (zeropage),y   A:0 X:FF Y:18 P:24 SP:FF
6408 C7BB            DEY 88        implied   A:0 X:FF Y:18 P:24 SP:FF
6411 C7BC            BNE D0      immediate   A:0 X:FF Y:17 P:24 SP:FF
6414 C7B9            STA 91   (zeropage),y   A:0 X:FF Y:17 P:24 SP:FF
6421 C7BB            DEY 88        implied   A:0 X:FF Y:17 P:24 SP:FF
6424 C7BC            BNE D0      immediate   A:0 X:FF Y:16 P:24 SP:FF
6427 C7B9            STA 91   (zeropage),y   A:0 X:FF Y:16 P:24 SP:FF
6434 C7BB            DEY 88        implied   A:0 X:FF Y:16 P:24 SP:FF
6437 C7BC            BNE D0      immediate   A:0 X:FF Y:15 P:24 SP:FF
6440 C7B9            STA 91   (zeropage),y   A:0 X:FF Y:15 P:24 SP:FF
6447 C7BB            DEY 88        implied   A:0 X:FF Y:15 P:24 SP:FF
6450 C7BC            BNE D0      immediate   A:0 X:FF Y:14 P:24 SP:FF
6453 C7B9            STA 91   (zeropage),y   A:0 X:FF Y:14 P:24 SP:FF
6460 C7BB            DEY 88        implied   A:0 X:FF Y:14 P:24 SP:FF
6463 C7BC            BNE D0      immediate   A:0 X:FF Y:13 P:24 SP:FF
6466 C7B9            STA 91   (zeropage),y   A:0 X:FF Y:13 P:24 SP:FF
6473 C7BB            DEY 88        implied   A:0 X:FF Y:13 P:24 SP:FF
6476 C7BC            BNE D0      immediate   A:0 X:FF Y:12 P:24 SP:FF
6479 C7B9            STA 91   (zeropage),y   A:0 X:FF Y:12 P:24 SP:FF
6486 C7BB            DEY 88        implied   A:0 X:FF Y:12 P:24 SP:FF
6489 C7BC            BNE D0      immediate   A:0 X:FF Y:11 P:24 SP:FF
6492 C7B9            STA 91   (zeropage),y   A:0 X:FF Y:11 P:24 SP:FF
6499 C7BB            DEY 88        implied   A:0 X:FF Y:11 P:24 SP:FF
6502 C7BC            BNE D0      immediate   A:0 X:FF Y:10 P:24 SP:FF
6505 C7B9            STA 91   (zeropage),y   A:0 X:FF Y:10 P:24 SP:FF
6512 C7BB            DEY 88        implied   A:0 X:FF Y:10 P:24 SP:FF
6515 C7BC            BNE D0      immediate   A:0 X:FF Y:F P:24 SP:FF
6518 C7B9            STA 91   (zeropage),y   A:0 X:FF Y:F P:24 SP:FF
6525 C7BB            DEY 88        implied   A:0 X:FF Y:F P:24 SP:FF
6528 C7BC            BNE D0      immediate   A:0 X:FF Y:E P:24 SP:FF
6531 C7B9            STA 91   (zeropage),y   A:0 X:FF Y:E P:24 SP:FF
6538 C7BB            DEY 88        implied   A:0 X:FF Y:E P:24 SP:FF
6541 C7BC            BNE D0      immediate   A:0 X:FF Y:D P:24 SP:FF
6544 C7B9            STA 91   (zeropage),y   A:0 X:FF Y:D P:24 SP:FF
6551 C7BB            DEY 88        implied   A:0 X:FF Y:D P:24 SP:FF
6554 C7BC            BNE D0      immediate   A:0 X:FF Y:C P:24 SP:FF
6557 C7B9            STA 91   (zeropage),y   A:0 X:FF Y:C P:24 SP:FF
6564 C7BB            DEY 88        implied   A:0 X:FF Y:C P:24 SP:FF
6567 C7BC            BNE D0      immediate   A:0 X:FF Y:B P:24 SP:FF
6570 C7B9            STA 91   (zeropage),y   A:0 X:FF Y:B P:24 SP:FF
6577 C7BB            DEY 88        implied   A:0 X:FF Y:B P:24 SP:FF
6580 C7BC            BNE D0      immediate   A:0 X:FF Y:A P:24 SP:FF
6583 C7B9            STA 91   (zeropage),y   A:0 X:FF Y:A P:24 SP:FF
6590 C7BB            DEY 88        implied   A:0 X:FF Y:A P:24 SP:FF
6593 C7BC            BNE D0      immediate   A:0 X:FF Y:9 P:24 SP:FF
6596 C7B9            STA 91   (zeropage),y   A:0 X:FF Y:9 P:24 SP:FF
6603 C7BB            DEY 88        implied   A:0 X:FF Y:9 P:24 SP:FF
6606 C7BC            BNE D0      immediate   A:0 X:FF Y:8 P:24 SP:FF
6609 C7B9            STA 91   (zeropage),y   A:0 X:FF Y:8 P:24 SP:FF
6616 C7BB            DEY 88        implied   A:0 X:FF Y:8 P:24 SP:FF
6619 C7BC            BNE D0      immediate   A:0 X:FF Y:7 P:24 SP:FF
6622 C7B9            STA 91   (zeropage),y   A:0 X:FF Y:7 P:24 SP:FF
6629 C7BB            DEY 88        implied   A:0 X:FF Y:7 P:24 SP:FF
6632 C7BC            BNE D0      immediate   A:0 X:FF Y:6 P:24 SP:FF
6635 C7B9            STA 91   (zeropage),y   A:0 X:FF Y:6 P:24 SP:FF
6642 C7BB            DEY 88        implied   A:0 X:FF Y:6 P:24 SP:FF
6645 C7BC            BNE D0      immediate   A:0 X:FF Y:5 P:24 SP:FF
6648 C7B9            STA 91   (zeropage),y   A:0 X:FF Y:5 P:24 SP:FF
6655 C7BB            DEY 88        implied   A:0 X:FF Y:5 P:24 SP:FF
6658 C7BC            BNE D0      immediate   A:0 X:FF Y:4 P:24 SP:FF
6661 C7B9            STA 91   (zeropage),y   A:0 X:FF Y:4 P:24 SP:FF
6668 C7BB            DEY 88        implied   A:0 X:FF Y:4 P:24 SP:FF
6671 C7BC            BNE D0      immediate   A:0 X:FF Y:3 P:24 SP:FF
6674 C7B9            STA 91   (zeropage),y   A:0 X:FF Y:3 P:24 SP:FF
6681 C7BB            DEY 88        implied   A:0 X:FF Y:3 P:24 SP:FF
6684 C7BC            BNE D0      immediate   A:0 X:FF Y:2 P:24 SP:FF
6687 C7B9            STA 91   (zeropage),y   A:0 X:FF Y:2 P:24 SP:FF
6694 C7BB            DEY 88        implied   A:0 X:FF Y:2 P:24 SP:FF
6697 C7BC            BNE D0      immediate   A:0 X:FF Y:1 P:24 SP:FF
6700 C7B9            STA 91   (zeropage),y   A:0 X:FF Y:1 P:24 SP:FF
6707 C7BB            DEY 88        implied   A:0 X:FF Y:1 P:24 SP:FF
6710 C7BC            BNE D0      immediate   A:0 X:FF Y:0 P:26 SP:FF
6713 C7BE            DEC C6       zeropage   A:0 X:FF Y:0 P:26 SP:FF
6719 C7C0            BPL 10      immediate   A:0 X:FF Y:0 P:24 SP:FF
6722 C7B9            STA 91   (zeropage),y   A:0 X:FF Y:0 P:24 SP:FF
6729 C7BB            DEY 88        implied   A:0 X:FF Y:0 P:24 SP:FF
6732 C7BC            BNE D0      immediate   A:0 X:FF Y:FF P:A4 SP:FF
6735 C7B9            STA 91   (zeropage),y   A:0 X:FF Y:FF P:A4 SP:FF
6742 C7BB            DEY 88        implied   A:0 X:FF Y:FF P:A4 SP:FF
6745 C7BC            BNE D0      immediate   A:0 X:FF Y:FE P:A4 SP:FF
6748 C7B9            STA 91   (zeropage),y   A:0 X:FF Y:FE P:A4 SP:FF
6755 C7BB            DEY 88        implied   A:0 X:FF Y:FE P:A4 SP:FF
6758 C7BC            BNE D0      immediate   A:0 X:FF Y:FD P:A4 SP:FF
6761 C7B9            STA 91   (zeropage),y   A:0 X:FF Y:FD P:A4 SP:FF
6768 C7BB            DEY 88        implied   A:0 X:FF Y:FD P:A4 SP:FF
6771 C7BC            BNE D0      immediate   A:0 X:FF Y:FC P:A4 SP:FF
6774 C7B9            STA 91   (zeropage),y   A:0 X:FF Y:FC P:A4 SP:FF
6781 C7BB            DEY 88        implied   A:0 X:FF Y:FC P:A4 SP:FF
6784 C7BC            BNE D0      immediate   A:0 X:FF Y:FB P:A4 SP:FF
6787 C7B9            STA 91   (zeropage),y   A:0 X:FF Y:FB P:A4 SP:FF
6794 C7BB            DEY 88        implied   A:0 X:FF Y:FB P:A4 SP:FF
6797 C7BC            BNE D0      immediate   A:0 X:FF Y:FA P:A4 SP:FF
6800 C7B9            STA 91   (zeropage),y   A:0 X:FF Y:FA P:A4 SP:FF
6807 C7BB            DEY 88        implied   A:0 X:FF Y:FA P:A4 SP:FF
6810 C7BC            BNE D0      immediate   A:0 X:FF Y:F9 P:A4 SP:FF
6813 C7B9            STA 91   (zeropage),y   A:0 X:FF Y:F9 P:A4 SP:FF
6820 C7BB            DEY 88        implied   A:0 X:FF Y:F9 P:A4 SP:FF
6823 C7BC            BNE D0      immediate   A:0 X:FF Y:F8 P:A4 SP:FF
6826 C7B9            STA 91   (zeropage),y   A:0 X:FF Y:F8 P:A4 SP:FF
6833 C7BB            DEY 88        implied   A:0 X:FF Y:F8 P:A4 SP:FF
6836 C7BC            BNE D0      immediate   A:0 X:FF Y:F7 P:A4 SP:FF
6839 C7B9            STA 91   (zeropage),y   A:0 X:FF Y:F7 P:A4 SP:FF
6846 C7BB            DEY 88        implied   A:0 X:FF Y:F7 P:A4 SP:FF
6849 C7BC            BNE D0      immediate   A:0 X:FF Y:F6 P:A4 SP:FF
6852 C7B9            STA 91   (zeropage),y   A:0 X:FF Y:F6 P:A4 SP:FF
6859 C7BB            DEY 88        implied   A:0 X:FF Y:F6 P:A4 SP:FF
6862 C7BC            BNE D0      immediate   A:0 X:FF Y:F5 P:A4 SP:FF
6865 C7B9            STA 91   (zeropage),y   A:0 X:FF Y:F5 P:A4 SP:FF
6872 C7BB            DEY 88        implied   A:0 X:FF Y:F5 P:A4 SP:FF
6875 C7BC            BNE D0      immediate   A:0 X:FF Y:F4 P:A4 SP:FF
6878 C7B9            STA 91   (zeropage),y   A:0 X:FF Y:F4 P:A4 SP:FF
6885 C7BB            DEY 88        implied   A:0 X:FF Y:F4 P:A4 SP:FF
6888 C7BC            BNE D0      immediate   A:0 X:FF Y:F3 P:A4 SP:FF
6891 C7B9            STA 91   (zeropage),y   A:0 X:FF Y:F3 P:A4 SP:FF
6898 C7BB            DEY 88        implied   A:0 X:FF Y:F3 P:A4 SP:FF
6901 C7BC            BNE D0      immediate   A:0 X:FF Y:F2 P:A4 SP:FF
6904 C7B9            STA 91   (zeropage),y   A:0 X:FF Y:F2 P:A4 SP:FF
6911 C7BB            DEY 88        implied   A:0 X:FF Y:F2 P:A4 SP:FF
6914 C7BC            BNE D0      immediate   A:0 X:FF Y:F1 P:A4 SP:FF
6917 C7B9            STA 91   (zeropage),y   A:0 X:FF Y:F1 P:A4 SP:FF
6924 C7BB            DEY 88        implied   A:0 X:FF Y:F1 P:A4 SP:FF
6927 C7BC            BNE D0      immediate   A:0 X:FF Y:F0 P:A4 SP:FF
6930 C7B9            STA 91   (zeropage),y   A:0 X:FF Y:F0 P:A4 SP:FF
6937 C7BB            DEY 88        implied   A:0 X:FF Y:F0 P:A4 SP:FF
6940 C7BC            BNE D0      immediate   A:0 X:FF Y:EF P:A4 SP:FF
6943 C7B9            STA 91   (zeropage),y   A:0 X:FF Y:EF P:A4 SP:FF
6950 C7BB            DEY 88        implied   A:0 X:FF Y:EF P:A4 SP:FF
6953 C7BC            BNE D0      immediate   A:0 X:FF Y:EE P:A4 SP:FF
6956 C7B9            STA 91   (zeropage),y   A:0 X:FF Y:EE P:A4 SP:FF
6963 C7BB            DEY 88        implied   A:0 X:FF Y:EE P:A4 SP:FF
6966 C7BC            BNE D0      immediate   A:0 X:FF Y:ED P:A4 SP:FF
6969 C7B9            STA 91   (zeropage),y   A:0 X:FF Y:ED P:A4 SP:FF
6976 C7BB            DEY 88        implied   A:0 X:FF Y:ED P:A4 SP:FF
6979 C7BC            BNE D0      immediate   A:0 X:FF Y:EC P:A4 SP:FF
6982 C7B9            STA 91   (zeropage),y   A:0 X:FF Y:EC P:A4 SP:FF
6989 C7BB            DEY 88        implied   A:0 X:FF Y:EC P:A4 SP:FF
6992 C7BC            BNE D0      immediate   A:0 X:FF Y:EB P:A4 SP:FF
6995 C7B9            STA 91   (zeropage),y   A:0 X:FF Y:EB P:A4 SP:FF
7002 C7BB            DEY 88        implied   A:0 X:FF Y:EB P:A4 SP:FF
7005 C7BC            BNE D0      immediate   A:0 X:FF Y:EA P:A4 SP:FF
7008 C7B9            STA 91   (zeropage),y   A:0 X:FF Y:EA P:A4 SP:FF
7015 C7BB            DEY 88        implied   A:0 X:FF Y:EA P:A4 SP:FF
7018 C7BC            BNE D0      immediate   A:0 X:FF Y:E9 P:A4 SP:FF
7021 C7B9            STA 91   (zeropage),y   A:0 X:FF Y:E9 P:A4 SP:FF
7028 C7BB            DEY 88        implied   A:0 X:FF Y:E9 P:A4 SP:FF
7031 C7BC            BNE D0      immediate   A:0 X:FF Y:E8 P:A4 SP:FF
7034 C7B9            STA 91   (zeropage),y   A:0 X:FF Y:E8 P:A4 SP:FF
7041 C7BB            DEY 88        implied   A:0 X:FF Y:E8 P:A4 SP:FF
7044 C7BC            BNE D0      immediate   A:0 X:FF Y:E7 P:A4 SP:FF
7047 C7B9            STA 91   (zeropage),y   A:0 X:FF Y:E7 P:A4 SP:FF
7054 C7BB            DEY 88        implied   A:0 X:FF Y:E7 P:A4 SP:FF
7057 C7BC            BNE D0      immediate   A:0 X:FF Y:E6 P:A4 SP:FF
7060 C7B9            STA 91   (zeropage),y   A:0 X:FF Y:E6 P:A4 SP:FF
7067 C7BB            DEY 88        implied   A:0 X:FF Y:E6 P:A4 SP:FF
7070 C7BC            BNE D0      immediate   A:0 X:FF Y:E5 P:A4 SP:FF
7073 C7B9            STA 91   (zeropage),y   A:0 X:FF Y:E5 P:A4 SP:FF
7080 C7BB            DEY 88        implied   A:0 X:FF Y:E5 P:A4 SP:FF
7083 C7BC            BNE D0      immediate   A:0 X:FF Y:E4 P:A4 SP:FF
7086 C7B9            STA 91   (zeropage),y   A:0 X:FF Y:E4 P:A4 SP:FF
7093 C7BB            DEY 88        implied   A:0 X:FF Y:E4 P:A4 SP:FF
7096 C7BC            BNE D0      immediate   A:0 X:FF Y:E3 P:A4 SP:FF
7099 C7B9            STA 91   (zeropage),y   A:0 X:FF Y:E3 P:A4 SP:FF
7106 C7BB            DEY 88        implied   A:0 X:FF Y:E3 P:A4 SP:FF
7109 C7BC            BNE D0      immediate   A:0 X:FF Y:E2 P:A4 SP:FF
7112 C7B9            STA 91   (zeropage),y   A:0 X:FF Y:E2 P:A4 SP:FF
7119 C7BB            DEY 88        implied   A:0 X:FF Y:E2 P:A4 SP:FF
7122 C7BC            BNE D0      immediate   A:0 X:FF Y:E1 P:A4 SP:FF
7125 C7B9            STA 91   (zeropage),y   A:0 X:FF Y:E1 P:A4 SP:FF
7132 C7BB            DEY 88        implied   A:0 X:FF Y:E1 P:A4 SP:FF
7135 C7BC            BNE D0      immediate   A:0 X:FF Y:E0 P:A4 SP:FF
7138 C7B9            STA 91   (zeropage),y   A:0 X:FF Y:E0 P:A4 SP:FF
7145 C7BB            DEY 88        implied   A:0 X:FF Y:E0 P:A4 SP:FF
7148 C7BC            BNE D0      immediate   A:0 X:FF Y:DF P:A4 SP:FF
7151 C7B9            STA 91   (zeropage),y   A:0 X:FF Y:DF P:A4 SP:FF
7158 C7BB            DEY 88        implied   A:0 X:FF Y:DF P:A4 SP:FF
7161 C7BC            BNE D0      immediate   A:0 X:FF Y:DE P:A4 SP:FF
7164 C7B9            STA 91   (zeropage),y   A:0 X:FF Y:DE P:A4 SP:FF
7171 C7BB            DEY 88        implied   A:0 X:FF Y:DE P:A4 SP:FF
7174 C7BC            BNE D0      immediate   A:0 X:FF Y:DD P:A4 SP:FF
7177 C7B9            STA 91   (zeropage),y   A:0 X:FF Y:DD P:A4 SP:FF
7184 C7BB            DEY 88        implied   A:0 X:FF Y:DD P:A4 SP:FF
7187 C7BC            BNE D0      immediate   A:0 X:FF Y:DC P:A4 SP:FF
7190 C7B9            STA 91   (zeropage),y   A:0 X:FF Y:DC P:A4 SP:FF
7197 C7BB            DEY 88        implied   A:0 X:FF Y:DC P:A4 SP:FF
7200 C7BC            BNE D0      immediate   A:0 X:FF Y:DB P:A4 SP:FF
7203 C7B9            STA 91   (zeropage),y   A:0 X:FF Y:DB P:A4 SP:FF
7210 C7BB            DEY 88        implied   A:0 X:FF Y:DB P:A4 SP:FF
7213 C7BC            BNE D0      immediate   A:0 X:FF Y:DA P:A4 SP:FF
7216 C7B9            STA 91   (zeropage),y   A:0 X:FF Y:DA P:A4 SP:FF
7223 C7BB            DEY 88        implied   A:0 X:FF Y:DA P:A4 SP:FF
7226 C7BC            BNE D0      immediate   A:0 X:FF Y:D9 P:A4 SP:FF
7229 C7B9            STA 91   (zeropage),y   A:0 X:FF Y:D9 P:A4 SP:FF
7236 C7BB            DEY 88        implied   A:0 X:FF Y:D9 P:A4 SP:FF
7239 C7BC            BNE D0      immediate   A:0 X:FF Y:D8 P:A4 SP:FF
7242 C7B9            STA 91   (zeropage),y   A:0 X:FF Y:D8 P:A4 SP:FF
7249 C7BB            DEY 88        implied   A:0 X:FF Y:D8 P:A4 SP:FF
7252 C7BC            BNE D0      immediate   A:0 X:FF Y:D7 P:A4 SP:FF
7255 C7B9            STA 91   (zeropage),y   A:0 X:FF Y:D7 P:A4 SP:FF
7262 C7BB            DEY 88        implied   A:0 X:FF Y:D7 P:A4 SP:FF
7265 C7BC            BNE D0      immediate   A:0 X:FF Y:D6 P:A4 SP:FF
7268 C7B9            STA 91   (zeropage),y   A:0 X:FF Y:D6 P:A4 SP:FF
7275 C7BB            DEY 88        implied   A:0 X:FF Y:D6 P:A4 SP:FF
7278 C7BC            BNE D0      immediate   A:0 X:FF Y:D5 P:A4 SP:FF
7281 C7B9            STA 91   (zeropage),y   A:0 X:FF Y:D5 P:A4 SP:FF
7288 C7BB            DEY 88        implied   A:0 X:FF Y:D5 P:A4 SP:FF
7291 C7BC            BNE D0      immediate   A:0 X:FF Y:D4 P:A4 SP:FF
7294 C7B9            STA 91   (zeropage),y   A:0 X:FF Y:D4 P:A4 SP:FF
7301 C7BB            DEY 88        implied   A:0 X:FF Y:D4 P:A4 SP:FF
7304 C7BC            BNE D0      immediate   A:0 X:FF Y:D3 P:A4 SP:FF
7307 C7B9            STA 91   (zeropage),y   A:0 X:FF Y:D3 P:A4 SP:FF
7314 C7BB            DEY 88        implied   A:0 X:FF Y:D3 P:A4 SP:FF
7317 C7BC            BNE D0      immediate   A:0 X:FF Y:D2 P:A4 SP:FF
7320 C7B9            STA 91   (zeropage),y   A:0 X:FF Y:D2 P:A4 SP:FF
7327 C7BB            DEY 88        implied   A:0 X:FF Y:D2 P:A4 SP:FF
7330 C7BC            BNE D0      immediate   A:0 X:FF Y:D1 P:A4 SP:FF
7333 C7B9            STA 91   (zeropage),y   A:0 X:FF Y:D1 P:A4 SP:FF
7340 C7BB            DEY 88        implied   A:0 X:FF Y:D1 P:A4 SP:FF
7343 C7BC            BNE D0      immediate   A:0 X:FF Y:D0 P:A4 SP:FF
7346 C7B9            STA 91   (zeropage),y   A:0 X:FF Y:D0 P:A4 SP:FF
7353 C7BB            DEY 88        implied   A:0 X:FF Y:D0 P:A4 SP:FF
7356 C7BC            BNE D0      immediate   A:0 X:FF Y:CF P:A4 SP:FF
7359 C7B9            STA 91   (zeropage),y   A:0 X:FF Y:CF P:A4 SP:FF
7366 C7BB            DEY 88        implied   A:0 X:FF Y:CF P:A4 SP:FF
7369 C7BC            BNE D0      immediate   A:0 X:FF Y:CE P:A4 SP:FF
7372 C7B9            STA 91   (zeropage),y   A:0 X:FF Y:CE P:A4 SP:FF
7379 C7BB            DEY 88        implied   A:0 X:FF Y:CE P:A4 SP:FF
7382 C7BC            BNE D0      immediate   A:0 X:FF Y:CD P:A4 SP:FF
7385 C7B9            STA 91   (zeropage),y   A:0 X:FF Y:CD P:A4 SP:FF
7392 C7BB            DEY 88        implied   A:0 X:FF Y:CD P:A4 SP:FF
7395 C7BC            BNE D0      immediate   A:0 X:FF Y:CC P:A4 SP:FF
7398 C7B9            STA 91   (zeropage),y   A:0 X:FF Y:CC P:A4 SP:FF
7405 C7BB            DEY 88        implied   A:0 X:FF Y:CC P:A4 SP:FF
7408 C7BC            BNE D0      immediate   A:0 X:FF Y:CB P:A4 SP:FF
7411 C7B9            STA 91   (zeropage),y   A:0 X:FF Y:CB P:A4 SP:FF
7418 C7BB            DEY 88        implied   A:0 X:FF Y:CB P:A4 SP:FF
7421 C7BC            BNE D0      immediate   A:0 X:FF Y:CA P:A4 SP:FF
7424 C7B9            STA 91   (zeropage),y   A:0 X:FF Y:CA P:A4 SP:FF
7431 C7BB            DEY 88        implied   A:0 X:FF Y:CA P:A4 SP:FF
7434 C7BC            BNE D0      immediate   A:0 X:FF Y:C9 P:A4 SP:FF
7437 C7B9            STA 91   (zeropage),y   A:0 X:FF Y:C9 P:A4 SP:FF
7444 C7BB            DEY 88        implied   A:0 X:FF Y:C9 P:A4 SP:FF
7447 C7BC            BNE D0      immediate   A:0 X:FF Y:C8 P:A4 SP:FF
7450 C7B9            STA 91   (zeropage),y   A:0 X:FF Y:C8 P:A4 SP:FF
7457 C7BB            DEY 88        implied   A:0 X:FF Y:C8 P:A4 SP:FF
7460 C7BC            BNE D0      immediate   A:0 X:FF Y:C7 P:A4 SP:FF
7463 C7B9            STA 91   (zeropage),y   A:0 X:FF Y:C7 P:A4 SP:FF
7470 C7BB            DEY 88        implied   A:0 X:FF Y:C7 P:A4 SP:FF
7473 C7BC            BNE D0      immediate   A:0 X:FF Y:C6 P:A4 SP:FF
7476 C7B9            STA 91   (zeropage),y   A:0 X:FF Y:C6 P:A4 SP:FF
7483 C7BB            DEY 88        implied   A:0 X:FF Y:C6 P:A4 SP:FF
7486 C7BC            BNE D0      immediate   A:0 X:FF Y:C5 P:A4 SP:FF
7489 C7B9            STA 91   (zeropage),y   A:0 X:FF Y:C5 P:A4 SP:FF
7496 C7BB            DEY 88        implied   A:0 X:FF Y:C5 P:A4 SP:FF
7499 C7BC            BNE D0      immediate   A:0 X:FF Y:C4 P:A4 SP:FF
7502 C7B9            STA 91   (zeropage),y   A:0 X:FF Y:C4 P:A4 SP:FF
7509 C7BB            DEY 88        implied   A:0 X:FF Y:C4 P:A4 SP:FF
7512 C7BC            BNE D0      immediate   A:0 X:FF Y:C3 P:A4 SP:FF
7515 C7B9            STA 91   (zeropage),y   A:0 X:FF Y:C3 P:A4 SP:FF
7522 C7BB            DEY 88        implied   A:0 X:FF Y:C3 P:A4 SP:FF
7525 C7BC            BNE D0      immediate   A:0 X:FF Y:C2 P:A4 SP:FF
7528 C7B9            STA 91   (zeropage),y   A:0 X:FF Y:C2 P:A4 SP:FF
7535 C7BB            DEY 88        implied   A:0 X:FF Y:C2 P:A4 SP:FF
7538 C7BC            BNE D0      immediate   A:0 X:FF Y:C1 P:A4 SP:FF
7541 C7B9            STA 91   (zeropage),y   A:0 X:FF Y:C1 P:A4 SP:FF
7548 C7BB            DEY 88        implied   A:0 X:FF Y:C1 P:A4 SP:FF
7551 C7BC            BNE D0      immediate   A:0 X:FF Y:C0 P:A4 SP:FF
7554 C7B9            STA 91   (zeropage),y   A:0 X:FF Y:C0 P:A4 SP:FF
7561 C7BB            DEY 88        implied   A:0 X:FF Y:C0 P:A4 SP:FF
7564 C7BC            BNE D0      immediate   A:0 X:FF Y:BF P:A4 SP:FF
7567 C7B9            STA 91   (zeropage),y   A:0 X:FF Y:BF P:A4 SP:FF
7574 C7BB            DEY 88        implied   A:0 X:FF Y:BF P:A4 SP:FF
7577 C7BC            BNE D0      immediate   A:0 X:FF Y:BE P:A4 SP:FF
7580 C7B9            STA 91   (zeropage),y   A:0 X:FF Y:BE P:A4 SP:FF
7587 C7BB            DEY 88        implied   A:0 X:FF Y:BE P:A4 SP:FF
7590 C7BC            BNE D0      immediate   A:0 X:FF Y:BD P:A4 SP:FF
7593 C7B9            STA 91   (zeropage),y   A:0 X:FF Y:BD P:A4 SP:FF
7600 C7BB            DEY 88        implied   A:0 X:FF Y:BD P:A4 SP:FF
7603 C7BC            BNE D0      immediate   A:0 X:FF Y:BC P:A4 SP:FF
7606 C7B9            STA 91   (zeropage),y   A:0 X:FF Y:BC P:A4 SP:FF
7613 C7BB            DEY 88        implied   A:0 X:FF Y:BC P:A4 SP:FF
7616 C7BC            BNE D0      immediate   A:0 X:FF Y:BB P:A4 SP:FF
7619 C7B9            STA 91   (zeropage),y   A:0 X:FF Y:BB P:A4 SP:FF
7626 C7BB            DEY 88        implied   A:0 X:FF Y:BB P:A4 SP:FF
7629 C7BC            BNE D0      immediate   A:0 X:FF Y:BA P:A4 SP:FF
7632 C7B9            STA 91   (zeropage),y   A:0 X:FF Y:BA P:A4 SP:FF
7639 C7BB            DEY 88        implied   A:0 X:FF Y:BA P:A4 SP:FF
7642 C7BC            BNE D0      immediate   A:0 X:FF Y:B9 P:A4 SP:FF
7645 C7B9            STA 91   (zeropage),y   A:0 X:FF Y:B9 P:A4 SP:FF
7652 C7BB            DEY 88        implied   A:0 X:FF Y:B9 P:A4 SP:FF
7655 C7BC            BNE D0      immediate   A:0 X:FF Y:B8 P:A4 SP:FF
7658 C7B9            STA 91   (zeropage),y   A:0 X:FF Y:B8 P:A4 SP:FF
7665 C7BB            DEY 88        implied   A:0 X:FF Y:B8 P:A4 SP:FF
7668 C7BC            BNE D0      immediate   A:0 X:FF Y:B7 P:A4 SP:FF
7671 C7B9            STA 91   (zeropage),y   A:0 X:FF Y:B7 P:A4 SP:FF
7678 C7BB            DEY 88        implied   A:0 X:FF Y:B7 P:A4 SP:FF
7681 C7BC            BNE D0      immediate   A:0 X:FF Y:B6 P:A4 SP:FF
7684 C7B9            STA 91   (zeropage),y   A:0 X:FF Y:B6 P:A4 SP:FF
7691 C7BB            DEY 88        implied   A:0 X:FF Y:B6 P:A4 SP:FF
7694 C7BC            BNE D0      immediate   A:0 X:FF Y:B5 P:A4 SP:FF
7697 C7B9            STA 91   (zeropage),y   A:0 X:FF Y:B5 P:A4 SP:FF
7704 C7BB            DEY 88        implied   A:0 X:FF Y:B5 P:A4 SP:FF
7707 C7BC            BNE D0      immediate   A:0 X:FF Y:B4 P:A4 SP:FF
7710 C7B9            STA 91   (zeropage),y   A:0 X:FF Y:B4 P:A4 SP:FF
7717 C7BB            DEY 88        implied   A:0 X:FF Y:B4 P:A4 SP:FF
7720 C7BC            BNE D0      immediate   A:0 X:FF Y:B3 P:A4 SP:FF
7723 C7B9            STA 91   (zeropage),y   A:0 X:FF Y:B3 P:A4 SP:FF
7730 C7BB            DEY 88        implied   A:0 X:FF Y:B3 P:A4 SP:FF
7733 C7BC            BNE D0      immediate   A:0 X:FF Y:B2 P:A4 SP:FF
7736 C7B9            STA 91   (zeropage),y   A:0 X:FF Y:B2 P:A4 SP:FF
7743 C7BB            DEY 88        implied   A:0 X:FF Y:B2 P:A4 SP:FF
7746 C7BC            BNE D0      immediate   A:0 X:FF Y:B1 P:A4 SP:FF
7749 C7B9            STA 91   (zeropage),y   A:0 X:FF Y:B1 P:A4 SP:FF
7756 C7BB            DEY 88        implied   A:0 X:FF Y:B1 P:A4 SP:FF
7759 C7BC            BNE D0      immediate   A:0 X:FF Y:B0 P:A4 SP:FF
7762 C7B9            STA 91   (zeropage),y   A:0 X:FF Y:B0 P:A4 SP:FF
7769 C7BB            DEY 88        implied   A:0 X:FF Y:B0 P:A4 SP:FF
7772 C7BC            BNE D0      immediate   A:0 X:FF Y:AF P:A4 SP:FF
7775 C7B9            STA 91   (zeropage),y   A:0 X:FF Y:AF P:A4 SP:FF
7782 C7BB            DEY 88        implied   A:0 X:FF Y:AF P:A4 SP:FF
7785 C7BC            BNE D0      immediate   A:0 X:FF Y:AE P:A4 SP:FF
7788 C7B9            STA 91   (zeropage),y   A:0 X:FF Y:AE P:A4 SP:FF
7795 C7BB            DEY 88        implied   A:0 X:FF Y:AE P:A4 SP:FF
7798 C7BC            BNE D0      immediate   A:0 X:FF Y:AD P:A4 SP:FF
7801 C7B9            STA 91   (zeropage),y   A:0 X:FF Y:AD P:A4 SP:FF
7808 C7BB            DEY 88        implied   A:0 X:FF Y:AD P:A4 SP:FF
7811 C7BC            BNE D0      immediate   A:0 X:FF Y:AC P:A4 SP:FF
7814 C7B9            STA 91   (zeropage),y   A:0 X:FF Y:AC P:A4 SP:FF
7821 C7BB            DEY 88        implied   A:0 X:FF Y:AC P:A4 SP:FF
7824 C7BC            BNE D0      immediate   A:0 X:FF Y:AB P:A4 SP:FF
7827 C7B9            STA 91   (zeropage),y   A:0 X:FF Y:AB P:A4 SP:FF
7834 C7BB            DEY 88        implied   A:0 X:FF Y:AB P:A4 SP:FF
7837 C7BC            BNE D0      immediate   A:0 X:FF Y:AA P:A4 SP:FF
7840 C7B9            STA 91   (zeropage),y   A:0 X:FF Y:AA P:A4 SP:FF
7847 C7BB            DEY 88        implied   A:0 X:FF Y:AA P:A4 SP:FF
7850 C7BC            BNE D0      immediate   A:0 X:FF Y:A9 P:A4 SP:FF
7853 C7B9            STA 91   (zeropage),y   A:0 X:FF Y:A9 P:A4 SP:FF
7860 C7BB            DEY 88        implied   A:0 X:FF Y:A9 P:A4 SP:FF
7863 C7BC            BNE D0      immediate   A:0 X:FF Y:A8 P:A4 SP:FF
7866 C7B9            STA 91   (zeropage),y   A:0 X:FF Y:A8 P:A4 SP:FF
7873 C7BB            DEY 88        implied   A:0 X:FF Y:A8 P:A4 SP:FF
7876 C7BC            BNE D0      immediate   A:0 X:FF Y:A7 P:A4 SP:FF
7879 C7B9            STA 91   (zeropage),y   A:0 X:FF Y:A7 P:A4 SP:FF
7886 C7BB            DEY 88        implied   A:0 X:FF Y:A7 P:A4 SP:FF
7889 C7BC            BNE D0      immediate   A:0 X:FF Y:A6 P:A4 SP:FF
7892 C7B9            STA 91   (zeropage),y   A:0 X:FF Y:A6 P:A4 SP:FF
7899 C7BB            DEY 88        implied   A:0 X:FF Y:A6 P:A4 SP:FF
7902 C7BC            BNE D0      immediate   A:0 X:FF Y:A5 P:A4 SP:FF
7905 C7B9            STA 91   (zeropage),y   A:0 X:FF Y:A5 P:A4 SP:FF
7912 C7BB            DEY 88        implied   A:0 X:FF Y:A5 P:A4 SP:FF
7915 C7BC            BNE D0      immediate   A:0 X:FF Y:A4 P:A4 SP:FF
7918 C7B9            STA 91   (zeropage),y   A:0 X:FF Y:A4 P:A4 SP:FF
7925 C7BB            DEY 88        implied   A:0 X:FF Y:A4 P:A4 SP:FF
7928 C7BC            BNE D0      immediate   A:0 X:FF Y:A3 P:A4 SP:FF
7931 C7B9            STA 91   (zeropage),y   A:0 X:FF Y:A3 P:A4 SP:FF
7938 C7BB            DEY 88        implied   A:0 X:FF Y:A3 P:A4 SP:FF
7941 C7BC            BNE D0      immediate   A:0 X:FF Y:A2 P:A4 SP:FF
7944 C7B9            STA 91   (zeropage),y   A:0 X:FF Y:A2 P:A4 SP:FF
7951 C7BB            DEY 88        implied   A:0 X:FF Y:A2 P:A4 SP:FF
7954 C7BC            BNE D0      immediate   A:0 X:FF Y:A1 P:A4 SP:FF
7957 C7B9            STA 91   (zeropage),y   A:0 X:FF Y:A1 P:A4 SP:FF
7964 C7BB            DEY 88        implied   A:0 X:FF Y:A1 P:A4 SP:FF
7967 C7BC            BNE D0      immediate   A:0 X:FF Y:A0 P:A4 SP:FF
7970 C7B9            STA 91   (zeropage),y   A:0 X:FF Y:A0 P:A4 SP:FF
7977 C7BB            DEY 88        implied   A:0 X:FF Y:A0 P:A4 SP:FF
7980 C7BC            BNE D0      immediate   A:0 X:FF Y:9F P:A4 SP:FF
7983 C7B9            STA 91   (zeropage),y   A:0 X:FF Y:9F P:A4 SP:FF
7990 C7BB            DEY 88        implied   A:0 X:FF Y:9F P:A4 SP:FF
7993 C7BC            BNE D0      immediate   A:0 X:FF Y:9E P:A4 SP:FF
7996 C7B9            STA 91   (zeropage),y   A:0 X:FF Y:9E P:A4 SP:FF
8003 C7BB            DEY 88        implied   A:0 X:FF Y:9E P:A4 SP:FF
8006 C7BC            BNE D0      immediate   A:0 X:FF Y:9D P:A4 SP:FF
8009 C7B9            STA 91   (zeropage),y   A:0 X:FF Y:9D P:A4 SP:FF
8016 C7BB            DEY 88        implied   A:0 X:FF Y:9D P:A4 SP:FF
8019 C7BC            BNE D0      immediate   A:0 X:FF Y:9C P:A4 SP:FF
8022 C7B9            STA 91   (zeropage),y   A:0 X:FF Y:9C P:A4 SP:FF
8029 C7BB            DEY 88        implied   A:0 X:FF Y:9C P:A4 SP:FF
8032 C7BC            BNE D0      immediate   A:0 X:FF Y:9B P:A4 SP:FF
8035 C7B9            STA 91   (zeropage),y   A:0 X:FF Y:9B P:A4 SP:FF
8042 C7BB            DEY 88        implied   A:0 X:FF Y:9B P:A4 SP:FF
8045 C7BC            BNE D0      immediate   A:0 X:FF Y:9A P:A4 SP:FF
8048 C7B9            STA 91   (zeropage),y   A:0 X:FF Y:9A P:A4 SP:FF
8055 C7BB            DEY 88        implied   A:0 X:FF Y:9A P:A4 SP:FF
8058 C7BC            BNE D0      immediate   A:0 X:FF Y:99 P:A4 SP:FF
8061 C7B9            STA 91   (zeropage),y   A:0 X:FF Y:99 P:A4 SP:FF
8068 C7BB            DEY 88        implied   A:0 X:FF Y:99 P:A4 SP:FF
8071 C7BC            BNE D0      immediate   A:0 X:FF Y:98 P:A4 SP:FF
8074 C7B9            STA 91   (zeropage),y   A:0 X:FF Y:98 P:A4 SP:FF
8081 C7BB            DEY 88        implied   A:0 X:FF Y:98 P:A4 SP:FF
8084 C7BC            BNE D0      immediate   A:0 X:FF Y:97 P:A4 SP:FF
8087 C7B9            STA 91   (zeropage),y   A:0 X:FF Y:97 P:A4 SP:FF
8094 C7BB            DEY 88        implied   A:0 X:FF Y:97 P:A4 SP:FF
8097 C7BC            BNE D0      immediate   A:0 X:FF Y:96 P:A4 SP:FF
8100 C7B9            STA 91   (zeropage),y   A:0 X:FF Y:96 P:A4 SP:FF
8107 C7BB            DEY 88        implied   A:0 X:FF Y:96 P:A4 SP:FF
8110 C7BC            BNE D0      immediate   A:0 X:FF Y:95 P:A4 SP:FF
8113 C7B9            STA 91   (zeropage),y   A:0 X:FF Y:95 P:A4 SP:FF
8120 C7BB            DEY 88        implied   A:0 X:FF Y:95 P:A4 SP:FF
8123 C7BC            BNE D0      immediate   A:0 X:FF Y:94 P:A4 SP:FF
8126 C7B9            STA 91   (zeropage),y   A:0 X:FF Y:94 P:A4 SP:FF
8133 C7BB            DEY 88        implied   A:0 X:FF Y:94 P:A4 SP:FF
8136 C7BC            BNE D0      immediate   A:0 X:FF Y:93 P:A4 SP:FF
8139 C7B9            STA 91   (zeropage),y   A:0 X:FF Y:93 P:A4 SP:FF
8146 C7BB            DEY 88        implied   A:0 X:FF Y:93 P:A4 SP:FF
8149 C7BC            BNE D0      immediate   A:0 X:FF Y:92 P:A4 SP:FF
8152 C7B9            STA 91   (zeropage),y   A:0 X:FF Y:92 P:A4 SP:FF
8159 C7BB            DEY 88        implied   A:0 X:FF Y:92 P:A4 SP:FF
8162 C7BC            BNE D0      immediate   A:0 X:FF Y:91 P:A4 SP:FF
8165 C7B9            STA 91   (zeropage),y   A:0 X:FF Y:91 P:A4 SP:FF
8172 C7BB            DEY 88        implied   A:0 X:FF Y:91 P:A4 SP:FF
8175 C7BC            BNE D0      immediate   A:0 X:FF Y:90 P:A4 SP:FF
8178 C7B9            STA 91   (zeropage),y   A:0 X:FF Y:90 P:A4 SP:FF
8185 C7BB            DEY 88        implied   A:0 X:FF Y:90 P:A4 SP:FF
8188 C7BC            BNE D0      immediate   A:0 X:FF Y:8F P:A4 SP:FF
8191 C7B9            STA 91   (zeropage),y   A:0 X:FF Y:8F P:A4 SP:FF
8198 C7BB            DEY 88        implied   A:0 X:FF Y:8F P:A4 SP:FF
8201 C7BC            BNE D0      immediate   A:0 X:FF Y:8E P:A4 SP:FF
8204 C7B9            STA 91   (zeropage),y   A:0 X:FF Y:8E P:A4 SP:FF
8211 C7BB            DEY 88        implied   A:0 X:FF Y:8E P:A4 SP:FF
8214 C7BC            BNE D0      immediate   A:0 X:FF Y:8D P:A4 SP:FF
8217 C7B9            STA 91   (zeropage),y   A:0 X:FF Y:8D P:A4 SP:FF
8224 C7BB            DEY 88        implied   A:0 X:FF Y:8D P:A4 SP:FF
8227 C7BC            BNE D0      immediate   A:0 X:FF Y:8C P:A4 SP:FF
8230 C7B9            STA 91   (zeropage),y   A:0 X:FF Y:8C P:A4 SP:FF
8237 C7BB            DEY 88        implied   A:0 X:FF Y:8C P:A4 SP:FF
8240 C7BC            BNE D0      immediate   A:0 X:FF Y:8B P:A4 SP:FF
8243 C7B9            STA 91   (zeropage),y   A:0 X:FF Y:8B P:A4 SP:FF
8250 C7BB            DEY 88        implied   A:0 X:FF Y:8B P:A4 SP:FF
8253 C7BC            BNE D0      immediate   A:0 X:FF Y:8A P:A4 SP:FF
8256 C7B9            STA 91   (zeropage),y   A:0 X:FF Y:8A P:A4 SP:FF
8263 C7BB            DEY 88        implied   A:0 X:FF Y:8A P:A4 SP:FF
8266 C7BC            BNE D0      immediate   A:0 X:FF Y:89 P:A4 SP:FF
8269 C7B9            STA 91   (zeropage),y   A:0 X:FF Y:89 P:A4 SP:FF
8276 C7BB            DEY 88        implied   A:0 X:FF Y:89 P:A4 SP:FF
8279 C7BC            BNE D0      immediate   A:0 X:FF Y:88 P:A4 SP:FF
8282 C7B9            STA 91   (zeropage),y   A:0 X:FF Y:88 P:A4 SP:FF
8289 C7BB            DEY 88        implied   A:0 X:FF Y:88 P:A4 SP:FF
8292 C7BC            BNE D0      immediate   A:0 X:FF Y:87 P:A4 SP:FF
8295 C7B9            STA 91   (zeropage),y   A:0 X:FF Y:87 P:A4 SP:FF
8302 C7BB            DEY 88        implied   A:0 X:FF Y:87 P:A4 SP:FF
8305 C7BC            BNE D0      immediate   A:0 X:FF Y:86 P:A4 SP:FF
8308 C7B9            STA 91   (zeropage),y   A:0 X:FF Y:86 P:A4 SP:FF
8315 C7BB            DEY 88        implied   A:0 X:FF Y:86 P:A4 SP:FF
8318 C7BC            BNE D0      immediate   A:0 X:FF Y:85 P:A4 SP:FF
8321 C7B9            STA 91   (zeropage),y   A:0 X:FF Y:85 P:A4 SP:FF
8328 C7BB            DEY 88        implied   A:0 X:FF Y:85 P:A4 SP:FF
8331 C7BC            BNE D0      immediate   A:0 X:FF Y:84 P:A4 SP:FF
8334 C7B9            STA 91   (zeropage),y   A:0 X:FF Y:84 P:A4 SP:FF
8341 C7BB            DEY 88        implied   A:0 X:FF Y:84 P:A4 SP:FF
8344 C7BC            BNE D0      immediate   A:0 X:FF Y:83 P:A4 SP:FF
8347 C7B9            STA 91   (zeropage),y   A:0 X:FF Y:83 P:A4 SP:FF
8354 C7BB            DEY 88        implied   A:0 X:FF Y:83 P:A4 SP:FF
8357 C7BC            BNE D0      immediate   A:0 X:FF Y:82 P:A4 SP:FF
8360 C7B9            STA 91   (zeropage),y   A:0 X:FF Y:82 P:A4 SP:FF
8367 C7BB            DEY 88        implied   A:0 X:FF Y:82 P:A4 SP:FF
8370 C7BC            BNE D0      immediate   A:0 X:FF Y:81 P:A4 SP:FF
8373 C7B9            STA 91   (zeropage),y   A:0 X:FF Y:81 P:A4 SP:FF
8380 C7BB            DEY 88        implied   A:0 X:FF Y:81 P:A4 SP:FF
8383 C7BC            BNE D0      immediate   A:0 X:FF Y:80 P:A4 SP:FF
8386 C7B9            STA 91   (zeropage),y   A:0 X:FF Y:80 P:A4 SP:FF
8393 C7BB            DEY 88        implied   A:0 X:FF Y:80 P:A4 SP:FF
8396 C7BC            BNE D0      immediate   A:0 X:FF Y:7F P:24 SP:FF
8399 C7B9            STA 91   (zeropage),y   A:0 X:FF Y:7F P:24 SP:FF
8406 C7BB            DEY 88        implied   A:0 X:FF Y:7F P:24 SP:FF
8409 C7BC            BNE D0      immediate   A:0 X:FF Y:7E P:24 SP:FF
8412 C7B9            STA 91   (zeropage),y   A:0 X:FF Y:7E P:24 SP:FF
8419 C7BB            DEY 88        implied   A:0 X:FF Y:7E P:24 SP:FF
8422 C7BC            BNE D0      immediate   A:0 X:FF Y:7D P:24 SP:FF
8425 C7B9            STA 91   (zeropage),y   A:0 X:FF Y:7D P:24 SP:FF
8432 C7BB            DEY 88        implied   A:0 X:FF Y:7D P:24 SP:FF
8435 C7BC            BNE D0      immediate   A:0 X:FF Y:7C P:24 SP:FF
8438 C7B9            STA 91   (zeropage),y   A:0 X:FF Y:7C P:24 SP:FF
8445 C7BB            DEY 88        implied   A:0 X:FF Y:7C P:24 SP:FF
8448 C7BC            BNE D0      immediate   A:0 X:FF Y:7B P:24 SP:FF
8451 C7B9            STA 91   (zeropage),y   A:0 X:FF Y:7B P:24 SP:FF
8458 C7BB            DEY 88        implied   A:0 X:FF Y:7B P:24 SP:FF
8461 C7BC            BNE D0      immediate   A:0 X:FF Y:7A P:24 SP:FF
8464 C7B9            STA 91   (zeropage),y   A:0 X:FF Y:7A P:24 SP:FF
8471 C7BB            DEY 88        implied   A:0 X:FF Y:7A P:24 SP:FF
8474 C7BC            BNE D0      immediate   A:0 X:FF Y:79 P:24 SP:FF
8477 C7B9            STA 91   (zeropage),y   A:0 X:FF Y:79 P:24 SP:FF
8484 C7BB            DEY 88        implied   A:0 X:FF Y:79 P:24 SP:FF
8487 C7BC            BNE D0      immediate   A:0 X:FF Y:78 P:24 SP:FF
8490 C7B9            STA 91   (zeropage),y   A:0 X:FF Y:78 P:24 SP:FF
8497 C7BB            DEY 88        implied   A:0 X:FF Y:78 P:24 SP:FF
8500 C7BC            BNE D0      immediate   A:0 X:FF Y:77 P:24 SP:FF
8503 C7B9            STA 91   (zeropage),y   A:0 X:FF Y:77 P:24 SP:FF
8510 C7BB            DEY 88        implied   A:0 X:FF Y:77 P:24 SP:FF
8513 C7BC            BNE D0      immediate   A:0 X:FF Y:76 P:24 SP:FF
8516 C7B9            STA 91   (zeropage),y   A:0 X:FF Y:76 P:24 SP:FF
8523 C7BB            DEY 88        implied   A:0 X:FF Y:76 P:24 SP:FF
8526 C7BC            BNE D0      immediate   A:0 X:FF Y:75 P:24 SP:FF
8529 C7B9            STA 91   (zeropage),y   A:0 X:FF Y:75 P:24 SP:FF
8536 C7BB            DEY 88        implied   A:0 X:FF Y:75 P:24 SP:FF
8539 C7BC            BNE D0      immediate   A:0 X:FF Y:74 P:24 SP:FF
8542 C7B9            STA 91   (zeropage),y   A:0 X:FF Y:74 P:24 SP:FF
8549 C7BB            DEY 88        implied   A:0 X:FF Y:74 P:24 SP:FF
8552 C7BC            BNE D0      immediate   A:0 X:FF Y:73 P:24 SP:FF
8555 C7B9            STA 91   (zeropage),y   A:0 X:FF Y:73 P:24 SP:FF
8562 C7BB            DEY 88        implied   A:0 X:FF Y:73 P:24 SP:FF
8565 C7BC            BNE D0      immediate   A:0 X:FF Y:72 P:24 SP:FF
8568 C7B9            STA 91   (zeropage),y   A:0 X:FF Y:72 P:24 SP:FF
8575 C7BB            DEY 88        implied   A:0 X:FF Y:72 P:24 SP:FF
8578 C7BC            BNE D0      immediate   A:0 X:FF Y:71 P:24 SP:FF
8581 C7B9            STA 91   (zeropage),y   A:0 X:FF Y:71 P:24 SP:FF
8588 C7BB            DEY 88        implied   A:0 X:FF Y:71 P:24 SP:FF
8591 C7BC            BNE D0      immediate   A:0 X:FF Y:70 P:24 SP:FF
8594 C7B9            STA 91   (zeropage),y   A:0 X:FF Y:70 P:24 SP:FF
8601 C7BB            DEY 88        implied   A:0 X:FF Y:70 P:24 SP:FF
8604 C7BC            BNE D0      immediate   A:0 X:FF Y:6F P:24 SP:FF
8607 C7B9            STA 91   (zeropage),y   A:0 X:FF Y:6F P:24 SP:FF
8614 C7BB            DEY 88        implied   A:0 X:FF Y:6F P:24 SP:FF
8617 C7BC            BNE D0      immediate   A:0 X:FF Y:6E P:24 SP:FF
8620 C7B9            STA 91   (zeropage),y   A:0 X:FF Y:6E P:24 SP:FF
8627 C7BB            DEY 88        implied   A:0 X:FF Y:6E P:24 SP:FF
8630 C7BC            BNE D0      immediate   A:0 X:FF Y:6D P:24 SP:FF
8633 C7B9            STA 91   (zeropage),y   A:0 X:FF Y:6D P:24 SP:FF
8640 C7BB            DEY 88        implied   A:0 X:FF Y:6D P:24 SP:FF
8643 C7BC            BNE D0      immediate   A:0 X:FF Y:6C P:24 SP:FF
8646 C7B9            STA 91   (zeropage),y   A:0 X:FF Y:6C P:24 SP:FF
8653 C7BB            DEY 88        implied   A:0 X:FF Y:6C P:24 SP:FF
8656 C7BC            BNE D0      immediate   A:0 X:FF Y:6B P:24 SP:FF
8659 C7B9            STA 91   (zeropage),y   A:0 X:FF Y:6B P:24 SP:FF
8666 C7BB            DEY 88        implied   A:0 X:FF Y:6B P:24 SP:FF
8669 C7BC            BNE D0      immediate   A:0 X:FF Y:6A P:24 SP:FF
8672 C7B9            STA 91   (zeropage),y   A:0 X:FF Y:6A P:24 SP:FF
8679 C7BB            DEY 88        implied   A:0 X:FF Y:6A P:24 SP:FF
8682 C7BC            BNE D0      immediate   A:0 X:FF Y:69 P:24 SP:FF
8685 C7B9            STA 91   (zeropage),y   A:0 X:FF Y:69 P:24 SP:FF
8692 C7BB            DEY 88        implied   A:0 X:FF Y:69 P:24 SP:FF
8695 C7BC            BNE D0      immediate   A:0 X:FF Y:68 P:24 SP:FF
8698 C7B9            STA 91   (zeropage),y   A:0 X:FF Y:68 P:24 SP:FF
8705 C7BB            DEY 88        implied   A:0 X:FF Y:68 P:24 SP:FF
8708 C7BC            BNE D0      immediate   A:0 X:FF Y:67 P:24 SP:FF
8711 C7B9            STA 91   (zeropage),y   A:0 X:FF Y:67 P:24 SP:FF
8718 C7BB            DEY 88        implied   A:0 X:FF Y:67 P:24 SP:FF
8721 C7BC            BNE D0      immediate   A:0 X:FF Y:66 P:24 SP:FF
8724 C7B9            STA 91   (zeropage),y   A:0 X:FF Y:66 P:24 SP:FF
8731 C7BB            DEY 88        implied   A:0 X:FF Y:66 P:24 SP:FF
8734 C7BC            BNE D0      immediate   A:0 X:FF Y:65 P:24 SP:FF
8737 C7B9            STA 91   (zeropage),y   A:0 X:FF Y:65 P:24 SP:FF
8744 C7BB            DEY 88        implied   A:0 X:FF Y:65 P:24 SP:FF
8747 C7BC            BNE D0      immediate   A:0 X:FF Y:64 P:24 SP:FF
8750 C7B9            STA 91   (zeropage),y   A:0 X:FF Y:64 P:24 SP:FF
8757 C7BB            DEY 88        implied   A:0 X:FF Y:64 P:24 SP:FF
8760 C7BC            BNE D0      immediate   A:0 X:FF Y:63 P:24 SP:FF
8763 C7B9            STA 91   (zeropage),y   A:0 X:FF Y:63 P:24 SP:FF
8770 C7BB            DEY 88        implied   A:0 X:FF Y:63 P:24 SP:FF
8773 C7BC            BNE D0      immediate   A:0 X:FF Y:62 P:24 SP:FF
8776 C7B9            STA 91   (zeropage),y   A:0 X:FF Y:62 P:24 SP:FF
8783 C7BB            DEY 88        implied   A:0 X:FF Y:62 P:24 SP:FF
8786 C7BC            BNE D0      immediate   A:0 X:FF Y:61 P:24 SP:FF
8789 C7B9            STA 91   (zeropage),y   A:0 X:FF Y:61 P:24 SP:FF
8796 C7BB            DEY 88        implied   A:0 X:FF Y:61 P:24 SP:FF
8799 C7BC            BNE D0      immediate   A:0 X:FF Y:60 P:24 SP:FF
8802 C7B9            STA 91   (zeropage),y   A:0 X:FF Y:60 P:24 SP:FF
8809 C7BB            DEY 88        implied   A:0 X:FF Y:60 P:24 SP:FF
8812 C7BC            BNE D0      immediate   A:0 X:FF Y:5F P:24 SP:FF
8815 C7B9            STA 91   (zeropage),y   A:0 X:FF Y:5F P:24 SP:FF
8822 C7BB            DEY 88        implied   A:0 X:FF Y:5F P:24 SP:FF
8825 C7BC            BNE D0      immediate   A:0 X:FF Y:5E P:24 SP:FF
8828 C7B9            STA 91   (zeropage),y   A:0 X:FF Y:5E P:24 SP:FF
8835 C7BB            DEY 88        implied   A:0 X:FF Y:5E P:24 SP:FF
8838 C7BC            BNE D0      immediate   A:0 X:FF Y:5D P:24 SP:FF
8841 C7B9            STA 91   (zeropage),y   A:0 X:FF Y:5D P:24 SP:FF
8848 C7BB            DEY 88        implied   A:0 X:FF Y:5D P:24 SP:FF
8851 C7BC            BNE D0      immediate   A:0 X:FF Y:5C P:24 SP:FF
8854 C7B9            STA 91   (zeropage),y   A:0 X:FF Y:5C P:24 SP:FF
8861 C7BB            DEY 88        implied   A:0 X:FF Y:5C P:24 SP:FF
8864 C7BC            BNE D0      immediate   A:0 X:FF Y:5B P:24 SP:FF
8867 C7B9            STA 91   (zeropage),y   A:0 X:FF Y:5B P:24 SP:FF
8874 C7BB            DEY 88        implied   A:0 X:FF Y:5B P:24 SP:FF
8877 C7BC            BNE D0      immediate   A:0 X:FF Y:5A P:24 SP:FF
8880 C7B9            STA 91   (zeropage),y   A:0 X:FF Y:5A P:24 SP:FF
8887 C7BB            DEY 88        implied   A:0 X:FF Y:5A P:24 SP:FF
8890 C7BC            BNE D0      immediate   A:0 X:FF Y:59 P:24 SP:FF
8893 C7B9            STA 91   (zeropage),y   A:0 X:FF Y:59 P:24 SP:FF
8900 C7BB            DEY 88        implied   A:0 X:FF Y:59 P:24 SP:FF
8903 C7BC            BNE D0      immediate   A:0 X:FF Y:58 P:24 SP:FF
8906 C7B9            STA 91   (zeropage),y   A:0 X:FF Y:58 P:24 SP:FF
8913 C7BB            DEY 88        implied   A:0 X:FF Y:58 P:24 SP:FF
8916 C7BC            BNE D0      immediate   A:0 X:FF Y:57 P:24 SP:FF
8919 C7B9            STA 91   (zeropage),y   A:0 X:FF Y:57 P:24 SP:FF
8926 C7BB            DEY 88        implied   A:0 X:FF Y:57 P:24 SP:FF
8929 C7BC            BNE D0      immediate   A:0 X:FF Y:56 P:24 SP:FF
8932 C7B9            STA 91   (zeropage),y   A:0 X:FF Y:56 P:24 SP:FF
8939 C7BB            DEY 88        implied   A:0 X:FF Y:56 P:24 SP:FF
8942 C7BC            BNE D0      immediate   A:0 X:FF Y:55 P:24 SP:FF
8945 C7B9            STA 91   (zeropage),y   A:0 X:FF Y:55 P:24 SP:FF
8952 C7BB            DEY 88        implied   A:0 X:FF Y:55 P:24 SP:FF
8955 C7BC            BNE D0      immediate   A:0 X:FF Y:54 P:24 SP:FF
8958 C7B9            STA 91   (zeropage),y   A:0 X:FF Y:54 P:24 SP:FF
8965 C7BB            DEY 88        implied   A:0 X:FF Y:54 P:24 SP:FF
8968 C7BC            BNE D0      immediate   A:0 X:FF Y:53 P:24 SP:FF
8971 C7B9            STA 91   (zeropage),y   A:0 X:FF Y:53 P:24 SP:FF
8978 C7BB            DEY 88        implied   A:0 X:FF Y:53 P:24 SP:FF
8981 C7BC            BNE D0      immediate   A:0 X:FF Y:52 P:24 SP:FF
8984 C7B9            STA 91   (zeropage),y   A:0 X:FF Y:52 P:24 SP:FF
8991 C7BB            DEY 88        implied   A:0 X:FF Y:52 P:24 SP:FF
8994 C7BC            BNE D0      immediate   A:0 X:FF Y:51 P:24 SP:FF
8997 C7B9            STA 91   (zeropage),y   A:0 X:FF Y:51 P:24 SP:FF
9004 C7BB            DEY 88        implied   A:0 X:FF Y:51 P:24 SP:FF
9007 C7BC            BNE D0      immediate   A:0 X:FF Y:50 P:24 SP:FF
9010 C7B9            STA 91   (zeropage),y   A:0 X:FF Y:50 P:24 SP:FF
9017 C7BB            DEY 88        implied   A:0 X:FF Y:50 P:24 SP:FF
9020 C7BC            BNE D0      immediate   A:0 X:FF Y:4F P:24 SP:FF
9023 C7B9            STA 91   (zeropage),y   A:0 X:FF Y:4F P:24 SP:FF
9030 C7BB            DEY 88        implied   A:0 X:FF Y:4F P:24 SP:FF
9033 C7BC            BNE D0      immediate   A:0 X:FF Y:4E P:24 SP:FF
9036 C7B9            STA 91   (zeropage),y   A:0 X:FF Y:4E P:24 SP:FF
9043 C7BB            DEY 88        implied   A:0 X:FF Y:4E P:24 SP:FF
9046 C7BC            BNE D0      immediate   A:0 X:FF Y:4D P:24 SP:FF
9049 C7B9            STA 91   (zeropage),y   A:0 X:FF Y:4D P:24 SP:FF
9056 C7BB            DEY 88        implied   A:0 X:FF Y:4D P:24 SP:FF
9059 C7BC            BNE D0      immediate   A:0 X:FF Y:4C P:24 SP:FF
9062 C7B9            STA 91   (zeropage),y   A:0 X:FF Y:4C P:24 SP:FF
9069 C7BB            DEY 88        implied   A:0 X:FF Y:4C P:24 SP:FF
9072 C7BC            BNE D0      immediate   A:0 X:FF Y:4B P:24 SP:FF
9075 C7B9            STA 91   (zeropage),y   A:0 X:FF Y:4B P:24 SP:FF
9082 C7BB            DEY 88        implied   A:0 X:FF Y:4B P:24 SP:FF
9085 C7BC            BNE D0      immediate   A:0 X:FF Y:4A P:24 SP:FF
9088 C7B9            STA 91   (zeropage),y   A:0 X:FF Y:4A P:24 SP:FF
9095 C7BB            DEY 88        implied   A:0 X:FF Y:4A P:24 SP:FF
9098 C7BC            BNE D0      immediate   A:0 X:FF Y:49 P:24 SP:FF
9101 C7B9            STA 91   (zeropage),y   A:0 X:FF Y:49 P:24 SP:FF
9108 C7BB            DEY 88        implied   A:0 X:FF Y:49 P:24 SP:FF
9111 C7BC            BNE D0      immediate   A:0 X:FF Y:48 P:24 SP:FF
9114 C7B9            STA 91   (zeropage),y   A:0 X:FF Y:48 P:24 SP:FF
9121 C7BB            DEY 88        implied   A:0 X:FF Y:48 P:24 SP:FF
9124 C7BC            BNE D0      immediate   A:0 X:FF Y:47 P:24 SP:FF
9127 C7B9            STA 91   (zeropage),y   A:0 X:FF Y:47 P:24 SP:FF
9134 C7BB            DEY 88        implied   A:0 X:FF Y:47 P:24 SP:FF
9137 C7BC            BNE D0      immediate   A:0 X:FF Y:46 P:24 SP:FF
9140 C7B9            STA 91   (zeropage),y   A:0 X:FF Y:46 P:24 SP:FF
9147 C7BB            DEY 88        implied   A:0 X:FF Y:46 P:24 SP:FF
9150 C7BC            BNE D0      immediate   A:0 X:FF Y:45 P:24 SP:FF
9153 C7B9            STA 91   (zeropage),y   A:0 X:FF Y:45 P:24 SP:FF
9160 C7BB            DEY 88        implied   A:0 X:FF Y:45 P:24 SP:FF
9163 C7BC            BNE D0      immediate   A:0 X:FF Y:44 P:24 SP:FF
9166 C7B9            STA 91   (zeropage),y   A:0 X:FF Y:44 P:24 SP:FF
9173 C7BB            DEY 88        implied   A:0 X:FF Y:44 P:24 SP:FF
9176 C7BC            BNE D0      immediate   A:0 X:FF Y:43 P:24 SP:FF
9179 C7B9            STA 91   (zeropage),y   A:0 X:FF Y:43 P:24 SP:FF
9186 C7BB            DEY 88        implied   A:0 X:FF Y:43 P:24 SP:FF
9189 C7BC            BNE D0      immediate   A:0 X:FF Y:42 P:24 SP:FF
9192 C7B9            STA 91   (zeropage),y   A:0 X:FF Y:42 P:24 SP:FF
9199 C7BB            DEY 88        implied   A:0 X:FF Y:42 P:24 SP:FF
9202 C7BC            BNE D0      immediate   A:0 X:FF Y:41 P:24 SP:FF
9205 C7B9            STA 91   (zeropage),y   A:0 X:FF Y:41 P:24 SP:FF
9212 C7BB            DEY 88        implied   A:0 X:FF Y:41 P:24 SP:FF
9215 C7BC            BNE D0      immediate   A:0 X:FF Y:40 P:24 SP:FF
9218 C7B9            STA 91   (zeropage),y   A:0 X:FF Y:40 P:24 SP:FF
9225 C7BB            DEY 88        implied   A:0 X:FF Y:40 P:24 SP:FF
9228 C7BC            BNE D0      immediate   A:0 X:FF Y:3F P:24 SP:FF
9231 C7B9            STA 91   (zeropage),y   A:0 X:FF Y:3F P:24 SP:FF
9238 C7BB            DEY 88        implied   A:0 X:FF Y:3F P:24 SP:FF
9241 C7BC            BNE D0      immediate   A:0 X:FF Y:3E P:24 SP:FF
9244 C7B9            STA 91   (zeropage),y   A:0 X:FF Y:3E P:24 SP:FF
9251 C7BB            DEY 88        implied   A:0 X:FF Y:3E P:24 SP:FF
9254 C7BC            BNE D0      immediate   A:0 X:FF Y:3D P:24 SP:FF
9257 C7B9            STA 91   (zeropage),y   A:0 X:FF Y:3D P:24 SP:FF
9264 C7BB            DEY 88        implied   A:0 X:FF Y:3D P:24 SP:FF
9267 C7BC            BNE D0      immediate   A:0 X:FF Y:3C P:24 SP:FF
9270 C7B9            STA 91   (zeropage),y   A:0 X:FF Y:3C P:24 SP:FF
9277 C7BB            DEY 88        implied   A:0 X:FF Y:3C P:24 SP:FF
9280 C7BC            BNE D0      immediate   A:0 X:FF Y:3B P:24 SP:FF
9283 C7B9            STA 91   (zeropage),y   A:0 X:FF Y:3B P:24 SP:FF
9290 C7BB            DEY 88        implied   A:0 X:FF Y:3B P:24 SP:FF
9293 C7BC            BNE D0      immediate   A:0 X:FF Y:3A P:24 SP:FF
9296 C7B9            STA 91   (zeropage),y   A:0 X:FF Y:3A P:24 SP:FF
9303 C7BB            DEY 88        implied   A:0 X:FF Y:3A P:24 SP:FF
9306 C7BC            BNE D0      immediate   A:0 X:FF Y:39 P:24 SP:FF
9309 C7B9            STA 91   (zeropage),y   A:0 X:FF Y:39 P:24 SP:FF
9316 C7BB            DEY 88        implied   A:0 X:FF Y:39 P:24 SP:FF
9319 C7BC            BNE D0      immediate   A:0 X:FF Y:38 P:24 SP:FF
9322 C7B9            STA 91   (zeropage),y   A:0 X:FF Y:38 P:24 SP:FF
9329 C7BB            DEY 88        implied   A:0 X:FF Y:38 P:24 SP:FF
9332 C7BC            BNE D0      immediate   A:0 X:FF Y:37 P:24 SP:FF
9335 C7B9            STA 91   (zeropage),y   A:0 X:FF Y:37 P:24 SP:FF
9342 C7BB            DEY 88        implied   A:0 X:FF Y:37 P:24 SP:FF
9345 C7BC            BNE D0      immediate   A:0 X:FF Y:36 P:24 SP:FF
9348 C7B9            STA 91   (zeropage),y   A:0 X:FF Y:36 P:24 SP:FF
9355 C7BB            DEY 88        implied   A:0 X:FF Y:36 P:24 SP:FF
9358 C7BC            BNE D0      immediate   A:0 X:FF Y:35 P:24 SP:FF
9361 C7B9            STA 91   (zeropage),y   A:0 X:FF Y:35 P:24 SP:FF
9368 C7BB            DEY 88        implied   A:0 X:FF Y:35 P:24 SP:FF
9371 C7BC            BNE D0      immediate   A:0 X:FF Y:34 P:24 SP:FF
9374 C7B9            STA 91   (zeropage),y   A:0 X:FF Y:34 P:24 SP:FF
9381 C7BB            DEY 88        implied   A:0 X:FF Y:34 P:24 SP:FF
9384 C7BC            BNE D0      immediate   A:0 X:FF Y:33 P:24 SP:FF
9387 C7B9            STA 91   (zeropage),y   A:0 X:FF Y:33 P:24 SP:FF
9394 C7BB            DEY 88        implied   A:0 X:FF Y:33 P:24 SP:FF
9397 C7BC            BNE D0      immediate   A:0 X:FF Y:32 P:24 SP:FF
9400 C7B9            STA 91   (zeropage),y   A:0 X:FF Y:32 P:24 SP:FF
9407 C7BB            DEY 88        implied   A:0 X:FF Y:32 P:24 SP:FF
9410 C7BC            BNE D0      immediate   A:0 X:FF Y:31 P:24 SP:FF
9413 C7B9            STA 91   (zeropage),y   A:0 X:FF Y:31 P:24 SP:FF
9420 C7BB            DEY 88        implied   A:0 X:FF Y:31 P:24 SP:FF
9423 C7BC            BNE D0      immediate   A:0 X:FF Y:30 P:24 SP:FF
9426 C7B9            STA 91   (zeropage),y   A:0 X:FF Y:30 P:24 SP:FF
9433 C7BB            DEY 88        implied   A:0 X:FF Y:30 P:24 SP:FF
9436 C7BC            BNE D0      immediate   A:0 X:FF Y:2F P:24 SP:FF
9439 C7B9            STA 91   (zeropage),y   A:0 X:FF Y:2F P:24 SP:FF
9446 C7BB            DEY 88        implied   A:0 X:FF Y:2F P:24 SP:FF
9449 C7BC            BNE D0      immediate   A:0 X:FF Y:2E P:24 SP:FF
9452 C7B9            STA 91   (zeropage),y   A:0 X:FF Y:2E P:24 SP:FF
9459 C7BB            DEY 88        implied   A:0 X:FF Y:2E P:24 SP:FF
9462 C7BC            BNE D0      immediate   A:0 X:FF Y:2D P:24 SP:FF
9465 C7B9            STA 91   (zeropage),y   A:0 X:FF Y:2D P:24 SP:FF
9472 C7BB            DEY 88        implied   A:0 X:FF Y:2D P:24 SP:FF
9475 C7BC            BNE D0      immediate   A:0 X:FF Y:2C P:24 SP:FF
9478 C7B9            STA 91   (zeropage),y   A:0 X:FF Y:2C P:24 SP:FF
9485 C7BB            DEY 88        implied   A:0 X:FF Y:2C P:24 SP:FF
9488 C7BC            BNE D0      immediate   A:0 X:FF Y:2B P:24 SP:FF
9491 C7B9            STA 91   (zeropage),y   A:0 X:FF Y:2B P:24 SP:FF
9498 C7BB            DEY 88        implied   A:0 X:FF Y:2B P:24 SP:FF
9501 C7BC            BNE D0      immediate   A:0 X:FF Y:2A P:24 SP:FF
9504 C7B9            STA 91   (zeropage),y   A:0 X:FF Y:2A P:24 SP:FF
9511 C7BB            DEY 88        implied   A:0 X:FF Y:2A P:24 SP:FF
9514 C7BC            BNE D0      immediate   A:0 X:FF Y:29 P:24 SP:FF
9517 C7B9            STA 91   (zeropage),y   A:0 X:FF Y:29 P:24 SP:FF
9524 C7BB            DEY 88        implied   A:0 X:FF Y:29 P:24 SP:FF
9527 C7BC            BNE D0      immediate   A:0 X:FF Y:28 P:24 SP:FF
9530 C7B9            STA 91   (zeropage),y   A:0 X:FF Y:28 P:24 SP:FF
9537 C7BB            DEY 88        implied   A:0 X:FF Y:28 P:24 SP:FF
9540 C7BC            BNE D0      immediate   A:0 X:FF Y:27 P:24 SP:FF
9543 C7B9            STA 91   (zeropage),y   A:0 X:FF Y:27 P:24 SP:FF
9550 C7BB            DEY 88        implied   A:0 X:FF Y:27 P:24 SP:FF
9553 C7BC            BNE D0      immediate   A:0 X:FF Y:26 P:24 SP:FF
9556 C7B9            STA 91   (zeropage),y   A:0 X:FF Y:26 P:24 SP:FF
9563 C7BB            DEY 88        implied   A:0 X:FF Y:26 P:24 SP:FF
9566 C7BC            BNE D0      immediate   A:0 X:FF Y:25 P:24 SP:FF
9569 C7B9            STA 91   (zeropage),y   A:0 X:FF Y:25 P:24 SP:FF
9576 C7BB            DEY 88        implied   A:0 X:FF Y:25 P:24 SP:FF
9579 C7BC            BNE D0      immediate   A:0 X:FF Y:24 P:24 SP:FF
9582 C7B9            STA 91   (zeropage),y   A:0 X:FF Y:24 P:24 SP:FF
9589 C7BB            DEY 88        implied   A:0 X:FF Y:24 P:24 SP:FF
9592 C7BC            BNE D0      immediate   A:0 X:FF Y:23 P:24 SP:FF
9595 C7B9            STA 91   (zeropage),y   A:0 X:FF Y:23 P:24 SP:FF
9602 C7BB            DEY 88        implied   A:0 X:FF Y:23 P:24 SP:FF
9605 C7BC            BNE D0      immediate   A:0 X:FF Y:22 P:24 SP:FF
9608 C7B9            STA 91   (zeropage),y   A:0 X:FF Y:22 P:24 SP:FF
9615 C7BB            DEY 88        implied   A:0 X:FF Y:22 P:24 SP:FF
9618 C7BC            BNE D0      immediate   A:0 X:FF Y:21 P:24 SP:FF
9621 C7B9            STA 91   (zeropage),y   A:0 X:FF Y:21 P:24 SP:FF
9628 C7BB            DEY 88        implied   A:0 X:FF Y:21 P:24 SP:FF
9631 C7BC            BNE D0      immediate   A:0 X:FF Y:20 P:24 SP:FF
9634 C7B9            STA 91   (zeropage),y   A:0 X:FF Y:20 P:24 SP:FF
9641 C7BB            DEY 88        implied   A:0 X:FF Y:20 P:24 SP:FF
9644 C7BC            BNE D0      immediate   A:0 X:FF Y:1F P:24 SP:FF
9647 C7B9            STA 91   (zeropage),y   A:0 X:FF Y:1F P:24 SP:FF
9654 C7BB            DEY 88        implied   A:0 X:FF Y:1F P:24 SP:FF
9657 C7BC            BNE D0      immediate   A:0 X:FF Y:1E P:24 SP:FF
9660 C7B9            STA 91   (zeropage),y   A:0 X:FF Y:1E P:24 SP:FF
9667 C7BB            DEY 88        implied   A:0 X:FF Y:1E P:24 SP:FF
9670 C7BC            BNE D0      immediate   A:0 X:FF Y:1D P:24 SP:FF
9673 C7B9            STA 91   (zeropage),y   A:0 X:FF Y:1D P:24 SP:FF
9680 C7BB            DEY 88        implied   A:0 X:FF Y:1D P:24 SP:FF
9683 C7BC            BNE D0      immediate   A:0 X:FF Y:1C P:24 SP:FF
9686 C7B9            STA 91   (zeropage),y   A:0 X:FF Y:1C P:24 SP:FF
9693 C7BB            DEY 88        implied   A:0 X:FF Y:1C P:24 SP:FF
9696 C7BC            BNE D0      immediate   A:0 X:FF Y:1B P:24 SP:FF
9699 C7B9            STA 91   (zeropage),y   A:0 X:FF Y:1B P:24 SP:FF
9706 C7BB            DEY 88        implied   A:0 X:FF Y:1B P:24 SP:FF
9709 C7BC            BNE D0      immediate   A:0 X:FF Y:1A P:24 SP:FF
9712 C7B9            STA 91   (zeropage),y   A:0 X:FF Y:1A P:24 SP:FF
9719 C7BB            DEY 88        implied   A:0 X:FF Y:1A P:24 SP:FF
9722 C7BC            BNE D0      immediate   A:0 X:FF Y:19 P:24 SP:FF
9725 C7B9            STA 91   (zeropage),y   A:0 X:FF Y:19 P:24 SP:FF
9732 C7BB            DEY 88        implied   A:0 X:FF Y:19 P:24 SP:FF
9735 C7BC            BNE D0      immediate   A:0 X:FF Y:18 P:24 SP:FF
9738 C7B9            STA 91   (zeropage),y   A:0 X:FF Y:18 P:24 SP:FF
9745 C7BB            DEY 88        implied   A:0 X:FF Y:18 P:24 SP:FF
9748 C7BC            BNE D0      immediate   A:0 X:FF Y:17 P:24 SP:FF
9751 C7B9            STA 91   (zeropage),y   A:0 X:FF Y:17 P:24 SP:FF
9758 C7BB            DEY 88        implied   A:0 X:FF Y:17 P:24 SP:FF
9761 C7BC            BNE D0      immediate   A:0 X:FF Y:16 P:24 SP:FF
9764 C7B9            STA 91   (zeropage),y   A:0 X:FF Y:16 P:24 SP:FF
9771 C7BB            DEY 88        implied   A:0 X:FF Y:16 P:24 SP:FF
9774 C7BC            BNE D0      immediate   A:0 X:FF Y:15 P:24 SP:FF
9777 C7B9            STA 91   (zeropage),y   A:0 X:FF Y:15 P:24 SP:FF
9784 C7BB            DEY 88        implied   A:0 X:FF Y:15 P:24 SP:FF
9787 C7BC            BNE D0      immediate   A:0 X:FF Y:14 P:24 SP:FF
9790 C7B9            STA 91   (zeropage),y   A:0 X:FF Y:14 P:24 SP:FF
9797 C7BB            DEY 88        implied   A:0 X:FF Y:14 P:24 SP:FF
9800 C7BC            BNE D0      immediate   A:0 X:FF Y:13 P:24 SP:FF
9803 C7B9            STA 91   (zeropage),y   A:0 X:FF Y:13 P:24 SP:FF
9810 C7BB            DEY 88        implied   A:0 X:FF Y:13 P:24 SP:FF
9813 C7BC            BNE D0      immediate   A:0 X:FF Y:12 P:24 SP:FF
9816 C7B9            STA 91   (zeropage),y   A:0 X:FF Y:12 P:24 SP:FF
9823 C7BB            DEY 88        implied   A:0 X:FF Y:12 P:24 SP:FF
9826 C7BC            BNE D0      immediate   A:0 X:FF Y:11 P:24 SP:FF
9829 C7B9            STA 91   (zeropage),y   A:0 X:FF Y:11 P:24 SP:FF
9836 C7BB            DEY 88        implied   A:0 X:FF Y:11 P:24 SP:FF
9839 C7BC            BNE D0      immediate   A:0 X:FF Y:10 P:24 SP:FF
9842 C7B9            STA 91   (zeropage),y   A:0 X:FF Y:10 P:24 SP:FF
9849 C7BB            DEY 88        implied   A:0 X:FF Y:10 P:24 SP:FF
9852 C7BC            BNE D0      immediate   A:0 X:FF Y:F P:24 SP:FF
9855 C7B9            STA 91   (zeropage),y   A:0 X:FF Y:F P:24 SP:FF
9862 C7BB            DEY 88        implied   A:0 X:FF Y:F P:24 SP:FF
9865 C7BC            BNE D0      immediate   A:0 X:FF Y:E P:24 SP:FF
9868 C7B9            STA 91   (zeropage),y   A:0 X:FF Y:E P:24 SP:FF
9875 C7BB            DEY 88        implied   A:0 X:FF Y:E P:24 SP:FF
9878 C7BC            BNE D0      immediate   A:0 X:FF Y:D P:24 SP:FF
9881 C7B9            STA 91   (zeropage),y   A:0 X:FF Y:D P:24 SP:FF
9888 C7BB            DEY 88        implied   A:0 X:FF Y:D P:24 SP:FF
9891 C7BC            BNE D0      immediate   A:0 X:FF Y:C P:24 SP:FF
9894 C7B9            STA 91   (zeropage),y   A:0 X:FF Y:C P:24 SP:FF
9901 C7BB            DEY 88        implied   A:0 X:FF Y:C P:24 SP:FF
9904 C7BC            BNE D0      immediate   A:0 X:FF Y:B P:24 SP:FF
9907 C7B9            STA 91   (zeropage),y   A:0 X:FF Y:B P:24 SP:FF
9914 C7BB            DEY 88        implied   A:0 X:FF Y:B P:24 SP:FF
9917 C7BC            BNE D0      immediate   A:0 X:FF Y:A P:24 SP:FF
9920 C7B9            STA 91   (zeropage),y   A:0 X:FF Y:A P:24 SP:FF
9927 C7BB            DEY 88        implied   A:0 X:FF Y:A P:24 SP:FF
9930 C7BC            BNE D0      immediate   A:0 X:FF Y:9 P:24 SP:FF
9933 C7B9            STA 91   (zeropage),y   A:0 X:FF Y:9 P:24 SP:FF
9940 C7BB            DEY 88        implied   A:0 X:FF Y:9 P:24 SP:FF
9943 C7BC            BNE D0      immediate   A:0 X:FF Y:8 P:24 SP:FF
9946 C7B9            STA 91   (zeropage),y   A:0 X:FF Y:8 P:24 SP:FF
9953 C7BB            DEY 88        implied   A:0 X:FF Y:8 P:24 SP:FF
9956 C7BC            BNE D0      immediate   A:0 X:FF Y:7 P:24 SP:FF
9959 C7B9            STA 91   (zeropage),y   A:0 X:FF Y:7 P:24 SP:FF
9966 C7BB            DEY 88        implied   A:0 X:FF Y:7 P:24 SP:FF
9969 C7BC            BNE D0      immediate   A:0 X:FF Y:6 P:24 SP:FF
9972 C7B9            STA 91   (zeropage),y   A:0 X:FF Y:6 P:24 SP:FF
9979 C7BB            DEY 88        implied   A:0 X:FF Y:6 P:24 SP:FF
9982 C7BC            BNE D0      immediate   A:0 X:FF Y:5 P:24 SP:FF
9985 C7B9            STA 91   (zeropage),y   A:0 X:FF Y:5 P:24 SP:FF
9992 C7BB            DEY 88        implied   A:0 X:FF Y:5 P:24 SP:FF
9995 C7BC            BNE D0      immediate   A:0 X:FF Y:4 P:24 SP:FF
9998 C7B9            STA 91   (zeropage),y   A:0 X:FF Y:4 P:24 SP:FF
10005 C7BB            DEY 88        implied   A:0 X:FF Y:4 P:24 SP:FF
10008 C7BC            BNE D0      immediate   A:0 X:FF Y:3 P:24 SP:FF
10011 C7B9            STA 91   (zeropage),y   A:0 X:FF Y:3 P:24 SP:FF
10018 C7BB            DEY 88        implied   A:0 X:FF Y:3 P:24 SP:FF
10021 C7BC            BNE D0      immediate   A:0 X:FF Y:2 P:24 SP:FF
10024 C7B9            STA 91   (zeropage),y   A:0 X:FF Y:2 P:24 SP:FF
10031 C7BB            DEY 88        implied   A:0 X:FF Y:2 P:24 SP:FF
10034 C7BC            BNE D0      immediate   A:0 X:FF Y:1 P:24 SP:FF
10037 C7B9            STA 91   (zeropage),y   A:0 X:FF Y:1 P:24 SP:FF
10044 C7BB            DEY 88        implied   A:0 X:FF Y:1 P:24 SP:FF
10047 C7BC            BNE D0      immediate   A:0 X:FF Y:0 P:26 SP:FF
10050 C7BE            DEC C6       zeropage   A:0 X:FF Y:0 P:26 SP:FF
10056 C7C0            BPL 10      immediate   A:0 X:FF Y:0 P:24 SP:FF
10059 C7B9            STA 91   (zeropage),y   A:0 X:FF Y:0 P:24 SP:FF
10066 C7BB            DEY 88        implied   A:0 X:FF Y:0 P:24 SP:FF
10069 C7BC            BNE D0      immediate   A:0 X:FF Y:FF P:A4 SP:FF
10072 C7B9            STA 91   (zeropage),y   A:0 X:FF Y:FF P:A4 SP:FF
10079 C7BB            DEY 88        implied   A:0 X:FF Y:FF P:A4 SP:FF
10082 C7BC            BNE D0      immediate   A:0 X:FF Y:FE P:A4 SP:FF
10085 C7B9            STA 91   (zeropage),y   A:0 X:FF Y:FE P:A4 SP:FF
10092 C7BB            DEY 88        implied   A:0 X:FF Y:FE P:A4 SP:FF
10095 C7BC            BNE D0      immediate   A:0 X:FF Y:FD P:A4 SP:FF
10098 C7B9            STA 91   (zeropage),y   A:0 X:FF Y:FD P:A4 SP:FF
10105 C7BB            DEY 88        implied   A:0 X:FF Y:FD P:A4 SP:FF
10108 C7BC            BNE D0      immediate   A:0 X:FF Y:FC P:A4 SP:FF
10111 C7B9            STA 91   (zeropage),y   A:0 X:FF Y:FC P:A4 SP:FF
10118 C7BB            DEY 88        implied   A:0 X:FF Y:FC P:A4 SP:FF
10121 C7BC            BNE D0      immediate   A:0 X:FF Y:FB P:A4 SP:FF
10124 C7B9            STA 91   (zeropage),y   A:0 X:FF Y:FB P:A4 SP:FF
10131 C7BB            DEY 88        implied   A:0 X:FF Y:FB P:A4 SP:FF
10134 C7BC            BNE D0      immediate   A:0 X:FF Y:FA P:A4 SP:FF
10137 C7B9            STA 91   (zeropage),y   A:0 X:FF Y:FA P:A4 SP:FF
10144 C7BB            DEY 88        implied   A:0 X:FF Y:FA P:A4 SP:FF
10147 C7BC            BNE D0      immediate   A:0 X:FF Y:F9 P:A4 SP:FF
10150 C7B9            STA 91   (zeropage),y   A:0 X:FF Y:F9 P:A4 SP:FF
10157 C7BB            DEY 88        implied   A:0 X:FF Y:F9 P:A4 SP:FF
10160 C7BC            BNE D0      immediate   A:0 X:FF Y:F8 P:A4 SP:FF
10163 C7B9            STA 91   (zeropage),y   A:0 X:FF Y:F8 P:A4 SP:FF
10170 C7BB            DEY 88        implied   A:0 X:FF Y:F8 P:A4 SP:FF
10173 C7BC            BNE D0      immediate   A:0 X:FF Y:F7 P:A4 SP:FF
10176 C7B9            STA 91   (zeropage),y   A:0 X:FF Y:F7 P:A4 SP:FF
10183 C7BB            DEY 88        implied   A:0 X:FF Y:F7 P:A4 SP:FF
10186 C7BC            BNE D0      immediate   A:0 X:FF Y:F6 P:A4 SP:FF
10189 C7B9            STA 91   (zeropage),y   A:0 X:FF Y:F6 P:A4 SP:FF
10196 C7BB            DEY 88        implied   A:0 X:FF Y:F6 P:A4 SP:FF
10199 C7BC            BNE D0      immediate   A:0 X:FF Y:F5 P:A4 SP:FF
10202 C7B9            STA 91   (zeropage),y   A:0 X:FF Y:F5 P:A4 SP:FF
10209 C7BB            DEY 88        implied   A:0 X:FF Y:F5 P:A4 SP:FF
10212 C7BC            BNE D0      immediate   A:0 X:FF Y:F4 P:A4 SP:FF
10215 C7B9            STA 91   (zeropage),y   A:0 X:FF Y:F4 P:A4 SP:FF
10222 C7BB            DEY 88        implied   A:0 X:FF Y:F4 P:A4 SP:FF
10225 C7BC            BNE D0      immediate   A:0 X:FF Y:F3 P:A4 SP:FF
10228 C7B9            STA 91   (zeropage),y   A:0 X:FF Y:F3 P:A4 SP:FF
10235 C7BB            DEY 88        implied   A:0 X:FF Y:F3 P:A4 SP:FF
10238 C7BC            BNE D0      immediate   A:0 X:FF Y:F2 P:A4 SP:FF
10241 C7B9            STA 91   (zeropage),y   A:0 X:FF Y:F2 P:A4 SP:FF
10248 C7BB            DEY 88        implied   A:0 X:FF Y:F2 P:A4 SP:FF
10251 C7BC            BNE D0      immediate   A:0 X:FF Y:F1 P:A4 SP:FF
10254 C7B9            STA 91   (zeropage),y   A:0 X:FF Y:F1 P:A4 SP:FF
10261 C7BB            DEY 88        implied   A:0 X:FF Y:F1 P:A4 SP:FF
10264 C7BC            BNE D0      immediate   A:0 X:FF Y:F0 P:A4 SP:FF
10267 C7B9            STA 91   (zeropage),y   A:0 X:FF Y:F0 P:A4 SP:FF
10274 C7BB            DEY 88        implied   A:0 X:FF Y:F0 P:A4 SP:FF
10277 C7BC            BNE D0      immediate   A:0 X:FF Y:EF P:A4 SP:FF
10280 C7B9            STA 91   (zeropage),y   A:0 X:FF Y:EF P:A4 SP:FF
10287 C7BB            DEY 88        implied   A:0 X:FF Y:EF P:A4 SP:FF
10290 C7BC            BNE D0      immediate   A:0 X:FF Y:EE P:A4 SP:FF
10293 C7B9            STA 91   (zeropage),y   A:0 X:FF Y:EE P:A4 SP:FF
10300 C7BB            DEY 88        implied   A:0 X:FF Y:EE P:A4 SP:FF
10303 C7BC            BNE D0      immediate   A:0 X:FF Y:ED P:A4 SP:FF
10306 C7B9            STA 91   (zeropage),y   A:0 X:FF Y:ED P:A4 SP:FF
10313 C7BB            DEY 88        implied   A:0 X:FF Y:ED P:A4 SP:FF
10316 C7BC            BNE D0      immediate   A:0 X:FF Y:EC P:A4 SP:FF
10319 C7B9            STA 91   (zeropage),y   A:0 X:FF Y:EC P:A4 SP:FF
10326 C7BB            DEY 88        implied   A:0 X:FF Y:EC P:A4 SP:FF
10329 C7BC            BNE D0      immediate   A:0 X:FF Y:EB P:A4 SP:FF
10332 C7B9            STA 91   (zeropage),y   A:0 X:FF Y:EB P:A4 SP:FF
10339 C7BB            DEY 88        implied   A:0 X:FF Y:EB P:A4 SP:FF
10342 C7BC            BNE D0      immediate   A:0 X:FF Y:EA P:A4 SP:FF
10345 C7B9            STA 91   (zeropage),y   A:0 X:FF Y:EA P:A4 SP:FF
10352 C7BB            DEY 88        implied   A:0 X:FF Y:EA P:A4 SP:FF
10355 C7BC            BNE D0      immediate   A:0 X:FF Y:E9 P:A4 SP:FF
10358 C7B9            STA 91   (zeropage),y   A:0 X:FF Y:E9 P:A4 SP:FF
10365 C7BB            DEY 88        implied   A:0 X:FF Y:E9 P:A4 SP:FF
10368 C7BC            BNE D0      immediate   A:0 X:FF Y:E8 P:A4 SP:FF
10371 C7B9            STA 91   (zeropage),y   A:0 X:FF Y:E8 P:A4 SP:FF
10378 C7BB            DEY 88        implied   A:0 X:FF Y:E8 P:A4 SP:FF
10381 C7BC            BNE D0      immediate   A:0 X:FF Y:E7 P:A4 SP:FF
10384 C7B9            STA 91   (zeropage),y   A:0 X:FF Y:E7 P:A4 SP:FF
10391 C7BB            DEY 88        implied   A:0 X:FF Y:E7 P:A4 SP:FF
10394 C7BC            BNE D0      immediate   A:0 X:FF Y:E6 P:A4 SP:FF
10397 C7B9            STA 91   (zeropage),y   A:0 X:FF Y:E6 P:A4 SP:FF
10404 C7BB            DEY 88        implied   A:0 X:FF Y:E6 P:A4 SP:FF
10407 C7BC            BNE D0      immediate   A:0 X:FF Y:E5 P:A4 SP:FF
10410 C7B9            STA 91   (zeropage),y   A:0 X:FF Y:E5 P:A4 SP:FF
10417 C7BB            DEY 88        implied   A:0 X:FF Y:E5 P:A4 SP:FF
10420 C7BC            BNE D0      immediate   A:0 X:FF Y:E4 P:A4 SP:FF
10423 C7B9            STA 91   (zeropage),y   A:0 X:FF Y:E4 P:A4 SP:FF
10430 C7BB            DEY 88        implied   A:0 X:FF Y:E4 P:A4 SP:FF
10433 C7BC            BNE D0      immediate   A:0 X:FF Y:E3 P:A4 SP:FF
10436 C7B9            STA 91   (zeropage),y   A:0 X:FF Y:E3 P:A4 SP:FF
10443 C7BB            DEY 88        implied   A:0 X:FF Y:E3 P:A4 SP:FF
10446 C7BC            BNE D0      immediate   A:0 X:FF Y:E2 P:A4 SP:FF
10449 C7B9            STA 91   (zeropage),y   A:0 X:FF Y:E2 P:A4 SP:FF
10456 C7BB            DEY 88        implied   A:0 X:FF Y:E2 P:A4 SP:FF
10459 C7BC            BNE D0      immediate   A:0 X:FF Y:E1 P:A4 SP:FF
10462 C7B9            STA 91   (zeropage),y   A:0 X:FF Y:E1 P:A4 SP:FF
10469 C7BB            DEY 88        implied   A:0 X:FF Y:E1 P:A4 SP:FF
10472 C7BC            BNE D0      immediate   A:0 X:FF Y:E0 P:A4 SP:FF
10475 C7B9            STA 91   (zeropage),y   A:0 X:FF Y:E0 P:A4 SP:FF
10482 C7BB            DEY 88        implied   A:0 X:FF Y:E0 P:A4 SP:FF
10485 C7BC            BNE D0      immediate   A:0 X:FF Y:DF P:A4 SP:FF
10488 C7B9            STA 91   (zeropage),y   A:0 X:FF Y:DF P:A4 SP:FF
10495 C7BB            DEY 88        implied   A:0 X:FF Y:DF P:A4 SP:FF
10498 C7BC            BNE D0      immediate   A:0 X:FF Y:DE P:A4 SP:FF
10501 C7B9            STA 91   (zeropage),y   A:0 X:FF Y:DE P:A4 SP:FF
10508 C7BB            DEY 88        implied   A:0 X:FF Y:DE P:A4 SP:FF
10511 C7BC            BNE D0      immediate   A:0 X:FF Y:DD P:A4 SP:FF
10514 C7B9            STA 91   (zeropage),y   A:0 X:FF Y:DD P:A4 SP:FF
10521 C7BB            DEY 88        implied   A:0 X:FF Y:DD P:A4 SP:FF
10524 C7BC            BNE D0      immediate   A:0 X:FF Y:DC P:A4 SP:FF
10527 C7B9            STA 91   (zeropage),y   A:0 X:FF Y:DC P:A4 SP:FF
10534 C7BB            DEY 88        implied   A:0 X:FF Y:DC P:A4 SP:FF
10537 C7BC            BNE D0      immediate   A:0 X:FF Y:DB P:A4 SP:FF
10540 C7B9            STA 91   (zeropage),y   A:0 X:FF Y:DB P:A4 SP:FF
10547 C7BB            DEY 88        implied   A:0 X:FF Y:DB P:A4 SP:FF
10550 C7BC            BNE D0      immediate   A:0 X:FF Y:DA P:A4 SP:FF
10553 C7B9            STA 91   (zeropage),y   A:0 X:FF Y:DA P:A4 SP:FF
10560 C7BB            DEY 88        implied   A:0 X:FF Y:DA P:A4 SP:FF
10563 C7BC            BNE D0      immediate   A:0 X:FF Y:D9 P:A4 SP:FF
10566 C7B9            STA 91   (zeropage),y   A:0 X:FF Y:D9 P:A4 SP:FF
10573 C7BB            DEY 88        implied   A:0 X:FF Y:D9 P:A4 SP:FF
10576 C7BC            BNE D0      immediate   A:0 X:FF Y:D8 P:A4 SP:FF
10579 C7B9            STA 91   (zeropage),y   A:0 X:FF Y:D8 P:A4 SP:FF
10586 C7BB            DEY 88        implied   A:0 X:FF Y:D8 P:A4 SP:FF
10589 C7BC            BNE D0      immediate   A:0 X:FF Y:D7 P:A4 SP:FF
10592 C7B9            STA 91   (zeropage),y   A:0 X:FF Y:D7 P:A4 SP:FF
10599 C7BB            DEY 88        implied   A:0 X:FF Y:D7 P:A4 SP:FF
10602 C7BC            BNE D0      immediate   A:0 X:FF Y:D6 P:A4 SP:FF
10605 C7B9            STA 91   (zeropage),y   A:0 X:FF Y:D6 P:A4 SP:FF
10612 C7BB            DEY 88        implied   A:0 X:FF Y:D6 P:A4 SP:FF
10615 C7BC            BNE D0      immediate   A:0 X:FF Y:D5 P:A4 SP:FF
10618 C7B9            STA 91   (zeropage),y   A:0 X:FF Y:D5 P:A4 SP:FF
10625 C7BB            DEY 88        implied   A:0 X:FF Y:D5 P:A4 SP:FF
10628 C7BC            BNE D0      immediate   A:0 X:FF Y:D4 P:A4 SP:FF
10631 C7B9            STA 91   (zeropage),y   A:0 X:FF Y:D4 P:A4 SP:FF
10638 C7BB            DEY 88        implied   A:0 X:FF Y:D4 P:A4 SP:FF
10641 C7BC            BNE D0      immediate   A:0 X:FF Y:D3 P:A4 SP:FF
10644 C7B9            STA 91   (zeropage),y   A:0 X:FF Y:D3 P:A4 SP:FF
10651 C7BB            DEY 88        implied   A:0 X:FF Y:D3 P:A4 SP:FF
10654 C7BC            BNE D0      immediate   A:0 X:FF Y:D2 P:A4 SP:FF
10657 C7B9            STA 91   (zeropage),y   A:0 X:FF Y:D2 P:A4 SP:FF
10664 C7BB            DEY 88        implied   A:0 X:FF Y:D2 P:A4 SP:FF
10667 C7BC            BNE D0      immediate   A:0 X:FF Y:D1 P:A4 SP:FF
10670 C7B9            STA 91   (zeropage),y   A:0 X:FF Y:D1 P:A4 SP:FF
10677 C7BB            DEY 88        implied   A:0 X:FF Y:D1 P:A4 SP:FF
10680 C7BC            BNE D0      immediate   A:0 X:FF Y:D0 P:A4 SP:FF
10683 C7B9            STA 91   (zeropage),y   A:0 X:FF Y:D0 P:A4 SP:FF
10690 C7BB            DEY 88        implied   A:0 X:FF Y:D0 P:A4 SP:FF
10693 C7BC            BNE D0      immediate   A:0 X:FF Y:CF P:A4 SP:FF
10696 C7B9            STA 91   (zeropage),y   A:0 X:FF Y:CF P:A4 SP:FF
10703 C7BB            DEY 88        implied   A:0 X:FF Y:CF P:A4 SP:FF
10706 C7BC            BNE D0      immediate   A:0 X:FF Y:CE P:A4 SP:FF
10709 C7B9            STA 91   (zeropage),y   A:0 X:FF Y:CE P:A4 SP:FF
10716 C7BB            DEY 88        implied   A:0 X:FF Y:CE P:A4 SP:FF
10719 C7BC            BNE D0      immediate   A:0 X:FF Y:CD P:A4 SP:FF
10722 C7B9            STA 91   (zeropage),y   A:0 X:FF Y:CD P:A4 SP:FF
10729 C7BB            DEY 88        implied   A:0 X:FF Y:CD P:A4 SP:FF
10732 C7BC            BNE D0      immediate   A:0 X:FF Y:CC P:A4 SP:FF
10735 C7B9            STA 91   (zeropage),y   A:0 X:FF Y:CC P:A4 SP:FF
10742 C7BB            DEY 88        implied   A:0 X:FF Y:CC P:A4 SP:FF
10745 C7BC            BNE D0      immediate   A:0 X:FF Y:CB P:A4 SP:FF
10748 C7B9            STA 91   (zeropage),y   A:0 X:FF Y:CB P:A4 SP:FF
10755 C7BB            DEY 88        implied   A:0 X:FF Y:CB P:A4 SP:FF
10758 C7BC            BNE D0      immediate   A:0 X:FF Y:CA P:A4 SP:FF
10761 C7B9            STA 91   (zeropage),y   A:0 X:FF Y:CA P:A4 SP:FF
10768 C7BB            DEY 88        implied   A:0 X:FF Y:CA P:A4 SP:FF
10771 C7BC            BNE D0      immediate   A:0 X:FF Y:C9 P:A4 SP:FF
10774 C7B9            STA 91   (zeropage),y   A:0 X:FF Y:C9 P:A4 SP:FF
10781 C7BB            DEY 88        implied   A:0 X:FF Y:C9 P:A4 SP:FF
10784 C7BC            BNE D0      immediate   A:0 X:FF Y:C8 P:A4 SP:FF
10787 C7B9            STA 91   (zeropage),y   A:0 X:FF Y:C8 P:A4 SP:FF
10794 C7BB            DEY 88        implied   A:0 X:FF Y:C8 P:A4 SP:FF
10797 C7BC            BNE D0      immediate   A:0 X:FF Y:C7 P:A4 SP:FF
10800 C7B9            STA 91   (zeropage),y   A:0 X:FF Y:C7 P:A4 SP:FF
10807 C7BB            DEY 88        implied   A:0 X:FF Y:C7 P:A4 SP:FF
10810 C7BC            BNE D0      immediate   A:0 X:FF Y:C6 P:A4 SP:FF
10813 C7B9            STA 91   (zeropage),y   A:0 X:FF Y:C6 P:A4 SP:FF
10820 C7BB            DEY 88        implied   A:0 X:FF Y:C6 P:A4 SP:FF
10823 C7BC            BNE D0      immediate   A:0 X:FF Y:C5 P:A4 SP:FF
10826 C7B9            STA 91   (zeropage),y   A:0 X:FF Y:C5 P:A4 SP:FF
10833 C7BB            DEY 88        implied   A:0 X:FF Y:C5 P:A4 SP:FF
10836 C7BC            BNE D0      immediate   A:0 X:FF Y:C4 P:A4 SP:FF
10839 C7B9            STA 91   (zeropage),y   A:0 X:FF Y:C4 P:A4 SP:FF
10846 C7BB            DEY 88        implied   A:0 X:FF Y:C4 P:A4 SP:FF
10849 C7BC            BNE D0      immediate   A:0 X:FF Y:C3 P:A4 SP:FF
10852 C7B9            STA 91   (zeropage),y   A:0 X:FF Y:C3 P:A4 SP:FF
10859 C7BB            DEY 88        implied   A:0 X:FF Y:C3 P:A4 SP:FF
10862 C7BC            BNE D0      immediate   A:0 X:FF Y:C2 P:A4 SP:FF
10865 C7B9            STA 91   (zeropage),y   A:0 X:FF Y:C2 P:A4 SP:FF
10872 C7BB            DEY 88        implied   A:0 X:FF Y:C2 P:A4 SP:FF
10875 C7BC            BNE D0      immediate   A:0 X:FF Y:C1 P:A4 SP:FF
10878 C7B9            STA 91   (zeropage),y   A:0 X:FF Y:C1 P:A4 SP:FF
10885 C7BB            DEY 88        implied   A:0 X:FF Y:C1 P:A4 SP:FF
10888 C7BC            BNE D0      immediate   A:0 X:FF Y:C0 P:A4 SP:FF
10891 C7B9            STA 91   (zeropage),y   A:0 X:FF Y:C0 P:A4 SP:FF
10898 C7BB            DEY 88        implied   A:0 X:FF Y:C0 P:A4 SP:FF
10901 C7BC            BNE D0      immediate   A:0 X:FF Y:BF P:A4 SP:FF
10904 C7B9            STA 91   (zeropage),y   A:0 X:FF Y:BF P:A4 SP:FF
10911 C7BB            DEY 88        implied   A:0 X:FF Y:BF P:A4 SP:FF
10914 C7BC            BNE D0      immediate   A:0 X:FF Y:BE P:A4 SP:FF
10917 C7B9            STA 91   (zeropage),y   A:0 X:FF Y:BE P:A4 SP:FF
10924 C7BB            DEY 88        implied   A:0 X:FF Y:BE P:A4 SP:FF
10927 C7BC            BNE D0      immediate   A:0 X:FF Y:BD P:A4 SP:FF
10930 C7B9            STA 91   (zeropage),y   A:0 X:FF Y:BD P:A4 SP:FF
10937 C7BB            DEY 88        implied   A:0 X:FF Y:BD P:A4 SP:FF
10940 C7BC            BNE D0      immediate   A:0 X:FF Y:BC P:A4 SP:FF
10943 C7B9            STA 91   (zeropage),y   A:0 X:FF Y:BC P:A4 SP:FF
10950 C7BB            DEY 88        implied   A:0 X:FF Y:BC P:A4 SP:FF
10953 C7BC            BNE D0      immediate   A:0 X:FF Y:BB P:A4 SP:FF
10956 C7B9            STA 91   (zeropage),y   A:0 X:FF Y:BB P:A4 SP:FF
10963 C7BB            DEY 88        implied   A:0 X:FF Y:BB P:A4 SP:FF
10966 C7BC            BNE D0      immediate   A:0 X:FF Y:BA P:A4 SP:FF
10969 C7B9            STA 91   (zeropage),y   A:0 X:FF Y:BA P:A4 SP:FF
10976 C7BB            DEY 88        implied   A:0 X:FF Y:BA P:A4 SP:FF
10979 C7BC            BNE D0      immediate   A:0 X:FF Y:B9 P:A4 SP:FF
10982 C7B9            STA 91   (zeropage),y   A:0 X:FF Y:B9 P:A4 SP:FF
10989 C7BB            DEY 88        implied   A:0 X:FF Y:B9 P:A4 SP:FF
10992 C7BC            BNE D0      immediate   A:0 X:FF Y:B8 P:A4 SP:FF
10995 C7B9            STA 91   (zeropage),y   A:0 X:FF Y:B8 P:A4 SP:FF
11002 C7BB            DEY 88        implied   A:0 X:FF Y:B8 P:A4 SP:FF
11005 C7BC            BNE D0      immediate   A:0 X:FF Y:B7 P:A4 SP:FF
11008 C7B9            STA 91   (zeropage),y   A:0 X:FF Y:B7 P:A4 SP:FF
11015 C7BB            DEY 88        implied   A:0 X:FF Y:B7 P:A4 SP:FF
11018 C7BC            BNE D0      immediate   A:0 X:FF Y:B6 P:A4 SP:FF
11021 C7B9            STA 91   (zeropage),y   A:0 X:FF Y:B6 P:A4 SP:FF
11028 C7BB            DEY 88        implied   A:0 X:FF Y:B6 P:A4 SP:FF
11031 C7BC            BNE D0      immediate   A:0 X:FF Y:B5 P:A4 SP:FF
11034 C7B9            STA 91   (zeropage),y   A:0 X:FF Y:B5 P:A4 SP:FF
11041 C7BB            DEY 88        implied   A:0 X:FF Y:B5 P:A4 SP:FF
11044 C7BC            BNE D0      immediate   A:0 X:FF Y:B4 P:A4 SP:FF
11047 C7B9            STA 91   (zeropage),y   A:0 X:FF Y:B4 P:A4 SP:FF
11054 C7BB            DEY 88        implied   A:0 X:FF Y:B4 P:A4 SP:FF
11057 C7BC            BNE D0      immediate   A:0 X:FF Y:B3 P:A4 SP:FF
11060 C7B9            STA 91   (zeropage),y   A:0 X:FF Y:B3 P:A4 SP:FF
11067 C7BB            DEY 88        implied   A:0 X:FF Y:B3 P:A4 SP:FF
11070 C7BC            BNE D0      immediate   A:0 X:FF Y:B2 P:A4 SP:FF
11073 C7B9            STA 91   (zeropage),y   A:0 X:FF Y:B2 P:A4 SP:FF
11080 C7BB            DEY 88        implied   A:0 X:FF Y:B2 P:A4 SP:FF
11083 C7BC            BNE D0      immediate   A:0 X:FF Y:B1 P:A4 SP:FF
11086 C7B9            STA 91   (zeropage),y   A:0 X:FF Y:B1 P:A4 SP:FF
11093 C7BB            DEY 88        implied   A:0 X:FF Y:B1 P:A4 SP:FF
11096 C7BC            BNE D0      immediate   A:0 X:FF Y:B0 P:A4 SP:FF
11099 C7B9            STA 91   (zeropage),y   A:0 X:FF Y:B0 P:A4 SP:FF
11106 C7BB            DEY 88        implied   A:0 X:FF Y:B0 P:A4 SP:FF
11109 C7BC            BNE D0      immediate   A:0 X:FF Y:AF P:A4 SP:FF
11112 C7B9            STA 91   (zeropage),y   A:0 X:FF Y:AF P:A4 SP:FF
11119 C7BB            DEY 88        implied   A:0 X:FF Y:AF P:A4 SP:FF
11122 C7BC            BNE D0      immediate   A:0 X:FF Y:AE P:A4 SP:FF
11125 C7B9            STA 91   (zeropage),y   A:0 X:FF Y:AE P:A4 SP:FF
11132 C7BB            DEY 88        implied   A:0 X:FF Y:AE P:A4 SP:FF
11135 C7BC            BNE D0      immediate   A:0 X:FF Y:AD P:A4 SP:FF
11138 C7B9            STA 91   (zeropage),y   A:0 X:FF Y:AD P:A4 SP:FF
11145 C7BB            DEY 88        implied   A:0 X:FF Y:AD P:A4 SP:FF
11148 C7BC            BNE D0      immediate   A:0 X:FF Y:AC P:A4 SP:FF
11151 C7B9            STA 91   (zeropage),y   A:0 X:FF Y:AC P:A4 SP:FF
11158 C7BB            DEY 88        implied   A:0 X:FF Y:AC P:A4 SP:FF
11161 C7BC            BNE D0      immediate   A:0 X:FF Y:AB P:A4 SP:FF
11164 C7B9            STA 91   (zeropage),y   A:0 X:FF Y:AB P:A4 SP:FF
11171 C7BB            DEY 88        implied   A:0 X:FF Y:AB P:A4 SP:FF
11174 C7BC            BNE D0      immediate   A:0 X:FF Y:AA P:A4 SP:FF
11177 C7B9            STA 91   (zeropage),y   A:0 X:FF Y:AA P:A4 SP:FF
11184 C7BB            DEY 88        implied   A:0 X:FF Y:AA P:A4 SP:FF
11187 C7BC            BNE D0      immediate   A:0 X:FF Y:A9 P:A4 SP:FF
11190 C7B9            STA 91   (zeropage),y   A:0 X:FF Y:A9 P:A4 SP:FF
11197 C7BB            DEY 88        implied   A:0 X:FF Y:A9 P:A4 SP:FF
11200 C7BC            BNE D0      immediate   A:0 X:FF Y:A8 P:A4 SP:FF
11203 C7B9            STA 91   (zeropage),y   A:0 X:FF Y:A8 P:A4 SP:FF
11210 C7BB            DEY 88        implied   A:0 X:FF Y:A8 P:A4 SP:FF
11213 C7BC            BNE D0      immediate   A:0 X:FF Y:A7 P:A4 SP:FF
11216 C7B9            STA 91   (zeropage),y   A:0 X:FF Y:A7 P:A4 SP:FF
11223 C7BB            DEY 88        implied   A:0 X:FF Y:A7 P:A4 SP:FF
11226 C7BC            BNE D0      immediate   A:0 X:FF Y:A6 P:A4 SP:FF
11229 C7B9            STA 91   (zeropage),y   A:0 X:FF Y:A6 P:A4 SP:FF
11236 C7BB            DEY 88        implied   A:0 X:FF Y:A6 P:A4 SP:FF
11239 C7BC            BNE D0      immediate   A:0 X:FF Y:A5 P:A4 SP:FF
11242 C7B9            STA 91   (zeropage),y   A:0 X:FF Y:A5 P:A4 SP:FF
11249 C7BB            DEY 88        implied   A:0 X:FF Y:A5 P:A4 SP:FF
11252 C7BC            BNE D0      immediate   A:0 X:FF Y:A4 P:A4 SP:FF
11255 C7B9            STA 91   (zeropage),y   A:0 X:FF Y:A4 P:A4 SP:FF
11262 C7BB            DEY 88        implied   A:0 X:FF Y:A4 P:A4 SP:FF
11265 C7BC            BNE D0      immediate   A:0 X:FF Y:A3 P:A4 SP:FF
11268 C7B9            STA 91   (zeropage),y   A:0 X:FF Y:A3 P:A4 SP:FF
11275 C7BB            DEY 88        implied   A:0 X:FF Y:A3 P:A4 SP:FF
11278 C7BC            BNE D0      immediate   A:0 X:FF Y:A2 P:A4 SP:FF
11281 C7B9            STA 91   (zeropage),y   A:0 X:FF Y:A2 P:A4 SP:FF
11288 C7BB            DEY 88        implied   A:0 X:FF Y:A2 P:A4 SP:FF
11291 C7BC            BNE D0      immediate   A:0 X:FF Y:A1 P:A4 SP:FF
11294 C7B9            STA 91   (zeropage),y   A:0 X:FF Y:A1 P:A4 SP:FF
11301 C7BB            DEY 88        implied   A:0 X:FF Y:A1 P:A4 SP:FF
11304 C7BC            BNE D0      immediate   A:0 X:FF Y:A0 P:A4 SP:FF
11307 C7B9            STA 91   (zeropage),y   A:0 X:FF Y:A0 P:A4 SP:FF
11314 C7BB            DEY 88        implied   A:0 X:FF Y:A0 P:A4 SP:FF
11317 C7BC            BNE D0      immediate   A:0 X:FF Y:9F P:A4 SP:FF
11320 C7B9            STA 91   (zeropage),y   A:0 X:FF Y:9F P:A4 SP:FF
11327 C7BB            DEY 88        implied   A:0 X:FF Y:9F P:A4 SP:FF
11330 C7BC            BNE D0      immediate   A:0 X:FF Y:9E P:A4 SP:FF
11333 C7B9            STA 91   (zeropage),y   A:0 X:FF Y:9E P:A4 SP:FF
11340 C7BB            DEY 88        implied   A:0 X:FF Y:9E P:A4 SP:FF
11343 C7BC            BNE D0      immediate   A:0 X:FF Y:9D P:A4 SP:FF
11346 C7B9            STA 91   (zeropage),y   A:0 X:FF Y:9D P:A4 SP:FF
11353 C7BB            DEY 88        implied   A:0 X:FF Y:9D P:A4 SP:FF
11356 C7BC            BNE D0      immediate   A:0 X:FF Y:9C P:A4 SP:FF
11359 C7B9            STA 91   (zeropage),y   A:0 X:FF Y:9C P:A4 SP:FF
11366 C7BB            DEY 88        implied   A:0 X:FF Y:9C P:A4 SP:FF
11369 C7BC            BNE D0      immediate   A:0 X:FF Y:9B P:A4 SP:FF
11372 C7B9            STA 91   (zeropage),y   A:0 X:FF Y:9B P:A4 SP:FF
11379 C7BB            DEY 88        implied   A:0 X:FF Y:9B P:A4 SP:FF
11382 C7BC            BNE D0      immediate   A:0 X:FF Y:9A P:A4 SP:FF
11385 C7B9            STA 91   (zeropage),y   A:0 X:FF Y:9A P:A4 SP:FF
11392 C7BB            DEY 88        implied   A:0 X:FF Y:9A P:A4 SP:FF
11395 C7BC            BNE D0      immediate   A:0 X:FF Y:99 P:A4 SP:FF
11398 C7B9            STA 91   (zeropage),y   A:0 X:FF Y:99 P:A4 SP:FF
11405 C7BB            DEY 88        implied   A:0 X:FF Y:99 P:A4 SP:FF
11408 C7BC            BNE D0      immediate   A:0 X:FF Y:98 P:A4 SP:FF
11411 C7B9            STA 91   (zeropage),y   A:0 X:FF Y:98 P:A4 SP:FF
11418 C7BB            DEY 88        implied   A:0 X:FF Y:98 P:A4 SP:FF
11421 C7BC            BNE D0      immediate   A:0 X:FF Y:97 P:A4 SP:FF
11424 C7B9            STA 91   (zeropage),y   A:0 X:FF Y:97 P:A4 SP:FF
11431 C7BB            DEY 88        implied   A:0 X:FF Y:97 P:A4 SP:FF
11434 C7BC            BNE D0      immediate   A:0 X:FF Y:96 P:A4 SP:FF
11437 C7B9            STA 91   (zeropage),y   A:0 X:FF Y:96 P:A4 SP:FF
11444 C7BB            DEY 88        implied   A:0 X:FF Y:96 P:A4 SP:FF
11447 C7BC            BNE D0      immediate   A:0 X:FF Y:95 P:A4 SP:FF
11450 C7B9            STA 91   (zeropage),y   A:0 X:FF Y:95 P:A4 SP:FF
11457 C7BB            DEY 88        implied   A:0 X:FF Y:95 P:A4 SP:FF
11460 C7BC            BNE D0      immediate   A:0 X:FF Y:94 P:A4 SP:FF
11463 C7B9            STA 91   (zeropage),y   A:0 X:FF Y:94 P:A4 SP:FF
11470 C7BB            DEY 88        implied   A:0 X:FF Y:94 P:A4 SP:FF
11473 C7BC            BNE D0      immediate   A:0 X:FF Y:93 P:A4 SP:FF
11476 C7B9            STA 91   (zeropage),y   A:0 X:FF Y:93 P:A4 SP:FF
11483 C7BB            DEY 88        implied   A:0 X:FF Y:93 P:A4 SP:FF
11486 C7BC            BNE D0      immediate   A:0 X:FF Y:92 P:A4 SP:FF
11489 C7B9            STA 91   (zeropage),y   A:0 X:FF Y:92 P:A4 SP:FF
11496 C7BB            DEY 88        implied   A:0 X:FF Y:92 P:A4 SP:FF
11499 C7BC            BNE D0      immediate   A:0 X:FF Y:91 P:A4 SP:FF
11502 C7B9            STA 91   (zeropage),y   A:0 X:FF Y:91 P:A4 SP:FF
11509 C7BB            DEY 88        implied   A:0 X:FF Y:91 P:A4 SP:FF
11512 C7BC            BNE D0      immediate   A:0 X:FF Y:90 P:A4 SP:FF
11515 C7B9            STA 91   (zeropage),y   A:0 X:FF Y:90 P:A4 SP:FF
11522 C7BB            DEY 88        implied   A:0 X:FF Y:90 P:A4 SP:FF
11525 C7BC            BNE D0      immediate   A:0 X:FF Y:8F P:A4 SP:FF
11528 C7B9            STA 91   (zeropage),y   A:0 X:FF Y:8F P:A4 SP:FF
11535 C7BB            DEY 88        implied   A:0 X:FF Y:8F P:A4 SP:FF
11538 C7BC            BNE D0      immediate   A:0 X:FF Y:8E P:A4 SP:FF
11541 C7B9            STA 91   (zeropage),y   A:0 X:FF Y:8E P:A4 SP:FF
11548 C7BB            DEY 88        implied   A:0 X:FF Y:8E P:A4 SP:FF
11551 C7BC            BNE D0      immediate   A:0 X:FF Y:8D P:A4 SP:FF
11554 C7B9            STA 91   (zeropage),y   A:0 X:FF Y:8D P:A4 SP:FF
11561 C7BB            DEY 88        implied   A:0 X:FF Y:8D P:A4 SP:FF
11564 C7BC            BNE D0      immediate   A:0 X:FF Y:8C P:A4 SP:FF
11567 C7B9            STA 91   (zeropage),y   A:0 X:FF Y:8C P:A4 SP:FF
11574 C7BB            DEY 88        implied   A:0 X:FF Y:8C P:A4 SP:FF
11577 C7BC            BNE D0      immediate   A:0 X:FF Y:8B P:A4 SP:FF
11580 C7B9            STA 91   (zeropage),y   A:0 X:FF Y:8B P:A4 SP:FF
11587 C7BB            DEY 88        implied   A:0 X:FF Y:8B P:A4 SP:FF
11590 C7BC            BNE D0      immediate   A:0 X:FF Y:8A P:A4 SP:FF
11593 C7B9            STA 91   (zeropage),y   A:0 X:FF Y:8A P:A4 SP:FF
11600 C7BB            DEY 88        implied   A:0 X:FF Y:8A P:A4 SP:FF
11603 C7BC            BNE D0      immediate   A:0 X:FF Y:89 P:A4 SP:FF
11606 C7B9            STA 91   (zeropage),y   A:0 X:FF Y:89 P:A4 SP:FF
11613 C7BB            DEY 88        implied   A:0 X:FF Y:89 P:A4 SP:FF
11616 C7BC            BNE D0      immediate   A:0 X:FF Y:88 P:A4 SP:FF
11619 C7B9            STA 91   (zeropage),y   A:0 X:FF Y:88 P:A4 SP:FF
11626 C7BB            DEY 88        implied   A:0 X:FF Y:88 P:A4 SP:FF
11629 C7BC            BNE D0      immediate   A:0 X:FF Y:87 P:A4 SP:FF
11632 C7B9            STA 91   (zeropage),y   A:0 X:FF Y:87 P:A4 SP:FF
11639 C7BB            DEY 88        implied   A:0 X:FF Y:87 P:A4 SP:FF
11642 C7BC            BNE D0      immediate   A:0 X:FF Y:86 P:A4 SP:FF
11645 C7B9            STA 91   (zeropage),y   A:0 X:FF Y:86 P:A4 SP:FF
11652 C7BB            DEY 88        implied   A:0 X:FF Y:86 P:A4 SP:FF
11655 C7BC            BNE D0      immediate   A:0 X:FF Y:85 P:A4 SP:FF
11658 C7B9            STA 91   (zeropage),y   A:0 X:FF Y:85 P:A4 SP:FF
11665 C7BB            DEY 88        implied   A:0 X:FF Y:85 P:A4 SP:FF
11668 C7BC            BNE D0      immediate   A:0 X:FF Y:84 P:A4 SP:FF
11671 C7B9            STA 91   (zeropage),y   A:0 X:FF Y:84 P:A4 SP:FF
11678 C7BB            DEY 88        implied   A:0 X:FF Y:84 P:A4 SP:FF
11681 C7BC            BNE D0      immediate   A:0 X:FF Y:83 P:A4 SP:FF
11684 C7B9            STA 91   (zeropage),y   A:0 X:FF Y:83 P:A4 SP:FF
11691 C7BB            DEY 88        implied   A:0 X:FF Y:83 P:A4 SP:FF
11694 C7BC            BNE D0      immediate   A:0 X:FF Y:82 P:A4 SP:FF
11697 C7B9            STA 91   (zeropage),y   A:0 X:FF Y:82 P:A4 SP:FF
11704 C7BB            DEY 88        implied   A:0 X:FF Y:82 P:A4 SP:FF
11707 C7BC            BNE D0      immediate   A:0 X:FF Y:81 P:A4 SP:FF
11710 C7B9            STA 91   (zeropage),y   A:0 X:FF Y:81 P:A4 SP:FF
11717 C7BB            DEY 88        implied   A:0 X:FF Y:81 P:A4 SP:FF
11720 C7BC            BNE D0      immediate   A:0 X:FF Y:80 P:A4 SP:FF
11723 C7B9            STA 91   (zeropage),y   A:0 X:FF Y:80 P:A4 SP:FF
11730 C7BB            DEY 88        implied   A:0 X:FF Y:80 P:A4 SP:FF
11733 C7BC            BNE D0      immediate   A:0 X:FF Y:7F P:24 SP:FF
11736 C7B9            STA 91   (zeropage),y   A:0 X:FF Y:7F P:24 SP:FF
11743 C7BB            DEY 88        implied   A:0 X:FF Y:7F P:24 SP:FF
11746 C7BC            BNE D0      immediate   A:0 X:FF Y:7E P:24 SP:FF
11749 C7B9            STA 91   (zeropage),y   A:0 X:FF Y:7E P:24 SP:FF
11756 C7BB            DEY 88        implied   A:0 X:FF Y:7E P:24 SP:FF
11759 C7BC            BNE D0      immediate   A:0 X:FF Y:7D P:24 SP:FF
11762 C7B9            STA 91   (zeropage),y   A:0 X:FF Y:7D P:24 SP:FF
11769 C7BB            DEY 88        implied   A:0 X:FF Y:7D P:24 SP:FF
11772 C7BC            BNE D0      immediate   A:0 X:FF Y:7C P:24 SP:FF
11775 C7B9            STA 91   (zeropage),y   A:0 X:FF Y:7C P:24 SP:FF
11782 C7BB            DEY 88        implied   A:0 X:FF Y:7C P:24 SP:FF
11785 C7BC            BNE D0      immediate   A:0 X:FF Y:7B P:24 SP:FF
11788 C7B9            STA 91   (zeropage),y   A:0 X:FF Y:7B P:24 SP:FF
11795 C7BB            DEY 88        implied   A:0 X:FF Y:7B P:24 SP:FF
11798 C7BC            BNE D0      immediate   A:0 X:FF Y:7A P:24 SP:FF
11801 C7B9            STA 91   (zeropage),y   A:0 X:FF Y:7A P:24 SP:FF
11808 C7BB            DEY 88        implied   A:0 X:FF Y:7A P:24 SP:FF
11811 C7BC            BNE D0      immediate   A:0 X:FF Y:79 P:24 SP:FF
11814 C7B9            STA 91   (zeropage),y   A:0 X:FF Y:79 P:24 SP:FF
11821 C7BB            DEY 88        implied   A:0 X:FF Y:79 P:24 SP:FF
11824 C7BC            BNE D0      immediate   A:0 X:FF Y:78 P:24 SP:FF
11827 C7B9            STA 91   (zeropage),y   A:0 X:FF Y:78 P:24 SP:FF
11834 C7BB            DEY 88        implied   A:0 X:FF Y:78 P:24 SP:FF
11837 C7BC            BNE D0      immediate   A:0 X:FF Y:77 P:24 SP:FF
11840 C7B9            STA 91   (zeropage),y   A:0 X:FF Y:77 P:24 SP:FF
11847 C7BB            DEY 88        implied   A:0 X:FF Y:77 P:24 SP:FF
11850 C7BC            BNE D0      immediate   A:0 X:FF Y:76 P:24 SP:FF
11853 C7B9            STA 91   (zeropage),y   A:0 X:FF Y:76 P:24 SP:FF
11860 C7BB            DEY 88        implied   A:0 X:FF Y:76 P:24 SP:FF
11863 C7BC            BNE D0      immediate   A:0 X:FF Y:75 P:24 SP:FF
11866 C7B9            STA 91   (zeropage),y   A:0 X:FF Y:75 P:24 SP:FF
11873 C7BB            DEY 88        implied   A:0 X:FF Y:75 P:24 SP:FF
11876 C7BC            BNE D0      immediate   A:0 X:FF Y:74 P:24 SP:FF
11879 C7B9            STA 91   (zeropage),y   A:0 X:FF Y:74 P:24 SP:FF
11886 C7BB            DEY 88        implied   A:0 X:FF Y:74 P:24 SP:FF
11889 C7BC            BNE D0      immediate   A:0 X:FF Y:73 P:24 SP:FF
11892 C7B9            STA 91   (zeropage),y   A:0 X:FF Y:73 P:24 SP:FF
11899 C7BB            DEY 88        implied   A:0 X:FF Y:73 P:24 SP:FF
11902 C7BC            BNE D0      immediate   A:0 X:FF Y:72 P:24 SP:FF
11905 C7B9            STA 91   (zeropage),y   A:0 X:FF Y:72 P:24 SP:FF
11912 C7BB            DEY 88        implied   A:0 X:FF Y:72 P:24 SP:FF
11915 C7BC            BNE D0      immediate   A:0 X:FF Y:71 P:24 SP:FF
11918 C7B9            STA 91   (zeropage),y   A:0 X:FF Y:71 P:24 SP:FF
11925 C7BB            DEY 88        implied   A:0 X:FF Y:71 P:24 SP:FF
11928 C7BC            BNE D0      immediate   A:0 X:FF Y:70 P:24 SP:FF
11931 C7B9            STA 91   (zeropage),y   A:0 X:FF Y:70 P:24 SP:FF
11938 C7BB            DEY 88        implied   A:0 X:FF Y:70 P:24 SP:FF
11941 C7BC            BNE D0      immediate   A:0 X:FF Y:6F P:24 SP:FF
11944 C7B9            STA 91   (zeropage),y   A:0 X:FF Y:6F P:24 SP:FF
11951 C7BB            DEY 88        implied   A:0 X:FF Y:6F P:24 SP:FF
11954 C7BC            BNE D0      immediate   A:0 X:FF Y:6E P:24 SP:FF
11957 C7B9            STA 91   (zeropage),y   A:0 X:FF Y:6E P:24 SP:FF
11964 C7BB            DEY 88        implied   A:0 X:FF Y:6E P:24 SP:FF
11967 C7BC            BNE D0      immediate   A:0 X:FF Y:6D P:24 SP:FF
11970 C7B9            STA 91   (zeropage),y   A:0 X:FF Y:6D P:24 SP:FF
11977 C7BB            DEY 88        implied   A:0 X:FF Y:6D P:24 SP:FF
11980 C7BC            BNE D0      immediate   A:0 X:FF Y:6C P:24 SP:FF
11983 C7B9            STA 91   (zeropage),y   A:0 X:FF Y:6C P:24 SP:FF
11990 C7BB            DEY 88        implied   A:0 X:FF Y:6C P:24 SP:FF
11993 C7BC            BNE D0      immediate   A:0 X:FF Y:6B P:24 SP:FF
11996 C7B9            STA 91   (zeropage),y   A:0 X:FF Y:6B P:24 SP:FF
12003 C7BB            DEY 88        implied   A:0 X:FF Y:6B P:24 SP:FF
12006 C7BC            BNE D0      immediate   A:0 X:FF Y:6A P:24 SP:FF
12009 C7B9            STA 91   (zeropage),y   A:0 X:FF Y:6A P:24 SP:FF
12016 C7BB            DEY 88        implied   A:0 X:FF Y:6A P:24 SP:FF
12019 C7BC            BNE D0      immediate   A:0 X:FF Y:69 P:24 SP:FF
12022 C7B9            STA 91   (zeropage),y   A:0 X:FF Y:69 P:24 SP:FF
12029 C7BB            DEY 88        implied   A:0 X:FF Y:69 P:24 SP:FF
12032 C7BC            BNE D0      immediate   A:0 X:FF Y:68 P:24 SP:FF
12035 C7B9            STA 91   (zeropage),y   A:0 X:FF Y:68 P:24 SP:FF
12042 C7BB            DEY 88        implied   A:0 X:FF Y:68 P:24 SP:FF
12045 C7BC            BNE D0      immediate   A:0 X:FF Y:67 P:24 SP:FF
12048 C7B9            STA 91   (zeropage),y   A:0 X:FF Y:67 P:24 SP:FF
12055 C7BB            DEY 88        implied   A:0 X:FF Y:67 P:24 SP:FF
12058 C7BC            BNE D0      immediate   A:0 X:FF Y:66 P:24 SP:FF
12061 C7B9            STA 91   (zeropage),y   A:0 X:FF Y:66 P:24 SP:FF
12068 C7BB            DEY 88        implied   A:0 X:FF Y:66 P:24 SP:FF
12071 C7BC            BNE D0      immediate   A:0 X:FF Y:65 P:24 SP:FF
12074 C7B9            STA 91   (zeropage),y   A:0 X:FF Y:65 P:24 SP:FF
12081 C7BB            DEY 88        implied   A:0 X:FF Y:65 P:24 SP:FF
12084 C7BC            BNE D0      immediate   A:0 X:FF Y:64 P:24 SP:FF
12087 C7B9            STA 91   (zeropage),y   A:0 X:FF Y:64 P:24 SP:FF
12094 C7BB            DEY 88        implied   A:0 X:FF Y:64 P:24 SP:FF
12097 C7BC            BNE D0      immediate   A:0 X:FF Y:63 P:24 SP:FF
12100 C7B9            STA 91   (zeropage),y   A:0 X:FF Y:63 P:24 SP:FF
12107 C7BB            DEY 88        implied   A:0 X:FF Y:63 P:24 SP:FF
12110 C7BC            BNE D0      immediate   A:0 X:FF Y:62 P:24 SP:FF
12113 C7B9            STA 91   (zeropage),y   A:0 X:FF Y:62 P:24 SP:FF
12120 C7BB            DEY 88        implied   A:0 X:FF Y:62 P:24 SP:FF
12123 C7BC            BNE D0      immediate   A:0 X:FF Y:61 P:24 SP:FF
12126 C7B9            STA 91   (zeropage),y   A:0 X:FF Y:61 P:24 SP:FF
12133 C7BB            DEY 88        implied   A:0 X:FF Y:61 P:24 SP:FF
12136 C7BC            BNE D0      immediate   A:0 X:FF Y:60 P:24 SP:FF
12139 C7B9            STA 91   (zeropage),y   A:0 X:FF Y:60 P:24 SP:FF
12146 C7BB            DEY 88        implied   A:0 X:FF Y:60 P:24 SP:FF
12149 C7BC            BNE D0      immediate   A:0 X:FF Y:5F P:24 SP:FF
12152 C7B9            STA 91   (zeropage),y   A:0 X:FF Y:5F P:24 SP:FF
12159 C7BB            DEY 88        implied   A:0 X:FF Y:5F P:24 SP:FF
12162 C7BC            BNE D0      immediate   A:0 X:FF Y:5E P:24 SP:FF
12165 C7B9            STA 91   (zeropage),y   A:0 X:FF Y:5E P:24 SP:FF
12172 C7BB            DEY 88        implied   A:0 X:FF Y:5E P:24 SP:FF
12175 C7BC            BNE D0      immediate   A:0 X:FF Y:5D P:24 SP:FF
12178 C7B9            STA 91   (zeropage),y   A:0 X:FF Y:5D P:24 SP:FF
12185 C7BB            DEY 88        implied   A:0 X:FF Y:5D P:24 SP:FF
12188 C7BC            BNE D0      immediate   A:0 X:FF Y:5C P:24 SP:FF
12191 C7B9            STA 91   (zeropage),y   A:0 X:FF Y:5C P:24 SP:FF
12198 C7BB            DEY 88        implied   A:0 X:FF Y:5C P:24 SP:FF
12201 C7BC            BNE D0      immediate   A:0 X:FF Y:5B P:24 SP:FF
12204 C7B9            STA 91   (zeropage),y   A:0 X:FF Y:5B P:24 SP:FF
12211 C7BB            DEY 88        implied   A:0 X:FF Y:5B P:24 SP:FF
12214 C7BC            BNE D0      immediate   A:0 X:FF Y:5A P:24 SP:FF
12217 C7B9            STA 91   (zeropage),y   A:0 X:FF Y:5A P:24 SP:FF
12224 C7BB            DEY 88        implied   A:0 X:FF Y:5A P:24 SP:FF
12227 C7BC            BNE D0      immediate   A:0 X:FF Y:59 P:24 SP:FF
12230 C7B9            STA 91   (zeropage),y   A:0 X:FF Y:59 P:24 SP:FF
12237 C7BB            DEY 88        implied   A:0 X:FF Y:59 P:24 SP:FF
12240 C7BC            BNE D0      immediate   A:0 X:FF Y:58 P:24 SP:FF
12243 C7B9            STA 91   (zeropage),y   A:0 X:FF Y:58 P:24 SP:FF
12250 C7BB            DEY 88        implied   A:0 X:FF Y:58 P:24 SP:FF
12253 C7BC            BNE D0      immediate   A:0 X:FF Y:57 P:24 SP:FF
12256 C7B9            STA 91   (zeropage),y   A:0 X:FF Y:57 P:24 SP:FF
12263 C7BB            DEY 88        implied   A:0 X:FF Y:57 P:24 SP:FF
12266 C7BC            BNE D0      immediate   A:0 X:FF Y:56 P:24 SP:FF
12269 C7B9            STA 91   (zeropage),y   A:0 X:FF Y:56 P:24 SP:FF
12276 C7BB            DEY 88        implied   A:0 X:FF Y:56 P:24 SP:FF
12279 C7BC            BNE D0      immediate   A:0 X:FF Y:55 P:24 SP:FF
12282 C7B9            STA 91   (zeropage),y   A:0 X:FF Y:55 P:24 SP:FF
12289 C7BB            DEY 88        implied   A:0 X:FF Y:55 P:24 SP:FF
12292 C7BC            BNE D0      immediate   A:0 X:FF Y:54 P:24 SP:FF
12295 C7B9            STA 91   (zeropage),y   A:0 X:FF Y:54 P:24 SP:FF
12302 C7BB            DEY 88        implied   A:0 X:FF Y:54 P:24 SP:FF
12305 C7BC            BNE D0      immediate   A:0 X:FF Y:53 P:24 SP:FF
12308 C7B9            STA 91   (zeropage),y   A:0 X:FF Y:53 P:24 SP:FF
12315 C7BB            DEY 88        implied   A:0 X:FF Y:53 P:24 SP:FF
12318 C7BC            BNE D0      immediate   A:0 X:FF Y:52 P:24 SP:FF
12321 C7B9            STA 91   (zeropage),y   A:0 X:FF Y:52 P:24 SP:FF
12328 C7BB            DEY 88        implied   A:0 X:FF Y:52 P:24 SP:FF
12331 C7BC            BNE D0      immediate   A:0 X:FF Y:51 P:24 SP:FF
12334 C7B9            STA 91   (zeropage),y   A:0 X:FF Y:51 P:24 SP:FF
12341 C7BB            DEY 88        implied   A:0 X:FF Y:51 P:24 SP:FF
12344 C7BC            BNE D0      immediate   A:0 X:FF Y:50 P:24 SP:FF
12347 C7B9            STA 91   (zeropage),y   A:0 X:FF Y:50 P:24 SP:FF
12354 C7BB            DEY 88        implied   A:0 X:FF Y:50 P:24 SP:FF
12357 C7BC            BNE D0      immediate   A:0 X:FF Y:4F P:24 SP:FF
12360 C7B9            STA 91   (zeropage),y   A:0 X:FF Y:4F P:24 SP:FF
12367 C7BB            DEY 88        implied   A:0 X:FF Y:4F P:24 SP:FF
12370 C7BC            BNE D0      immediate   A:0 X:FF Y:4E P:24 SP:FF
12373 C7B9            STA 91   (zeropage),y   A:0 X:FF Y:4E P:24 SP:FF
12380 C7BB            DEY 88        implied   A:0 X:FF Y:4E P:24 SP:FF
12383 C7BC            BNE D0      immediate   A:0 X:FF Y:4D P:24 SP:FF
12386 C7B9            STA 91   (zeropage),y   A:0 X:FF Y:4D P:24 SP:FF
12393 C7BB            DEY 88        implied   A:0 X:FF Y:4D P:24 SP:FF
12396 C7BC            BNE D0      immediate   A:0 X:FF Y:4C P:24 SP:FF
12399 C7B9            STA 91   (zeropage),y   A:0 X:FF Y:4C P:24 SP:FF
12406 C7BB            DEY 88        implied   A:0 X:FF Y:4C P:24 SP:FF
12409 C7BC            BNE D0      immediate   A:0 X:FF Y:4B P:24 SP:FF
12412 C7B9            STA 91   (zeropage),y   A:0 X:FF Y:4B P:24 SP:FF
12419 C7BB            DEY 88        implied   A:0 X:FF Y:4B P:24 SP:FF
12422 C7BC            BNE D0      immediate   A:0 X:FF Y:4A P:24 SP:FF
12425 C7B9            STA 91   (zeropage),y   A:0 X:FF Y:4A P:24 SP:FF
12432 C7BB            DEY 88        implied   A:0 X:FF Y:4A P:24 SP:FF
12435 C7BC            BNE D0      immediate   A:0 X:FF Y:49 P:24 SP:FF
12438 C7B9            STA 91   (zeropage),y   A:0 X:FF Y:49 P:24 SP:FF
12445 C7BB            DEY 88        implied   A:0 X:FF Y:49 P:24 SP:FF
12448 C7BC            BNE D0      immediate   A:0 X:FF Y:48 P:24 SP:FF
12451 C7B9            STA 91   (zeropage),y   A:0 X:FF Y:48 P:24 SP:FF
12458 C7BB            DEY 88        implied   A:0 X:FF Y:48 P:24 SP:FF
12461 C7BC            BNE D0      immediate   A:0 X:FF Y:47 P:24 SP:FF
12464 C7B9            STA 91   (zeropage),y   A:0 X:FF Y:47 P:24 SP:FF
12471 C7BB            DEY 88        implied   A:0 X:FF Y:47 P:24 SP:FF
12474 C7BC            BNE D0      immediate   A:0 X:FF Y:46 P:24 SP:FF
12477 C7B9            STA 91   (zeropage),y   A:0 X:FF Y:46 P:24 SP:FF
12484 C7BB            DEY 88        implied   A:0 X:FF Y:46 P:24 SP:FF
12487 C7BC            BNE D0      immediate   A:0 X:FF Y:45 P:24 SP:FF
12490 C7B9            STA 91   (zeropage),y   A:0 X:FF Y:45 P:24 SP:FF
12497 C7BB            DEY 88        implied   A:0 X:FF Y:45 P:24 SP:FF
12500 C7BC            BNE D0      immediate   A:0 X:FF Y:44 P:24 SP:FF
12503 C7B9            STA 91   (zeropage),y   A:0 X:FF Y:44 P:24 SP:FF
12510 C7BB            DEY 88        implied   A:0 X:FF Y:44 P:24 SP:FF
12513 C7BC            BNE D0      immediate   A:0 X:FF Y:43 P:24 SP:FF
12516 C7B9            STA 91   (zeropage),y   A:0 X:FF Y:43 P:24 SP:FF
12523 C7BB            DEY 88        implied   A:0 X:FF Y:43 P:24 SP:FF
12526 C7BC            BNE D0      immediate   A:0 X:FF Y:42 P:24 SP:FF
12529 C7B9            STA 91   (zeropage),y   A:0 X:FF Y:42 P:24 SP:FF
12536 C7BB            DEY 88        implied   A:0 X:FF Y:42 P:24 SP:FF
12539 C7BC            BNE D0      immediate   A:0 X:FF Y:41 P:24 SP:FF
12542 C7B9            STA 91   (zeropage),y   A:0 X:FF Y:41 P:24 SP:FF
12549 C7BB            DEY 88        implied   A:0 X:FF Y:41 P:24 SP:FF
12552 C7BC            BNE D0      immediate   A:0 X:FF Y:40 P:24 SP:FF
12555 C7B9            STA 91   (zeropage),y   A:0 X:FF Y:40 P:24 SP:FF
12562 C7BB            DEY 88        implied   A:0 X:FF Y:40 P:24 SP:FF
12565 C7BC            BNE D0      immediate   A:0 X:FF Y:3F P:24 SP:FF
12568 C7B9            STA 91   (zeropage),y   A:0 X:FF Y:3F P:24 SP:FF
12575 C7BB            DEY 88        implied   A:0 X:FF Y:3F P:24 SP:FF
12578 C7BC            BNE D0      immediate   A:0 X:FF Y:3E P:24 SP:FF
12581 C7B9            STA 91   (zeropage),y   A:0 X:FF Y:3E P:24 SP:FF
12588 C7BB            DEY 88        implied   A:0 X:FF Y:3E P:24 SP:FF
12591 C7BC            BNE D0      immediate   A:0 X:FF Y:3D P:24 SP:FF
12594 C7B9            STA 91   (zeropage),y   A:0 X:FF Y:3D P:24 SP:FF
12601 C7BB            DEY 88        implied   A:0 X:FF Y:3D P:24 SP:FF
12604 C7BC            BNE D0      immediate   A:0 X:FF Y:3C P:24 SP:FF
12607 C7B9            STA 91   (zeropage),y   A:0 X:FF Y:3C P:24 SP:FF
12614 C7BB            DEY 88        implied   A:0 X:FF Y:3C P:24 SP:FF
12617 C7BC            BNE D0      immediate   A:0 X:FF Y:3B P:24 SP:FF
12620 C7B9            STA 91   (zeropage),y   A:0 X:FF Y:3B P:24 SP:FF
12627 C7BB            DEY 88        implied   A:0 X:FF Y:3B P:24 SP:FF
12630 C7BC            BNE D0      immediate   A:0 X:FF Y:3A P:24 SP:FF
12633 C7B9            STA 91   (zeropage),y   A:0 X:FF Y:3A P:24 SP:FF
12640 C7BB            DEY 88        implied   A:0 X:FF Y:3A P:24 SP:FF
12643 C7BC            BNE D0      immediate   A:0 X:FF Y:39 P:24 SP:FF
12646 C7B9            STA 91   (zeropage),y   A:0 X:FF Y:39 P:24 SP:FF
12653 C7BB            DEY 88        implied   A:0 X:FF Y:39 P:24 SP:FF
12656 C7BC            BNE D0      immediate   A:0 X:FF Y:38 P:24 SP:FF
12659 C7B9            STA 91   (zeropage),y   A:0 X:FF Y:38 P:24 SP:FF
12666 C7BB            DEY 88        implied   A:0 X:FF Y:38 P:24 SP:FF
12669 C7BC            BNE D0      immediate   A:0 X:FF Y:37 P:24 SP:FF
12672 C7B9            STA 91   (zeropage),y   A:0 X:FF Y:37 P:24 SP:FF
12679 C7BB            DEY 88        implied   A:0 X:FF Y:37 P:24 SP:FF
12682 C7BC            BNE D0      immediate   A:0 X:FF Y:36 P:24 SP:FF
12685 C7B9            STA 91   (zeropage),y   A:0 X:FF Y:36 P:24 SP:FF
12692 C7BB            DEY 88        implied   A:0 X:FF Y:36 P:24 SP:FF
12695 C7BC            BNE D0      immediate   A:0 X:FF Y:35 P:24 SP:FF
12698 C7B9            STA 91   (zeropage),y   A:0 X:FF Y:35 P:24 SP:FF
12705 C7BB            DEY 88        implied   A:0 X:FF Y:35 P:24 SP:FF
12708 C7BC            BNE D0      immediate   A:0 X:FF Y:34 P:24 SP:FF
12711 C7B9            STA 91   (zeropage),y   A:0 X:FF Y:34 P:24 SP:FF
12718 C7BB            DEY 88        implied   A:0 X:FF Y:34 P:24 SP:FF
12721 C7BC            BNE D0      immediate   A:0 X:FF Y:33 P:24 SP:FF
12724 C7B9            STA 91   (zeropage),y   A:0 X:FF Y:33 P:24 SP:FF
12731 C7BB            DEY 88        implied   A:0 X:FF Y:33 P:24 SP:FF
12734 C7BC            BNE D0      immediate   A:0 X:FF Y:32 P:24 SP:FF
12737 C7B9            STA 91   (zeropage),y   A:0 X:FF Y:32 P:24 SP:FF
12744 C7BB            DEY 88        implied   A:0 X:FF Y:32 P:24 SP:FF
12747 C7BC            BNE D0      immediate   A:0 X:FF Y:31 P:24 SP:FF
12750 C7B9            STA 91   (zeropage),y   A:0 X:FF Y:31 P:24 SP:FF
12757 C7BB            DEY 88        implied   A:0 X:FF Y:31 P:24 SP:FF
12760 C7BC            BNE D0      immediate   A:0 X:FF Y:30 P:24 SP:FF
12763 C7B9            STA 91   (zeropage),y   A:0 X:FF Y:30 P:24 SP:FF
12770 C7BB            DEY 88        implied   A:0 X:FF Y:30 P:24 SP:FF
12773 C7BC            BNE D0      immediate   A:0 X:FF Y:2F P:24 SP:FF
12776 C7B9            STA 91   (zeropage),y   A:0 X:FF Y:2F P:24 SP:FF
12783 C7BB            DEY 88        implied   A:0 X:FF Y:2F P:24 SP:FF
12786 C7BC            BNE D0      immediate   A:0 X:FF Y:2E P:24 SP:FF
12789 C7B9            STA 91   (zeropage),y   A:0 X:FF Y:2E P:24 SP:FF
12796 C7BB            DEY 88        implied   A:0 X:FF Y:2E P:24 SP:FF
12799 C7BC            BNE D0      immediate   A:0 X:FF Y:2D P:24 SP:FF
12802 C7B9            STA 91   (zeropage),y   A:0 X:FF Y:2D P:24 SP:FF
12809 C7BB            DEY 88        implied   A:0 X:FF Y:2D P:24 SP:FF
12812 C7BC            BNE D0      immediate   A:0 X:FF Y:2C P:24 SP:FF
12815 C7B9            STA 91   (zeropage),y   A:0 X:FF Y:2C P:24 SP:FF
12822 C7BB            DEY 88        implied   A:0 X:FF Y:2C P:24 SP:FF
12825 C7BC            BNE D0      immediate   A:0 X:FF Y:2B P:24 SP:FF
12828 C7B9            STA 91   (zeropage),y   A:0 X:FF Y:2B P:24 SP:FF
12835 C7BB            DEY 88        implied   A:0 X:FF Y:2B P:24 SP:FF
12838 C7BC            BNE D0      immediate   A:0 X:FF Y:2A P:24 SP:FF
12841 C7B9            STA 91   (zeropage),y   A:0 X:FF Y:2A P:24 SP:FF
12848 C7BB            DEY 88        implied   A:0 X:FF Y:2A P:24 SP:FF
12851 C7BC            BNE D0      immediate   A:0 X:FF Y:29 P:24 SP:FF
12854 C7B9            STA 91   (zeropage),y   A:0 X:FF Y:29 P:24 SP:FF
12861 C7BB            DEY 88        implied   A:0 X:FF Y:29 P:24 SP:FF
12864 C7BC            BNE D0      immediate   A:0 X:FF Y:28 P:24 SP:FF
12867 C7B9            STA 91   (zeropage),y   A:0 X:FF Y:28 P:24 SP:FF
12874 C7BB            DEY 88        implied   A:0 X:FF Y:28 P:24 SP:FF
12877 C7BC            BNE D0      immediate   A:0 X:FF Y:27 P:24 SP:FF
12880 C7B9            STA 91   (zeropage),y   A:0 X:FF Y:27 P:24 SP:FF
12887 C7BB            DEY 88        implied   A:0 X:FF Y:27 P:24 SP:FF
12890 C7BC            BNE D0      immediate   A:0 X:FF Y:26 P:24 SP:FF
12893 C7B9            STA 91   (zeropage),y   A:0 X:FF Y:26 P:24 SP:FF
12900 C7BB            DEY 88        implied   A:0 X:FF Y:26 P:24 SP:FF
12903 C7BC            BNE D0      immediate   A:0 X:FF Y:25 P:24 SP:FF
12906 C7B9            STA 91   (zeropage),y   A:0 X:FF Y:25 P:24 SP:FF
12913 C7BB            DEY 88        implied   A:0 X:FF Y:25 P:24 SP:FF
12916 C7BC            BNE D0      immediate   A:0 X:FF Y:24 P:24 SP:FF
12919 C7B9            STA 91   (zeropage),y   A:0 X:FF Y:24 P:24 SP:FF
12926 C7BB            DEY 88        implied   A:0 X:FF Y:24 P:24 SP:FF
12929 C7BC            BNE D0      immediate   A:0 X:FF Y:23 P:24 SP:FF
12932 C7B9            STA 91   (zeropage),y   A:0 X:FF Y:23 P:24 SP:FF
12939 C7BB            DEY 88        implied   A:0 X:FF Y:23 P:24 SP:FF
12942 C7BC            BNE D0      immediate   A:0 X:FF Y:22 P:24 SP:FF
12945 C7B9            STA 91   (zeropage),y   A:0 X:FF Y:22 P:24 SP:FF
12952 C7BB            DEY 88        implied   A:0 X:FF Y:22 P:24 SP:FF
12955 C7BC            BNE D0      immediate   A:0 X:FF Y:21 P:24 SP:FF
12958 C7B9            STA 91   (zeropage),y   A:0 X:FF Y:21 P:24 SP:FF
12965 C7BB            DEY 88        implied   A:0 X:FF Y:21 P:24 SP:FF
12968 C7BC            BNE D0      immediate   A:0 X:FF Y:20 P:24 SP:FF
12971 C7B9            STA 91   (zeropage),y   A:0 X:FF Y:20 P:24 SP:FF
12978 C7BB            DEY 88        implied   A:0 X:FF Y:20 P:24 SP:FF
12981 C7BC            BNE D0      immediate   A:0 X:FF Y:1F P:24 SP:FF
12984 C7B9            STA 91   (zeropage),y   A:0 X:FF Y:1F P:24 SP:FF
12991 C7BB            DEY 88        implied   A:0 X:FF Y:1F P:24 SP:FF
12994 C7BC            BNE D0      immediate   A:0 X:FF Y:1E P:24 SP:FF
12997 C7B9            STA 91   (zeropage),y   A:0 X:FF Y:1E P:24 SP:FF
13004 C7BB            DEY 88        implied   A:0 X:FF Y:1E P:24 SP:FF
13007 C7BC            BNE D0      immediate   A:0 X:FF Y:1D P:24 SP:FF
13010 C7B9            STA 91   (zeropage),y   A:0 X:FF Y:1D P:24 SP:FF
13017 C7BB            DEY 88        implied   A:0 X:FF Y:1D P:24 SP:FF
13020 C7BC            BNE D0      immediate   A:0 X:FF Y:1C P:24 SP:FF
13023 C7B9            STA 91   (zeropage),y   A:0 X:FF Y:1C P:24 SP:FF
13030 C7BB            DEY 88        implied   A:0 X:FF Y:1C P:24 SP:FF
13033 C7BC            BNE D0      immediate   A:0 X:FF Y:1B P:24 SP:FF
13036 C7B9            STA 91   (zeropage),y   A:0 X:FF Y:1B P:24 SP:FF
13043 C7BB            DEY 88        implied   A:0 X:FF Y:1B P:24 SP:FF
13046 C7BC            BNE D0      immediate   A:0 X:FF Y:1A P:24 SP:FF
13049 C7B9            STA 91   (zeropage),y   A:0 X:FF Y:1A P:24 SP:FF
13056 C7BB            DEY 88        implied   A:0 X:FF Y:1A P:24 SP:FF
13059 C7BC            BNE D0      immediate   A:0 X:FF Y:19 P:24 SP:FF
13062 C7B9            STA 91   (zeropage),y   A:0 X:FF Y:19 P:24 SP:FF
13069 C7BB            DEY 88        implied   A:0 X:FF Y:19 P:24 SP:FF
13072 C7BC            BNE D0      immediate   A:0 X:FF Y:18 P:24 SP:FF
13075 C7B9            STA 91   (zeropage),y   A:0 X:FF Y:18 P:24 SP:FF
13082 C7BB            DEY 88        implied   A:0 X:FF Y:18 P:24 SP:FF
13085 C7BC            BNE D0      immediate   A:0 X:FF Y:17 P:24 SP:FF
13088 C7B9            STA 91   (zeropage),y   A:0 X:FF Y:17 P:24 SP:FF
13095 C7BB            DEY 88        implied   A:0 X:FF Y:17 P:24 SP:FF
13098 C7BC            BNE D0      immediate   A:0 X:FF Y:16 P:24 SP:FF
13101 C7B9            STA 91   (zeropage),y   A:0 X:FF Y:16 P:24 SP:FF
13108 C7BB            DEY 88        implied   A:0 X:FF Y:16 P:24 SP:FF
13111 C7BC            BNE D0      immediate   A:0 X:FF Y:15 P:24 SP:FF
13114 C7B9            STA 91   (zeropage),y   A:0 X:FF Y:15 P:24 SP:FF
13121 C7BB            DEY 88        implied   A:0 X:FF Y:15 P:24 SP:FF
13124 C7BC            BNE D0      immediate   A:0 X:FF Y:14 P:24 SP:FF
13127 C7B9            STA 91   (zeropage),y   A:0 X:FF Y:14 P:24 SP:FF
13134 C7BB            DEY 88        implied   A:0 X:FF Y:14 P:24 SP:FF
13137 C7BC            BNE D0      immediate   A:0 X:FF Y:13 P:24 SP:FF
13140 C7B9            STA 91   (zeropage),y   A:0 X:FF Y:13 P:24 SP:FF
13147 C7BB            DEY 88        implied   A:0 X:FF Y:13 P:24 SP:FF
13150 C7BC            BNE D0      immediate   A:0 X:FF Y:12 P:24 SP:FF
13153 C7B9            STA 91   (zeropage),y   A:0 X:FF Y:12 P:24 SP:FF
13160 C7BB            DEY 88        implied   A:0 X:FF Y:12 P:24 SP:FF
13163 C7BC            BNE D0      immediate   A:0 X:FF Y:11 P:24 SP:FF
13166 C7B9            STA 91   (zeropage),y   A:0 X:FF Y:11 P:24 SP:FF
13173 C7BB            DEY 88        implied   A:0 X:FF Y:11 P:24 SP:FF
13176 C7BC            BNE D0      immediate   A:0 X:FF Y:10 P:24 SP:FF
13179 C7B9            STA 91   (zeropage),y   A:0 X:FF Y:10 P:24 SP:FF
13186 C7BB            DEY 88        implied   A:0 X:FF Y:10 P:24 SP:FF
13189 C7BC            BNE D0      immediate   A:0 X:FF Y:F P:24 SP:FF
13192 C7B9            STA 91   (zeropage),y   A:0 X:FF Y:F P:24 SP:FF
13199 C7BB            DEY 88        implied   A:0 X:FF Y:F P:24 SP:FF
13202 C7BC            BNE D0      immediate   A:0 X:FF Y:E P:24 SP:FF
13205 C7B9            STA 91   (zeropage),y   A:0 X:FF Y:E P:24 SP:FF
13212 C7BB            DEY 88        implied   A:0 X:FF Y:E P:24 SP:FF
13215 C7BC            BNE D0      immediate   A:0 X:FF Y:D P:24 SP:FF
13218 C7B9            STA 91   (zeropage),y   A:0 X:FF Y:D P:24 SP:FF
13225 C7BB            DEY 88        implied   A:0 X:FF Y:D P:24 SP:FF
13228 C7BC            BNE D0      immediate   A:0 X:FF Y:C P:24 SP:FF
13231 C7B9            STA 91   (zeropage),y   A:0 X:FF Y:C P:24 SP:FF
13238 C7BB            DEY 88        implied   A:0 X:FF Y:C P:24 SP:FF
13241 C7BC            BNE D0      immediate   A:0 X:FF Y:B P:24 SP:FF
13244 C7B9            STA 91   (zeropage),y   A:0 X:FF Y:B P:24 SP:FF
13251 C7BB            DEY 88        implied   A:0 X:FF Y:B P:24 SP:FF
13254 C7BC            BNE D0      immediate   A:0 X:FF Y:A P:24 SP:FF
13257 C7B9            STA 91   (zeropage),y   A:0 X:FF Y:A P:24 SP:FF
13264 C7BB            DEY 88        implied   A:0 X:FF Y:A P:24 SP:FF
13267 C7BC            BNE D0      immediate   A:0 X:FF Y:9 P:24 SP:FF
13270 C7B9            STA 91   (zeropage),y   A:0 X:FF Y:9 P:24 SP:FF
13277 C7BB            DEY 88        implied   A:0 X:FF Y:9 P:24 SP:FF
13280 C7BC            BNE D0      immediate   A:0 X:FF Y:8 P:24 SP:FF
13283 C7B9            STA 91   (zeropage),y   A:0 X:FF Y:8 P:24 SP:FF
13290 C7BB            DEY 88        implied   A:0 X:FF Y:8 P:24 SP:FF
13293 C7BC            BNE D0      immediate   A:0 X:FF Y:7 P:24 SP:FF
13296 C7B9            STA 91   (zeropage),y   A:0 X:FF Y:7 P:24 SP:FF
13303 C7BB            DEY 88        implied   A:0 X:FF Y:7 P:24 SP:FF
13306 C7BC            BNE D0      immediate   A:0 X:FF Y:6 P:24 SP:FF
13309 C7B9            STA 91   (zeropage),y   A:0 X:FF Y:6 P:24 SP:FF
13316 C7BB            DEY 88        implied   A:0 X:FF Y:6 P:24 SP:FF
13319 C7BC            BNE D0      immediate   A:0 X:FF Y:5 P:24 SP:FF
13322 C7B9            STA 91   (zeropage),y   A:0 X:FF Y:5 P:24 SP:FF
13329 C7BB            DEY 88        implied   A:0 X:FF Y:5 P:24 SP:FF
13332 C7BC            BNE D0      immediate   A:0 X:FF Y:4 P:24 SP:FF
13335 C7B9            STA 91   (zeropage),y   A:0 X:FF Y:4 P:24 SP:FF
13342 C7BB            DEY 88        implied   A:0 X:FF Y:4 P:24 SP:FF
13345 C7BC            BNE D0      immediate   A:0 X:FF Y:3 P:24 SP:FF
13348 C7B9            STA 91   (zeropage),y   A:0 X:FF Y:3 P:24 SP:FF
13355 C7BB            DEY 88        implied   A:0 X:FF Y:3 P:24 SP:FF
13358 C7BC            BNE D0      immediate   A:0 X:FF Y:2 P:24 SP:FF
13361 C7B9            STA 91   (zeropage),y   A:0 X:FF Y:2 P:24 SP:FF
13368 C7BB            DEY 88        implied   A:0 X:FF Y:2 P:24 SP:FF
13371 C7BC            BNE D0      immediate   A:0 X:FF Y:1 P:24 SP:FF
13374 C7B9            STA 91   (zeropage),y   A:0 X:FF Y:1 P:24 SP:FF
13381 C7BB            DEY 88        implied   A:0 X:FF Y:1 P:24 SP:FF
13384 C7BC            BNE D0      immediate   A:0 X:FF Y:0 P:26 SP:FF
13387 C7BE            DEC C6       zeropage   A:0 X:FF Y:0 P:26 SP:FF
13393 C7C0            BPL 10      immediate   A:0 X:FF Y:0 P:24 SP:FF
13396 C7B9            STA 91   (zeropage),y   A:0 X:FF Y:0 P:24 SP:FF
13403 C7BB            DEY 88        implied   A:0 X:FF Y:0 P:24 SP:FF
13406 C7BC            BNE D0      immediate   A:0 X:FF Y:FF P:A4 SP:FF
13409 C7B9            STA 91   (zeropage),y   A:0 X:FF Y:FF P:A4 SP:FF
13416 C7BB            DEY 88        implied   A:0 X:FF Y:FF P:A4 SP:FF
13419 C7BC            BNE D0      immediate   A:0 X:FF Y:FE P:A4 SP:FF
13422 C7B9            STA 91   (zeropage),y   A:0 X:FF Y:FE P:A4 SP:FF
13429 C7BB            DEY 88        implied   A:0 X:FF Y:FE P:A4 SP:FF
13432 C7BC            BNE D0      immediate   A:0 X:FF Y:FD P:A4 SP:FF
13435 C7B9            STA 91   (zeropage),y   A:0 X:FF Y:FD P:A4 SP:FF
13442 C7BB            DEY 88        implied   A:0 X:FF Y:FD P:A4 SP:FF
13445 C7BC            BNE D0      immediate   A:0 X:FF Y:FC P:A4 SP:FF
13448 C7B9            STA 91   (zeropage),y   A:0 X:FF Y:FC P:A4 SP:FF
13455 C7BB            DEY 88        implied   A:0 X:FF Y:FC P:A4 SP:FF
13458 C7BC            BNE D0      immediate   A:0 X:FF Y:FB P:A4 SP:FF
13461 C7B9            STA 91   (zeropage),y   A:0 X:FF Y:FB P:A4 SP:FF
13468 C7BB            DEY 88        implied   A:0 X:FF Y:FB P:A4 SP:FF
13471 C7BC            BNE D0      immediate   A:0 X:FF Y:FA P:A4 SP:FF
13474 C7B9            STA 91   (zeropage),y   A:0 X:FF Y:FA P:A4 SP:FF
13481 C7BB            DEY 88        implied   A:0 X:FF Y:FA P:A4 SP:FF
13484 C7BC            BNE D0      immediate   A:0 X:FF Y:F9 P:A4 SP:FF
13487 C7B9            STA 91   (zeropage),y   A:0 X:FF Y:F9 P:A4 SP:FF
13494 C7BB            DEY 88        implied   A:0 X:FF Y:F9 P:A4 SP:FF
13497 C7BC            BNE D0      immediate   A:0 X:FF Y:F8 P:A4 SP:FF
13500 C7B9            STA 91   (zeropage),y   A:0 X:FF Y:F8 P:A4 SP:FF
13507 C7BB            DEY 88        implied   A:0 X:FF Y:F8 P:A4 SP:FF
13510 C7BC            BNE D0      immediate   A:0 X:FF Y:F7 P:A4 SP:FF
13513 C7B9            STA 91   (zeropage),y   A:0 X:FF Y:F7 P:A4 SP:FF
13520 C7BB            DEY 88        implied   A:0 X:FF Y:F7 P:A4 SP:FF
13523 C7BC            BNE D0      immediate   A:0 X:FF Y:F6 P:A4 SP:FF
13526 C7B9            STA 91   (zeropage),y   A:0 X:FF Y:F6 P:A4 SP:FF
13533 C7BB            DEY 88        implied   A:0 X:FF Y:F6 P:A4 SP:FF
13536 C7BC            BNE D0      immediate   A:0 X:FF Y:F5 P:A4 SP:FF
13539 C7B9            STA 91   (zeropage),y   A:0 X:FF Y:F5 P:A4 SP:FF
13546 C7BB            DEY 88        implied   A:0 X:FF Y:F5 P:A4 SP:FF
13549 C7BC            BNE D0      immediate   A:0 X:FF Y:F4 P:A4 SP:FF
13552 C7B9            STA 91   (zeropage),y   A:0 X:FF Y:F4 P:A4 SP:FF
13559 C7BB            DEY 88        implied   A:0 X:FF Y:F4 P:A4 SP:FF
13562 C7BC            BNE D0      immediate   A:0 X:FF Y:F3 P:A4 SP:FF
13565 C7B9            STA 91   (zeropage),y   A:0 X:FF Y:F3 P:A4 SP:FF
13572 C7BB            DEY 88        implied   A:0 X:FF Y:F3 P:A4 SP:FF
13575 C7BC            BNE D0      immediate   A:0 X:FF Y:F2 P:A4 SP:FF
13578 C7B9            STA 91   (zeropage),y   A:0 X:FF Y:F2 P:A4 SP:FF
13585 C7BB            DEY 88        implied   A:0 X:FF Y:F2 P:A4 SP:FF
13588 C7BC            BNE D0      immediate   A:0 X:FF Y:F1 P:A4 SP:FF
13591 C7B9            STA 91   (zeropage),y   A:0 X:FF Y:F1 P:A4 SP:FF
13598 C7BB            DEY 88        implied   A:0 X:FF Y:F1 P:A4 SP:FF
13601 C7BC            BNE D0      immediate   A:0 X:FF Y:F0 P:A4 SP:FF
13604 C7B9            STA 91   (zeropage),y   A:0 X:FF Y:F0 P:A4 SP:FF
13611 C7BB            DEY 88        implied   A:0 X:FF Y:F0 P:A4 SP:FF
13614 C7BC            BNE D0      immediate   A:0 X:FF Y:EF P:A4 SP:FF
13617 C7B9            STA 91   (zeropage),y   A:0 X:FF Y:EF P:A4 SP:FF
13624 C7BB            DEY 88        implied   A:0 X:FF Y:EF P:A4 SP:FF
13627 C7BC            BNE D0      immediate   A:0 X:FF Y:EE P:A4 SP:FF
13630 C7B9            STA 91   (zeropage),y   A:0 X:FF Y:EE P:A4 SP:FF
13637 C7BB            DEY 88        implied   A:0 X:FF Y:EE P:A4 SP:FF
13640 C7BC            BNE D0      immediate   A:0 X:FF Y:ED P:A4 SP:FF
13643 C7B9            STA 91   (zeropage),y   A:0 X:FF Y:ED P:A4 SP:FF
13650 C7BB            DEY 88        implied   A:0 X:FF Y:ED P:A4 SP:FF
13653 C7BC            BNE D0      immediate   A:0 X:FF Y:EC P:A4 SP:FF
13656 C7B9            STA 91   (zeropage),y   A:0 X:FF Y:EC P:A4 SP:FF
13663 C7BB            DEY 88        implied   A:0 X:FF Y:EC P:A4 SP:FF
13666 C7BC            BNE D0      immediate   A:0 X:FF Y:EB P:A4 SP:FF
13669 C7B9            STA 91   (zeropage),y   A:0 X:FF Y:EB P:A4 SP:FF
13676 C7BB            DEY 88        implied   A:0 X:FF Y:EB P:A4 SP:FF
13679 C7BC            BNE D0      immediate   A:0 X:FF Y:EA P:A4 SP:FF
13682 C7B9            STA 91   (zeropage),y   A:0 X:FF Y:EA P:A4 SP:FF
13689 C7BB            DEY 88        implied   A:0 X:FF Y:EA P:A4 SP:FF
13692 C7BC            BNE D0      immediate   A:0 X:FF Y:E9 P:A4 SP:FF
13695 C7B9            STA 91   (zeropage),y   A:0 X:FF Y:E9 P:A4 SP:FF
13702 C7BB            DEY 88        implied   A:0 X:FF Y:E9 P:A4 SP:FF
13705 C7BC            BNE D0      immediate   A:0 X:FF Y:E8 P:A4 SP:FF
13708 C7B9            STA 91   (zeropage),y   A:0 X:FF Y:E8 P:A4 SP:FF
13715 C7BB            DEY 88        implied   A:0 X:FF Y:E8 P:A4 SP:FF
13718 C7BC            BNE D0      immediate   A:0 X:FF Y:E7 P:A4 SP:FF
13721 C7B9            STA 91   (zeropage),y   A:0 X:FF Y:E7 P:A4 SP:FF
13728 C7BB            DEY 88        implied   A:0 X:FF Y:E7 P:A4 SP:FF
13731 C7BC            BNE D0      immediate   A:0 X:FF Y:E6 P:A4 SP:FF
13734 C7B9            STA 91   (zeropage),y   A:0 X:FF Y:E6 P:A4 SP:FF
13741 C7BB            DEY 88        implied   A:0 X:FF Y:E6 P:A4 SP:FF
13744 C7BC            BNE D0      immediate   A:0 X:FF Y:E5 P:A4 SP:FF
13747 C7B9            STA 91   (zeropage),y   A:0 X:FF Y:E5 P:A4 SP:FF
13754 C7BB            DEY 88        implied   A:0 X:FF Y:E5 P:A4 SP:FF
13757 C7BC            BNE D0      immediate   A:0 X:FF Y:E4 P:A4 SP:FF
13760 C7B9            STA 91   (zeropage),y   A:0 X:FF Y:E4 P:A4 SP:FF
13767 C7BB            DEY 88        implied   A:0 X:FF Y:E4 P:A4 SP:FF
13770 C7BC            BNE D0      immediate   A:0 X:FF Y:E3 P:A4 SP:FF
13773 C7B9            STA 91   (zeropage),y   A:0 X:FF Y:E3 P:A4 SP:FF
13780 C7BB            DEY 88        implied   A:0 X:FF Y:E3 P:A4 SP:FF
13783 C7BC            BNE D0      immediate   A:0 X:FF Y:E2 P:A4 SP:FF
13786 C7B9            STA 91   (zeropage),y   A:0 X:FF Y:E2 P:A4 SP:FF
13793 C7BB            DEY 88        implied   A:0 X:FF Y:E2 P:A4 SP:FF
13796 C7BC            BNE D0      immediate   A:0 X:FF Y:E1 P:A4 SP:FF
13799 C7B9            STA 91   (zeropage),y   A:0 X:FF Y:E1 P:A4 SP:FF
13806 C7BB            DEY 88        implied   A:0 X:FF Y:E1 P:A4 SP:FF
13809 C7BC            BNE D0      immediate   A:0 X:FF Y:E0 P:A4 SP:FF
13812 C7B9            STA 91   (zeropage),y   A:0 X:FF Y:E0 P:A4 SP:FF
13819 C7BB            DEY 88        implied   A:0 X:FF Y:E0 P:A4 SP:FF
13822 C7BC            BNE D0      immediate   A:0 X:FF Y:DF P:A4 SP:FF
13825 C7B9            STA 91   (zeropage),y   A:0 X:FF Y:DF P:A4 SP:FF
13832 C7BB            DEY 88        implied   A:0 X:FF Y:DF P:A4 SP:FF
13835 C7BC            BNE D0      immediate   A:0 X:FF Y:DE P:A4 SP:FF
13838 C7B9            STA 91   (zeropage),y   A:0 X:FF Y:DE P:A4 SP:FF
13845 C7BB            DEY 88        implied   A:0 X:FF Y:DE P:A4 SP:FF
13848 C7BC            BNE D0      immediate   A:0 X:FF Y:DD P:A4 SP:FF
13851 C7B9            STA 91   (zeropage),y   A:0 X:FF Y:DD P:A4 SP:FF
13858 C7BB            DEY 88        implied   A:0 X:FF Y:DD P:A4 SP:FF
13861 C7BC            BNE D0      immediate   A:0 X:FF Y:DC P:A4 SP:FF
13864 C7B9            STA 91   (zeropage),y   A:0 X:FF Y:DC P:A4 SP:FF
13871 C7BB            DEY 88        implied   A:0 X:FF Y:DC P:A4 SP:FF
13874 C7BC            BNE D0      immediate   A:0 X:FF Y:DB P:A4 SP:FF
13877 C7B9            STA 91   (zeropage),y   A:0 X:FF Y:DB P:A4 SP:FF
13884 C7BB            DEY 88        implied   A:0 X:FF Y:DB P:A4 SP:FF
13887 C7BC            BNE D0      immediate   A:0 X:FF Y:DA P:A4 SP:FF
13890 C7B9            STA 91   (zeropage),y   A:0 X:FF Y:DA P:A4 SP:FF
13897 C7BB            DEY 88        implied   A:0 X:FF Y:DA P:A4 SP:FF
13900 C7BC            BNE D0      immediate   A:0 X:FF Y:D9 P:A4 SP:FF
13903 C7B9            STA 91   (zeropage),y   A:0 X:FF Y:D9 P:A4 SP:FF
13910 C7BB            DEY 88        implied   A:0 X:FF Y:D9 P:A4 SP:FF
13913 C7BC            BNE D0      immediate   A:0 X:FF Y:D8 P:A4 SP:FF
13916 C7B9            STA 91   (zeropage),y   A:0 X:FF Y:D8 P:A4 SP:FF
13923 C7BB            DEY 88        implied   A:0 X:FF Y:D8 P:A4 SP:FF
13926 C7BC            BNE D0      immediate   A:0 X:FF Y:D7 P:A4 SP:FF
13929 C7B9            STA 91   (zeropage),y   A:0 X:FF Y:D7 P:A4 SP:FF
13936 C7BB            DEY 88        implied   A:0 X:FF Y:D7 P:A4 SP:FF
13939 C7BC            BNE D0      immediate   A:0 X:FF Y:D6 P:A4 SP:FF
13942 C7B9            STA 91   (zeropage),y   A:0 X:FF Y:D6 P:A4 SP:FF
13949 C7BB            DEY 88        implied   A:0 X:FF Y:D6 P:A4 SP:FF
13952 C7BC            BNE D0      immediate   A:0 X:FF Y:D5 P:A4 SP:FF
13955 C7B9            STA 91   (zeropage),y   A:0 X:FF Y:D5 P:A4 SP:FF
13962 C7BB            DEY 88        implied   A:0 X:FF Y:D5 P:A4 SP:FF
13965 C7BC            BNE D0      immediate   A:0 X:FF Y:D4 P:A4 SP:FF
13968 C7B9            STA 91   (zeropage),y   A:0 X:FF Y:D4 P:A4 SP:FF
13975 C7BB            DEY 88        implied   A:0 X:FF Y:D4 P:A4 SP:FF
13978 C7BC            BNE D0      immediate   A:0 X:FF Y:D3 P:A4 SP:FF
13981 C7B9            STA 91   (zeropage),y   A:0 X:FF Y:D3 P:A4 SP:FF
13988 C7BB            DEY 88        implied   A:0 X:FF Y:D3 P:A4 SP:FF
13991 C7BC            BNE D0      immediate   A:0 X:FF Y:D2 P:A4 SP:FF
13994 C7B9            STA 91   (zeropage),y   A:0 X:FF Y:D2 P:A4 SP:FF
14001 C7BB            DEY 88        implied   A:0 X:FF Y:D2 P:A4 SP:FF
14004 C7BC            BNE D0      immediate   A:0 X:FF Y:D1 P:A4 SP:FF
14007 C7B9            STA 91   (zeropage),y   A:0 X:FF Y:D1 P:A4 SP:FF
14014 C7BB            DEY 88        implied   A:0 X:FF Y:D1 P:A4 SP:FF
14017 C7BC            BNE D0      immediate   A:0 X:FF Y:D0 P:A4 SP:FF
14020 C7B9            STA 91   (zeropage),y   A:0 X:FF Y:D0 P:A4 SP:FF
14027 C7BB            DEY 88        implied   A:0 X:FF Y:D0 P:A4 SP:FF
14030 C7BC            BNE D0      immediate   A:0 X:FF Y:CF P:A4 SP:FF
14033 C7B9            STA 91   (zeropage),y   A:0 X:FF Y:CF P:A4 SP:FF
14040 C7BB            DEY 88        implied   A:0 X:FF Y:CF P:A4 SP:FF
14043 C7BC            BNE D0      immediate   A:0 X:FF Y:CE P:A4 SP:FF
14046 C7B9            STA 91   (zeropage),y   A:0 X:FF Y:CE P:A4 SP:FF
14053 C7BB            DEY 88        implied   A:0 X:FF Y:CE P:A4 SP:FF
14056 C7BC            BNE D0      immediate   A:0 X:FF Y:CD P:A4 SP:FF
14059 C7B9            STA 91   (zeropage),y   A:0 X:FF Y:CD P:A4 SP:FF
14066 C7BB            DEY 88        implied   A:0 X:FF Y:CD P:A4 SP:FF
14069 C7BC            BNE D0      immediate   A:0 X:FF Y:CC P:A4 SP:FF
14072 C7B9            STA 91   (zeropage),y   A:0 X:FF Y:CC P:A4 SP:FF
14079 C7BB            DEY 88        implied   A:0 X:FF Y:CC P:A4 SP:FF
14082 C7BC            BNE D0      immediate   A:0 X:FF Y:CB P:A4 SP:FF
14085 C7B9            STA 91   (zeropage),y   A:0 X:FF Y:CB P:A4 SP:FF
14092 C7BB            DEY 88        implied   A:0 X:FF Y:CB P:A4 SP:FF
14095 C7BC            BNE D0      immediate   A:0 X:FF Y:CA P:A4 SP:FF
14098 C7B9            STA 91   (zeropage),y   A:0 X:FF Y:CA P:A4 SP:FF
14105 C7BB            DEY 88        implied   A:0 X:FF Y:CA P:A4 SP:FF
14108 C7BC            BNE D0      immediate   A:0 X:FF Y:C9 P:A4 SP:FF
14111 C7B9            STA 91   (zeropage),y   A:0 X:FF Y:C9 P:A4 SP:FF
14118 C7BB            DEY 88        implied   A:0 X:FF Y:C9 P:A4 SP:FF
14121 C7BC            BNE D0      immediate   A:0 X:FF Y:C8 P:A4 SP:FF
14124 C7B9            STA 91   (zeropage),y   A:0 X:FF Y:C8 P:A4 SP:FF
14131 C7BB            DEY 88        implied   A:0 X:FF Y:C8 P:A4 SP:FF
14134 C7BC            BNE D0      immediate   A:0 X:FF Y:C7 P:A4 SP:FF
14137 C7B9            STA 91   (zeropage),y   A:0 X:FF Y:C7 P:A4 SP:FF
14144 C7BB            DEY 88        implied   A:0 X:FF Y:C7 P:A4 SP:FF
14147 C7BC            BNE D0      immediate   A:0 X:FF Y:C6 P:A4 SP:FF
14150 C7B9            STA 91   (zeropage),y   A:0 X:FF Y:C6 P:A4 SP:FF
14157 C7BB            DEY 88        implied   A:0 X:FF Y:C6 P:A4 SP:FF
14160 C7BC            BNE D0      immediate   A:0 X:FF Y:C5 P:A4 SP:FF
14163 C7B9            STA 91   (zeropage),y   A:0 X:FF Y:C5 P:A4 SP:FF
14170 C7BB            DEY 88        implied   A:0 X:FF Y:C5 P:A4 SP:FF
14173 C7BC            BNE D0      immediate   A:0 X:FF Y:C4 P:A4 SP:FF
14176 C7B9            STA 91   (zeropage),y   A:0 X:FF Y:C4 P:A4 SP:FF
14183 C7BB            DEY 88        implied   A:0 X:FF Y:C4 P:A4 SP:FF
14186 C7BC            BNE D0      immediate   A:0 X:FF Y:C3 P:A4 SP:FF
14189 C7B9            STA 91   (zeropage),y   A:0 X:FF Y:C3 P:A4 SP:FF
14196 C7BB            DEY 88        implied   A:0 X:FF Y:C3 P:A4 SP:FF
14199 C7BC            BNE D0      immediate   A:0 X:FF Y:C2 P:A4 SP:FF
14202 C7B9            STA 91   (zeropage),y   A:0 X:FF Y:C2 P:A4 SP:FF
14209 C7BB            DEY 88        implied   A:0 X:FF Y:C2 P:A4 SP:FF
14212 C7BC            BNE D0      immediate   A:0 X:FF Y:C1 P:A4 SP:FF
14215 C7B9            STA 91   (zeropage),y   A:0 X:FF Y:C1 P:A4 SP:FF
14222 C7BB            DEY 88        implied   A:0 X:FF Y:C1 P:A4 SP:FF
14225 C7BC            BNE D0      immediate   A:0 X:FF Y:C0 P:A4 SP:FF
14228 C7B9            STA 91   (zeropage),y   A:0 X:FF Y:C0 P:A4 SP:FF
14235 C7BB            DEY 88        implied   A:0 X:FF Y:C0 P:A4 SP:FF
14238 C7BC            BNE D0      immediate   A:0 X:FF Y:BF P:A4 SP:FF
14241 C7B9            STA 91   (zeropage),y   A:0 X:FF Y:BF P:A4 SP:FF
14248 C7BB            DEY 88        implied   A:0 X:FF Y:BF P:A4 SP:FF
14251 C7BC            BNE D0      immediate   A:0 X:FF Y:BE P:A4 SP:FF
14254 C7B9            STA 91   (zeropage),y   A:0 X:FF Y:BE P:A4 SP:FF
14261 C7BB            DEY 88        implied   A:0 X:FF Y:BE P:A4 SP:FF
14264 C7BC            BNE D0      immediate   A:0 X:FF Y:BD P:A4 SP:FF
14267 C7B9            STA 91   (zeropage),y   A:0 X:FF Y:BD P:A4 SP:FF
14274 C7BB            DEY 88        implied   A:0 X:FF Y:BD P:A4 SP:FF
14277 C7BC            BNE D0      immediate   A:0 X:FF Y:BC P:A4 SP:FF
14280 C7B9            STA 91   (zeropage),y   A:0 X:FF Y:BC P:A4 SP:FF
14287 C7BB            DEY 88        implied   A:0 X:FF Y:BC P:A4 SP:FF
14290 C7BC            BNE D0      immediate   A:0 X:FF Y:BB P:A4 SP:FF
14293 C7B9            STA 91   (zeropage),y   A:0 X:FF Y:BB P:A4 SP:FF
14300 C7BB            DEY 88        implied   A:0 X:FF Y:BB P:A4 SP:FF
14303 C7BC            BNE D0      immediate   A:0 X:FF Y:BA P:A4 SP:FF
14306 C7B9            STA 91   (zeropage),y   A:0 X:FF Y:BA P:A4 SP:FF
14313 C7BB            DEY 88        implied   A:0 X:FF Y:BA P:A4 SP:FF
14316 C7BC            BNE D0      immediate   A:0 X:FF Y:B9 P:A4 SP:FF
14319 C7B9            STA 91   (zeropage),y   A:0 X:FF Y:B9 P:A4 SP:FF
14326 C7BB            DEY 88        implied   A:0 X:FF Y:B9 P:A4 SP:FF
14329 C7BC            BNE D0      immediate   A:0 X:FF Y:B8 P:A4 SP:FF
14332 C7B9            STA 91   (zeropage),y   A:0 X:FF Y:B8 P:A4 SP:FF
14339 C7BB            DEY 88        implied   A:0 X:FF Y:B8 P:A4 SP:FF
14342 C7BC            BNE D0      immediate   A:0 X:FF Y:B7 P:A4 SP:FF
14345 C7B9            STA 91   (zeropage),y   A:0 X:FF Y:B7 P:A4 SP:FF
14352 C7BB            DEY 88        implied   A:0 X:FF Y:B7 P:A4 SP:FF
14355 C7BC            BNE D0      immediate   A:0 X:FF Y:B6 P:A4 SP:FF
14358 C7B9            STA 91   (zeropage),y   A:0 X:FF Y:B6 P:A4 SP:FF
14365 C7BB            DEY 88        implied   A:0 X:FF Y:B6 P:A4 SP:FF
14368 C7BC            BNE D0      immediate   A:0 X:FF Y:B5 P:A4 SP:FF
14371 C7B9            STA 91   (zeropage),y   A:0 X:FF Y:B5 P:A4 SP:FF
14378 C7BB            DEY 88        implied   A:0 X:FF Y:B5 P:A4 SP:FF
14381 C7BC            BNE D0      immediate   A:0 X:FF Y:B4 P:A4 SP:FF
14384 C7B9            STA 91   (zeropage),y   A:0 X:FF Y:B4 P:A4 SP:FF
14391 C7BB            DEY 88        implied   A:0 X:FF Y:B4 P:A4 SP:FF
14394 C7BC            BNE D0      immediate   A:0 X:FF Y:B3 P:A4 SP:FF
14397 C7B9            STA 91   (zeropage),y   A:0 X:FF Y:B3 P:A4 SP:FF
14404 C7BB            DEY 88        implied   A:0 X:FF Y:B3 P:A4 SP:FF
14407 C7BC            BNE D0      immediate   A:0 X:FF Y:B2 P:A4 SP:FF
14410 C7B9            STA 91   (zeropage),y   A:0 X:FF Y:B2 P:A4 SP:FF
14417 C7BB            DEY 88        implied   A:0 X:FF Y:B2 P:A4 SP:FF
14420 C7BC            BNE D0      immediate   A:0 X:FF Y:B1 P:A4 SP:FF
14423 C7B9            STA 91   (zeropage),y   A:0 X:FF Y:B1 P:A4 SP:FF
14430 C7BB            DEY 88        implied   A:0 X:FF Y:B1 P:A4 SP:FF
14433 C7BC            BNE D0      immediate   A:0 X:FF Y:B0 P:A4 SP:FF
14436 C7B9            STA 91   (zeropage),y   A:0 X:FF Y:B0 P:A4 SP:FF
14443 C7BB            DEY 88        implied   A:0 X:FF Y:B0 P:A4 SP:FF
14446 C7BC            BNE D0      immediate   A:0 X:FF Y:AF P:A4 SP:FF
14449 C7B9            STA 91   (zeropage),y   A:0 X:FF Y:AF P:A4 SP:FF
14456 C7BB            DEY 88        implied   A:0 X:FF Y:AF P:A4 SP:FF
14459 C7BC            BNE D0      immediate   A:0 X:FF Y:AE P:A4 SP:FF
14462 C7B9            STA 91   (zeropage),y   A:0 X:FF Y:AE P:A4 SP:FF
14469 C7BB            DEY 88        implied   A:0 X:FF Y:AE P:A4 SP:FF
14472 C7BC            BNE D0      immediate   A:0 X:FF Y:AD P:A4 SP:FF
14475 C7B9            STA 91   (zeropage),y   A:0 X:FF Y:AD P:A4 SP:FF
14482 C7BB            DEY 88        implied   A:0 X:FF Y:AD P:A4 SP:FF
14485 C7BC            BNE D0      immediate   A:0 X:FF Y:AC P:A4 SP:FF
14488 C7B9            STA 91   (zeropage),y   A:0 X:FF Y:AC P:A4 SP:FF
14495 C7BB            DEY 88        implied   A:0 X:FF Y:AC P:A4 SP:FF
14498 C7BC            BNE D0      immediate   A:0 X:FF Y:AB P:A4 SP:FF
14501 C7B9            STA 91   (zeropage),y   A:0 X:FF Y:AB P:A4 SP:FF
14508 C7BB            DEY 88        implied   A:0 X:FF Y:AB P:A4 SP:FF
14511 C7BC            BNE D0      immediate   A:0 X:FF Y:AA P:A4 SP:FF
14514 C7B9            STA 91   (zeropage),y   A:0 X:FF Y:AA P:A4 SP:FF
14521 C7BB            DEY 88        implied   A:0 X:FF Y:AA P:A4 SP:FF
14524 C7BC            BNE D0      immediate   A:0 X:FF Y:A9 P:A4 SP:FF
14527 C7B9            STA 91   (zeropage),y   A:0 X:FF Y:A9 P:A4 SP:FF
14534 C7BB            DEY 88        implied   A:0 X:FF Y:A9 P:A4 SP:FF
14537 C7BC            BNE D0      immediate   A:0 X:FF Y:A8 P:A4 SP:FF
14540 C7B9            STA 91   (zeropage),y   A:0 X:FF Y:A8 P:A4 SP:FF
14547 C7BB            DEY 88        implied   A:0 X:FF Y:A8 P:A4 SP:FF
14550 C7BC            BNE D0      immediate   A:0 X:FF Y:A7 P:A4 SP:FF
14553 C7B9            STA 91   (zeropage),y   A:0 X:FF Y:A7 P:A4 SP:FF
14560 C7BB            DEY 88        implied   A:0 X:FF Y:A7 P:A4 SP:FF
14563 C7BC            BNE D0      immediate   A:0 X:FF Y:A6 P:A4 SP:FF
14566 C7B9            STA 91   (zeropage),y   A:0 X:FF Y:A6 P:A4 SP:FF
14573 C7BB            DEY 88        implied   A:0 X:FF Y:A6 P:A4 SP:FF
14576 C7BC            BNE D0      immediate   A:0 X:FF Y:A5 P:A4 SP:FF
14579 C7B9            STA 91   (zeropage),y   A:0 X:FF Y:A5 P:A4 SP:FF
14586 C7BB            DEY 88        implied   A:0 X:FF Y:A5 P:A4 SP:FF
14589 C7BC            BNE D0      immediate   A:0 X:FF Y:A4 P:A4 SP:FF
14592 C7B9            STA 91   (zeropage),y   A:0 X:FF Y:A4 P:A4 SP:FF
14599 C7BB            DEY 88        implied   A:0 X:FF Y:A4 P:A4 SP:FF
14602 C7BC            BNE D0      immediate   A:0 X:FF Y:A3 P:A4 SP:FF
14605 C7B9            STA 91   (zeropage),y   A:0 X:FF Y:A3 P:A4 SP:FF
14612 C7BB            DEY 88        implied   A:0 X:FF Y:A3 P:A4 SP:FF
14615 C7BC            BNE D0      immediate   A:0 X:FF Y:A2 P:A4 SP:FF
14618 C7B9            STA 91   (zeropage),y   A:0 X:FF Y:A2 P:A4 SP:FF
14625 C7BB            DEY 88        implied   A:0 X:FF Y:A2 P:A4 SP:FF
14628 C7BC            BNE D0      immediate   A:0 X:FF Y:A1 P:A4 SP:FF
14631 C7B9            STA 91   (zeropage),y   A:0 X:FF Y:A1 P:A4 SP:FF
14638 C7BB            DEY 88        implied   A:0 X:FF Y:A1 P:A4 SP:FF
14641 C7BC            BNE D0      immediate   A:0 X:FF Y:A0 P:A4 SP:FF
14644 C7B9            STA 91   (zeropage),y   A:0 X:FF Y:A0 P:A4 SP:FF
14651 C7BB            DEY 88        implied   A:0 X:FF Y:A0 P:A4 SP:FF
14654 C7BC            BNE D0      immediate   A:0 X:FF Y:9F P:A4 SP:FF
14657 C7B9            STA 91   (zeropage),y   A:0 X:FF Y:9F P:A4 SP:FF
14664 C7BB            DEY 88        implied   A:0 X:FF Y:9F P:A4 SP:FF
14667 C7BC            BNE D0      immediate   A:0 X:FF Y:9E P:A4 SP:FF
14670 C7B9            STA 91   (zeropage),y   A:0 X:FF Y:9E P:A4 SP:FF
14677 C7BB            DEY 88        implied   A:0 X:FF Y:9E P:A4 SP:FF
14680 C7BC            BNE D0      immediate   A:0 X:FF Y:9D P:A4 SP:FF
14683 C7B9            STA 91   (zeropage),y   A:0 X:FF Y:9D P:A4 SP:FF
14690 C7BB            DEY 88        implied   A:0 X:FF Y:9D P:A4 SP:FF
14693 C7BC            BNE D0      immediate   A:0 X:FF Y:9C P:A4 SP:FF
14696 C7B9            STA 91   (zeropage),y   A:0 X:FF Y:9C P:A4 SP:FF
14703 C7BB            DEY 88        implied   A:0 X:FF Y:9C P:A4 SP:FF
14706 C7BC            BNE D0      immediate   A:0 X:FF Y:9B P:A4 SP:FF
14709 C7B9            STA 91   (zeropage),y   A:0 X:FF Y:9B P:A4 SP:FF
14716 C7BB            DEY 88        implied   A:0 X:FF Y:9B P:A4 SP:FF
14719 C7BC            BNE D0      immediate   A:0 X:FF Y:9A P:A4 SP:FF
14722 C7B9            STA 91   (zeropage),y   A:0 X:FF Y:9A P:A4 SP:FF
14729 C7BB            DEY 88        implied   A:0 X:FF Y:9A P:A4 SP:FF
14732 C7BC            BNE D0      immediate   A:0 X:FF Y:99 P:A4 SP:FF
14735 C7B9            STA 91   (zeropage),y   A:0 X:FF Y:99 P:A4 SP:FF
14742 C7BB            DEY 88        implied   A:0 X:FF Y:99 P:A4 SP:FF
14745 C7BC            BNE D0      immediate   A:0 X:FF Y:98 P:A4 SP:FF
14748 C7B9            STA 91   (zeropage),y   A:0 X:FF Y:98 P:A4 SP:FF
14755 C7BB            DEY 88        implied   A:0 X:FF Y:98 P:A4 SP:FF
14758 C7BC            BNE D0      immediate   A:0 X:FF Y:97 P:A4 SP:FF
14761 C7B9            STA 91   (zeropage),y   A:0 X:FF Y:97 P:A4 SP:FF
14768 C7BB            DEY 88        implied   A:0 X:FF Y:97 P:A4 SP:FF
14771 C7BC            BNE D0      immediate   A:0 X:FF Y:96 P:A4 SP:FF
14774 C7B9            STA 91   (zeropage),y   A:0 X:FF Y:96 P:A4 SP:FF
14781 C7BB            DEY 88        implied   A:0 X:FF Y:96 P:A4 SP:FF
14784 C7BC            BNE D0      immediate   A:0 X:FF Y:95 P:A4 SP:FF
14787 C7B9            STA 91   (zeropage),y   A:0 X:FF Y:95 P:A4 SP:FF
14794 C7BB            DEY 88        implied   A:0 X:FF Y:95 P:A4 SP:FF
14797 C7BC            BNE D0      immediate   A:0 X:FF Y:94 P:A4 SP:FF
14800 C7B9            STA 91   (zeropage),y   A:0 X:FF Y:94 P:A4 SP:FF
14807 C7BB            DEY 88        implied   A:0 X:FF Y:94 P:A4 SP:FF
14810 C7BC            BNE D0      immediate   A:0 X:FF Y:93 P:A4 SP:FF
14813 C7B9            STA 91   (zeropage),y   A:0 X:FF Y:93 P:A4 SP:FF
14820 C7BB            DEY 88        implied   A:0 X:FF Y:93 P:A4 SP:FF
14823 C7BC            BNE D0      immediate   A:0 X:FF Y:92 P:A4 SP:FF
14826 C7B9            STA 91   (zeropage),y   A:0 X:FF Y:92 P:A4 SP:FF
14833 C7BB            DEY 88        implied   A:0 X:FF Y:92 P:A4 SP:FF
14836 C7BC            BNE D0      immediate   A:0 X:FF Y:91 P:A4 SP:FF
14839 C7B9            STA 91   (zeropage),y   A:0 X:FF Y:91 P:A4 SP:FF
14846 C7BB            DEY 88        implied   A:0 X:FF Y:91 P:A4 SP:FF
14849 C7BC            BNE D0      immediate   A:0 X:FF Y:90 P:A4 SP:FF
14852 C7B9            STA 91   (zeropage),y   A:0 X:FF Y:90 P:A4 SP:FF
14859 C7BB            DEY 88        implied   A:0 X:FF Y:90 P:A4 SP:FF
14862 C7BC            BNE D0      immediate   A:0 X:FF Y:8F P:A4 SP:FF
14865 C7B9            STA 91   (zeropage),y   A:0 X:FF Y:8F P:A4 SP:FF
14872 C7BB            DEY 88        implied   A:0 X:FF Y:8F P:A4 SP:FF
14875 C7BC            BNE D0      immediate   A:0 X:FF Y:8E P:A4 SP:FF
14878 C7B9            STA 91   (zeropage),y   A:0 X:FF Y:8E P:A4 SP:FF
14885 C7BB            DEY 88        implied   A:0 X:FF Y:8E P:A4 SP:FF
14888 C7BC            BNE D0      immediate   A:0 X:FF Y:8D P:A4 SP:FF
14891 C7B9            STA 91   (zeropage),y   A:0 X:FF Y:8D P:A4 SP:FF
14898 C7BB            DEY 88        implied   A:0 X:FF Y:8D P:A4 SP:FF
14901 C7BC            BNE D0      immediate   A:0 X:FF Y:8C P:A4 SP:FF
14904 C7B9            STA 91   (zeropage),y   A:0 X:FF Y:8C P:A4 SP:FF
14911 C7BB            DEY 88        implied   A:0 X:FF Y:8C P:A4 SP:FF
14914 C7BC            BNE D0      immediate   A:0 X:FF Y:8B P:A4 SP:FF
14917 C7B9            STA 91   (zeropage),y   A:0 X:FF Y:8B P:A4 SP:FF
14924 C7BB            DEY 88        implied   A:0 X:FF Y:8B P:A4 SP:FF
14927 C7BC            BNE D0      immediate   A:0 X:FF Y:8A P:A4 SP:FF
14930 C7B9            STA 91   (zeropage),y   A:0 X:FF Y:8A P:A4 SP:FF
14937 C7BB            DEY 88        implied   A:0 X:FF Y:8A P:A4 SP:FF
14940 C7BC            BNE D0      immediate   A:0 X:FF Y:89 P:A4 SP:FF
14943 C7B9            STA 91   (zeropage),y   A:0 X:FF Y:89 P:A4 SP:FF
14950 C7BB            DEY 88        implied   A:0 X:FF Y:89 P:A4 SP:FF
14953 C7BC            BNE D0      immediate   A:0 X:FF Y:88 P:A4 SP:FF
14956 C7B9            STA 91   (zeropage),y   A:0 X:FF Y:88 P:A4 SP:FF
14963 C7BB            DEY 88        implied   A:0 X:FF Y:88 P:A4 SP:FF
14966 C7BC            BNE D0      immediate   A:0 X:FF Y:87 P:A4 SP:FF
14969 C7B9            STA 91   (zeropage),y   A:0 X:FF Y:87 P:A4 SP:FF
14976 C7BB            DEY 88        implied   A:0 X:FF Y:87 P:A4 SP:FF
14979 C7BC            BNE D0      immediate   A:0 X:FF Y:86 P:A4 SP:FF
14982 C7B9            STA 91   (zeropage),y   A:0 X:FF Y:86 P:A4 SP:FF
14989 C7BB            DEY 88        implied   A:0 X:FF Y:86 P:A4 SP:FF
14992 C7BC            BNE D0      immediate   A:0 X:FF Y:85 P:A4 SP:FF
14995 C7B9            STA 91   (zeropage),y   A:0 X:FF Y:85 P:A4 SP:FF
15002 C7BB            DEY 88        implied   A:0 X:FF Y:85 P:A4 SP:FF
15005 C7BC            BNE D0      immediate   A:0 X:FF Y:84 P:A4 SP:FF
15008 C7B9            STA 91   (zeropage),y   A:0 X:FF Y:84 P:A4 SP:FF
15015 C7BB            DEY 88        implied   A:0 X:FF Y:84 P:A4 SP:FF
15018 C7BC            BNE D0      immediate   A:0 X:FF Y:83 P:A4 SP:FF
15021 C7B9            STA 91   (zeropage),y   A:0 X:FF Y:83 P:A4 SP:FF
15028 C7BB            DEY 88        implied   A:0 X:FF Y:83 P:A4 SP:FF
15031 C7BC            BNE D0      immediate   A:0 X:FF Y:82 P:A4 SP:FF
15034 C7B9            STA 91   (zeropage),y   A:0 X:FF Y:82 P:A4 SP:FF
15041 C7BB            DEY 88        implied   A:0 X:FF Y:82 P:A4 SP:FF
15044 C7BC            BNE D0      immediate   A:0 X:FF Y:81 P:A4 SP:FF
15047 C7B9            STA 91   (zeropage),y   A:0 X:FF Y:81 P:A4 SP:FF
15054 C7BB            DEY 88        implied   A:0 X:FF Y:81 P:A4 SP:FF
15057 C7BC            BNE D0      immediate   A:0 X:FF Y:80 P:A4 SP:FF
15060 C7B9            STA 91   (zeropage),y   A:0 X:FF Y:80 P:A4 SP:FF
15067 C7BB            DEY 88        implied   A:0 X:FF Y:80 P:A4 SP:FF
15070 C7BC            BNE D0      immediate   A:0 X:FF Y:7F P:24 SP:FF
15073 C7B9            STA 91   (zeropage),y   A:0 X:FF Y:7F P:24 SP:FF
15080 C7BB            DEY 88        implied   A:0 X:FF Y:7F P:24 SP:FF
15083 C7BC            BNE D0      immediate   A:0 X:FF Y:7E P:24 SP:FF
15086 C7B9            STA 91   (zeropage),y   A:0 X:FF Y:7E P:24 SP:FF
15093 C7BB            DEY 88        implied   A:0 X:FF Y:7E P:24 SP:FF
15096 C7BC            BNE D0      immediate   A:0 X:FF Y:7D P:24 SP:FF
15099 C7B9            STA 91   (zeropage),y   A:0 X:FF Y:7D P:24 SP:FF
15106 C7BB            DEY 88        implied   A:0 X:FF Y:7D P:24 SP:FF
15109 C7BC            BNE D0      immediate   A:0 X:FF Y:7C P:24 SP:FF
15112 C7B9            STA 91   (zeropage),y   A:0 X:FF Y:7C P:24 SP:FF
15119 C7BB            DEY 88        implied   A:0 X:FF Y:7C P:24 SP:FF
15122 C7BC            BNE D0      immediate   A:0 X:FF Y:7B P:24 SP:FF
15125 C7B9            STA 91   (zeropage),y   A:0 X:FF Y:7B P:24 SP:FF
15132 C7BB            DEY 88        implied   A:0 X:FF Y:7B P:24 SP:FF
15135 C7BC            BNE D0      immediate   A:0 X:FF Y:7A P:24 SP:FF
15138 C7B9            STA 91   (zeropage),y   A:0 X:FF Y:7A P:24 SP:FF
15145 C7BB            DEY 88        implied   A:0 X:FF Y:7A P:24 SP:FF
15148 C7BC            BNE D0      immediate   A:0 X:FF Y:79 P:24 SP:FF
15151 C7B9            STA 91   (zeropage),y   A:0 X:FF Y:79 P:24 SP:FF
15158 C7BB            DEY 88        implied   A:0 X:FF Y:79 P:24 SP:FF
15161 C7BC            BNE D0      immediate   A:0 X:FF Y:78 P:24 SP:FF
15164 C7B9            STA 91   (zeropage),y   A:0 X:FF Y:78 P:24 SP:FF
15171 C7BB            DEY 88        implied   A:0 X:FF Y:78 P:24 SP:FF
15174 C7BC            BNE D0      immediate   A:0 X:FF Y:77 P:24 SP:FF
15177 C7B9            STA 91   (zeropage),y   A:0 X:FF Y:77 P:24 SP:FF
15184 C7BB            DEY 88        implied   A:0 X:FF Y:77 P:24 SP:FF
15187 C7BC            BNE D0      immediate   A:0 X:FF Y:76 P:24 SP:FF
15190 C7B9            STA 91   (zeropage),y   A:0 X:FF Y:76 P:24 SP:FF
15197 C7BB            DEY 88        implied   A:0 X:FF Y:76 P:24 SP:FF
15200 C7BC            BNE D0      immediate   A:0 X:FF Y:75 P:24 SP:FF
15203 C7B9            STA 91   (zeropage),y   A:0 X:FF Y:75 P:24 SP:FF
15210 C7BB            DEY 88        implied   A:0 X:FF Y:75 P:24 SP:FF
15213 C7BC            BNE D0      immediate   A:0 X:FF Y:74 P:24 SP:FF
15216 C7B9            STA 91   (zeropage),y   A:0 X:FF Y:74 P:24 SP:FF
15223 C7BB            DEY 88        implied   A:0 X:FF Y:74 P:24 SP:FF
15226 C7BC            BNE D0      immediate   A:0 X:FF Y:73 P:24 SP:FF
15229 C7B9            STA 91   (zeropage),y   A:0 X:FF Y:73 P:24 SP:FF
15236 C7BB            DEY 88        implied   A:0 X:FF Y:73 P:24 SP:FF
15239 C7BC            BNE D0      immediate   A:0 X:FF Y:72 P:24 SP:FF
15242 C7B9            STA 91   (zeropage),y   A:0 X:FF Y:72 P:24 SP:FF
15249 C7BB            DEY 88        implied   A:0 X:FF Y:72 P:24 SP:FF
15252 C7BC            BNE D0      immediate   A:0 X:FF Y:71 P:24 SP:FF
15255 C7B9            STA 91   (zeropage),y   A:0 X:FF Y:71 P:24 SP:FF
15262 C7BB            DEY 88        implied   A:0 X:FF Y:71 P:24 SP:FF
15265 C7BC            BNE D0      immediate   A:0 X:FF Y:70 P:24 SP:FF
15268 C7B9            STA 91   (zeropage),y   A:0 X:FF Y:70 P:24 SP:FF
15275 C7BB            DEY 88        implied   A:0 X:FF Y:70 P:24 SP:FF
15278 C7BC            BNE D0      immediate   A:0 X:FF Y:6F P:24 SP:FF
15281 C7B9            STA 91   (zeropage),y   A:0 X:FF Y:6F P:24 SP:FF
15288 C7BB            DEY 88        implied   A:0 X:FF Y:6F P:24 SP:FF
15291 C7BC            BNE D0      immediate   A:0 X:FF Y:6E P:24 SP:FF
15294 C7B9            STA 91   (zeropage),y   A:0 X:FF Y:6E P:24 SP:FF
15301 C7BB            DEY 88        implied   A:0 X:FF Y:6E P:24 SP:FF
15304 C7BC            BNE D0      immediate   A:0 X:FF Y:6D P:24 SP:FF
15307 C7B9            STA 91   (zeropage),y   A:0 X:FF Y:6D P:24 SP:FF
15314 C7BB            DEY 88        implied   A:0 X:FF Y:6D P:24 SP:FF
15317 C7BC            BNE D0      immediate   A:0 X:FF Y:6C P:24 SP:FF
15320 C7B9            STA 91   (zeropage),y   A:0 X:FF Y:6C P:24 SP:FF
15327 C7BB            DEY 88        implied   A:0 X:FF Y:6C P:24 SP:FF
15330 C7BC            BNE D0      immediate   A:0 X:FF Y:6B P:24 SP:FF
15333 C7B9            STA 91   (zeropage),y   A:0 X:FF Y:6B P:24 SP:FF
15340 C7BB            DEY 88        implied   A:0 X:FF Y:6B P:24 SP:FF
15343 C7BC            BNE D0      immediate   A:0 X:FF Y:6A P:24 SP:FF
15346 C7B9            STA 91   (zeropage),y   A:0 X:FF Y:6A P:24 SP:FF
15353 C7BB            DEY 88        implied   A:0 X:FF Y:6A P:24 SP:FF
15356 C7BC            BNE D0      immediate   A:0 X:FF Y:69 P:24 SP:FF
15359 C7B9            STA 91   (zeropage),y   A:0 X:FF Y:69 P:24 SP:FF
15366 C7BB            DEY 88        implied   A:0 X:FF Y:69 P:24 SP:FF
15369 C7BC            BNE D0      immediate   A:0 X:FF Y:68 P:24 SP:FF
15372 C7B9            STA 91   (zeropage),y   A:0 X:FF Y:68 P:24 SP:FF
15379 C7BB            DEY 88        implied   A:0 X:FF Y:68 P:24 SP:FF
15382 C7BC            BNE D0      immediate   A:0 X:FF Y:67 P:24 SP:FF
15385 C7B9            STA 91   (zeropage),y   A:0 X:FF Y:67 P:24 SP:FF
15392 C7BB            DEY 88        implied   A:0 X:FF Y:67 P:24 SP:FF
15395 C7BC            BNE D0      immediate   A:0 X:FF Y:66 P:24 SP:FF
15398 C7B9            STA 91   (zeropage),y   A:0 X:FF Y:66 P:24 SP:FF
15405 C7BB            DEY 88        implied   A:0 X:FF Y:66 P:24 SP:FF
15408 C7BC            BNE D0      immediate   A:0 X:FF Y:65 P:24 SP:FF
15411 C7B9            STA 91   (zeropage),y   A:0 X:FF Y:65 P:24 SP:FF
15418 C7BB            DEY 88        implied   A:0 X:FF Y:65 P:24 SP:FF
15421 C7BC            BNE D0      immediate   A:0 X:FF Y:64 P:24 SP:FF
15424 C7B9            STA 91   (zeropage),y   A:0 X:FF Y:64 P:24 SP:FF
15431 C7BB            DEY 88        implied   A:0 X:FF Y:64 P:24 SP:FF
15434 C7BC            BNE D0      immediate   A:0 X:FF Y:63 P:24 SP:FF
15437 C7B9            STA 91   (zeropage),y   A:0 X:FF Y:63 P:24 SP:FF
15444 C7BB            DEY 88        implied   A:0 X:FF Y:63 P:24 SP:FF
15447 C7BC            BNE D0      immediate   A:0 X:FF Y:62 P:24 SP:FF
15450 C7B9            STA 91   (zeropage),y   A:0 X:FF Y:62 P:24 SP:FF
15457 C7BB            DEY 88        implied   A:0 X:FF Y:62 P:24 SP:FF
15460 C7BC            BNE D0      immediate   A:0 X:FF Y:61 P:24 SP:FF
15463 C7B9            STA 91   (zeropage),y   A:0 X:FF Y:61 P:24 SP:FF
15470 C7BB            DEY 88        implied   A:0 X:FF Y:61 P:24 SP:FF
15473 C7BC            BNE D0      immediate   A:0 X:FF Y:60 P:24 SP:FF
15476 C7B9            STA 91   (zeropage),y   A:0 X:FF Y:60 P:24 SP:FF
15483 C7BB            DEY 88        implied   A:0 X:FF Y:60 P:24 SP:FF
15486 C7BC            BNE D0      immediate   A:0 X:FF Y:5F P:24 SP:FF
15489 C7B9            STA 91   (zeropage),y   A:0 X:FF Y:5F P:24 SP:FF
15496 C7BB            DEY 88        implied   A:0 X:FF Y:5F P:24 SP:FF
15499 C7BC            BNE D0      immediate   A:0 X:FF Y:5E P:24 SP:FF
15502 C7B9            STA 91   (zeropage),y   A:0 X:FF Y:5E P:24 SP:FF
15509 C7BB            DEY 88        implied   A:0 X:FF Y:5E P:24 SP:FF
15512 C7BC            BNE D0      immediate   A:0 X:FF Y:5D P:24 SP:FF
15515 C7B9            STA 91   (zeropage),y   A:0 X:FF Y:5D P:24 SP:FF
15522 C7BB            DEY 88        implied   A:0 X:FF Y:5D P:24 SP:FF
15525 C7BC            BNE D0      immediate   A:0 X:FF Y:5C P:24 SP:FF
15528 C7B9            STA 91   (zeropage),y   A:0 X:FF Y:5C P:24 SP:FF
15535 C7BB            DEY 88        implied   A:0 X:FF Y:5C P:24 SP:FF
15538 C7BC            BNE D0      immediate   A:0 X:FF Y:5B P:24 SP:FF
15541 C7B9            STA 91   (zeropage),y   A:0 X:FF Y:5B P:24 SP:FF
15548 C7BB            DEY 88        implied   A:0 X:FF Y:5B P:24 SP:FF
15551 C7BC            BNE D0      immediate   A:0 X:FF Y:5A P:24 SP:FF
15554 C7B9            STA 91   (zeropage),y   A:0 X:FF Y:5A P:24 SP:FF
15561 C7BB            DEY 88        implied   A:0 X:FF Y:5A P:24 SP:FF
15564 C7BC            BNE D0      immediate   A:0 X:FF Y:59 P:24 SP:FF
15567 C7B9            STA 91   (zeropage),y   A:0 X:FF Y:59 P:24 SP:FF
15574 C7BB            DEY 88        implied   A:0 X:FF Y:59 P:24 SP:FF
15577 C7BC            BNE D0      immediate   A:0 X:FF Y:58 P:24 SP:FF
15580 C7B9            STA 91   (zeropage),y   A:0 X:FF Y:58 P:24 SP:FF
15587 C7BB            DEY 88        implied   A:0 X:FF Y:58 P:24 SP:FF
15590 C7BC            BNE D0      immediate   A:0 X:FF Y:57 P:24 SP:FF
15593 C7B9            STA 91   (zeropage),y   A:0 X:FF Y:57 P:24 SP:FF
15600 C7BB            DEY 88        implied   A:0 X:FF Y:57 P:24 SP:FF
15603 C7BC            BNE D0      immediate   A:0 X:FF Y:56 P:24 SP:FF
15606 C7B9            STA 91   (zeropage),y   A:0 X:FF Y:56 P:24 SP:FF
15613 C7BB            DEY 88        implied   A:0 X:FF Y:56 P:24 SP:FF
15616 C7BC            BNE D0      immediate   A:0 X:FF Y:55 P:24 SP:FF
15619 C7B9            STA 91   (zeropage),y   A:0 X:FF Y:55 P:24 SP:FF
15626 C7BB            DEY 88        implied   A:0 X:FF Y:55 P:24 SP:FF
15629 C7BC            BNE D0      immediate   A:0 X:FF Y:54 P:24 SP:FF
15632 C7B9            STA 91   (zeropage),y   A:0 X:FF Y:54 P:24 SP:FF
15639 C7BB            DEY 88        implied   A:0 X:FF Y:54 P:24 SP:FF
15642 C7BC            BNE D0      immediate   A:0 X:FF Y:53 P:24 SP:FF
15645 C7B9            STA 91   (zeropage),y   A:0 X:FF Y:53 P:24 SP:FF
15652 C7BB            DEY 88        implied   A:0 X:FF Y:53 P:24 SP:FF
15655 C7BC            BNE D0      immediate   A:0 X:FF Y:52 P:24 SP:FF
15658 C7B9            STA 91   (zeropage),y   A:0 X:FF Y:52 P:24 SP:FF
15665 C7BB            DEY 88        implied   A:0 X:FF Y:52 P:24 SP:FF
15668 C7BC            BNE D0      immediate   A:0 X:FF Y:51 P:24 SP:FF
15671 C7B9            STA 91   (zeropage),y   A:0 X:FF Y:51 P:24 SP:FF
15678 C7BB            DEY 88        implied   A:0 X:FF Y:51 P:24 SP:FF
15681 C7BC            BNE D0      immediate   A:0 X:FF Y:50 P:24 SP:FF
15684 C7B9            STA 91   (zeropage),y   A:0 X:FF Y:50 P:24 SP:FF
15691 C7BB            DEY 88        implied   A:0 X:FF Y:50 P:24 SP:FF
15694 C7BC            BNE D0      immediate   A:0 X:FF Y:4F P:24 SP:FF
15697 C7B9            STA 91   (zeropage),y   A:0 X:FF Y:4F P:24 SP:FF
15704 C7BB            DEY 88        implied   A:0 X:FF Y:4F P:24 SP:FF
15707 C7BC            BNE D0      immediate   A:0 X:FF Y:4E P:24 SP:FF
15710 C7B9            STA 91   (zeropage),y   A:0 X:FF Y:4E P:24 SP:FF
15717 C7BB            DEY 88        implied   A:0 X:FF Y:4E P:24 SP:FF
15720 C7BC            BNE D0      immediate   A:0 X:FF Y:4D P:24 SP:FF
15723 C7B9            STA 91   (zeropage),y   A:0 X:FF Y:4D P:24 SP:FF
15730 C7BB            DEY 88        implied   A:0 X:FF Y:4D P:24 SP:FF
15733 C7BC            BNE D0      immediate   A:0 X:FF Y:4C P:24 SP:FF
15736 C7B9            STA 91   (zeropage),y   A:0 X:FF Y:4C P:24 SP:FF
15743 C7BB            DEY 88        implied   A:0 X:FF Y:4C P:24 SP:FF
15746 C7BC            BNE D0      immediate   A:0 X:FF Y:4B P:24 SP:FF
15749 C7B9            STA 91   (zeropage),y   A:0 X:FF Y:4B P:24 SP:FF
15756 C7BB            DEY 88        implied   A:0 X:FF Y:4B P:24 SP:FF
15759 C7BC            BNE D0      immediate   A:0 X:FF Y:4A P:24 SP:FF
15762 C7B9            STA 91   (zeropage),y   A:0 X:FF Y:4A P:24 SP:FF
15769 C7BB            DEY 88        implied   A:0 X:FF Y:4A P:24 SP:FF
15772 C7BC            BNE D0      immediate   A:0 X:FF Y:49 P:24 SP:FF
15775 C7B9            STA 91   (zeropage),y   A:0 X:FF Y:49 P:24 SP:FF
15782 C7BB            DEY 88        implied   A:0 X:FF Y:49 P:24 SP:FF
15785 C7BC            BNE D0      immediate   A:0 X:FF Y:48 P:24 SP:FF
15788 C7B9            STA 91   (zeropage),y   A:0 X:FF Y:48 P:24 SP:FF
15795 C7BB            DEY 88        implied   A:0 X:FF Y:48 P:24 SP:FF
15798 C7BC            BNE D0      immediate   A:0 X:FF Y:47 P:24 SP:FF
15801 C7B9            STA 91   (zeropage),y   A:0 X:FF Y:47 P:24 SP:FF
15808 C7BB            DEY 88        implied   A:0 X:FF Y:47 P:24 SP:FF
15811 C7BC            BNE D0      immediate   A:0 X:FF Y:46 P:24 SP:FF
15814 C7B9            STA 91   (zeropage),y   A:0 X:FF Y:46 P:24 SP:FF
15821 C7BB            DEY 88        implied   A:0 X:FF Y:46 P:24 SP:FF
15824 C7BC            BNE D0      immediate   A:0 X:FF Y:45 P:24 SP:FF
15827 C7B9            STA 91   (zeropage),y   A:0 X:FF Y:45 P:24 SP:FF
15834 C7BB            DEY 88        implied   A:0 X:FF Y:45 P:24 SP:FF
15837 C7BC            BNE D0      immediate   A:0 X:FF Y:44 P:24 SP:FF
15840 C7B9            STA 91   (zeropage),y   A:0 X:FF Y:44 P:24 SP:FF
15847 C7BB            DEY 88        implied   A:0 X:FF Y:44 P:24 SP:FF
15850 C7BC            BNE D0      immediate   A:0 X:FF Y:43 P:24 SP:FF
15853 C7B9            STA 91   (zeropage),y   A:0 X:FF Y:43 P:24 SP:FF
15860 C7BB            DEY 88        implied   A:0 X:FF Y:43 P:24 SP:FF
15863 C7BC            BNE D0      immediate   A:0 X:FF Y:42 P:24 SP:FF
15866 C7B9            STA 91   (zeropage),y   A:0 X:FF Y:42 P:24 SP:FF
15873 C7BB            DEY 88        implied   A:0 X:FF Y:42 P:24 SP:FF
15876 C7BC            BNE D0      immediate   A:0 X:FF Y:41 P:24 SP:FF
15879 C7B9            STA 91   (zeropage),y   A:0 X:FF Y:41 P:24 SP:FF
15886 C7BB            DEY 88        implied   A:0 X:FF Y:41 P:24 SP:FF
15889 C7BC            BNE D0      immediate   A:0 X:FF Y:40 P:24 SP:FF
15892 C7B9            STA 91   (zeropage),y   A:0 X:FF Y:40 P:24 SP:FF
15899 C7BB            DEY 88        implied   A:0 X:FF Y:40 P:24 SP:FF
15902 C7BC            BNE D0      immediate   A:0 X:FF Y:3F P:24 SP:FF
15905 C7B9            STA 91   (zeropage),y   A:0 X:FF Y:3F P:24 SP:FF
15912 C7BB            DEY 88        implied   A:0 X:FF Y:3F P:24 SP:FF
15915 C7BC            BNE D0      immediate   A:0 X:FF Y:3E P:24 SP:FF
15918 C7B9            STA 91   (zeropage),y   A:0 X:FF Y:3E P:24 SP:FF
15925 C7BB            DEY 88        implied   A:0 X:FF Y:3E P:24 SP:FF
15928 C7BC            BNE D0      immediate   A:0 X:FF Y:3D P:24 SP:FF
15931 C7B9            STA 91   (zeropage),y   A:0 X:FF Y:3D P:24 SP:FF
15938 C7BB            DEY 88        implied   A:0 X:FF Y:3D P:24 SP:FF
15941 C7BC            BNE D0      immediate   A:0 X:FF Y:3C P:24 SP:FF
15944 C7B9            STA 91   (zeropage),y   A:0 X:FF Y:3C P:24 SP:FF
15951 C7BB            DEY 88        implied   A:0 X:FF Y:3C P:24 SP:FF
15954 C7BC            BNE D0      immediate   A:0 X:FF Y:3B P:24 SP:FF
15957 C7B9            STA 91   (zeropage),y   A:0 X:FF Y:3B P:24 SP:FF
15964 C7BB            DEY 88        implied   A:0 X:FF Y:3B P:24 SP:FF
15967 C7BC            BNE D0      immediate   A:0 X:FF Y:3A P:24 SP:FF
15970 C7B9            STA 91   (zeropage),y   A:0 X:FF Y:3A P:24 SP:FF
15977 C7BB            DEY 88        implied   A:0 X:FF Y:3A P:24 SP:FF
15980 C7BC            BNE D0      immediate   A:0 X:FF Y:39 P:24 SP:FF
15983 C7B9            STA 91   (zeropage),y   A:0 X:FF Y:39 P:24 SP:FF
15990 C7BB            DEY 88        implied   A:0 X:FF Y:39 P:24 SP:FF
15993 C7BC            BNE D0      immediate   A:0 X:FF Y:38 P:24 SP:FF
15996 C7B9            STA 91   (zeropage),y   A:0 X:FF Y:38 P:24 SP:FF
16003 C7BB            DEY 88        implied   A:0 X:FF Y:38 P:24 SP:FF
16006 C7BC            BNE D0      immediate   A:0 X:FF Y:37 P:24 SP:FF
16009 C7B9            STA 91   (zeropage),y   A:0 X:FF Y:37 P:24 SP:FF
16016 C7BB            DEY 88        implied   A:0 X:FF Y:37 P:24 SP:FF
16019 C7BC            BNE D0      immediate   A:0 X:FF Y:36 P:24 SP:FF
16022 C7B9            STA 91   (zeropage),y   A:0 X:FF Y:36 P:24 SP:FF
16029 C7BB            DEY 88        implied   A:0 X:FF Y:36 P:24 SP:FF
16032 C7BC            BNE D0      immediate   A:0 X:FF Y:35 P:24 SP:FF
16035 C7B9            STA 91   (zeropage),y   A:0 X:FF Y:35 P:24 SP:FF
16042 C7BB            DEY 88        implied   A:0 X:FF Y:35 P:24 SP:FF
16045 C7BC            BNE D0      immediate   A:0 X:FF Y:34 P:24 SP:FF
16048 C7B9            STA 91   (zeropage),y   A:0 X:FF Y:34 P:24 SP:FF
16055 C7BB            DEY 88        implied   A:0 X:FF Y:34 P:24 SP:FF
16058 C7BC            BNE D0      immediate   A:0 X:FF Y:33 P:24 SP:FF
16061 C7B9            STA 91   (zeropage),y   A:0 X:FF Y:33 P:24 SP:FF
16068 C7BB            DEY 88        implied   A:0 X:FF Y:33 P:24 SP:FF
16071 C7BC            BNE D0      immediate   A:0 X:FF Y:32 P:24 SP:FF
16074 C7B9            STA 91   (zeropage),y   A:0 X:FF Y:32 P:24 SP:FF
16081 C7BB            DEY 88        implied   A:0 X:FF Y:32 P:24 SP:FF
16084 C7BC            BNE D0      immediate   A:0 X:FF Y:31 P:24 SP:FF
16087 C7B9            STA 91   (zeropage),y   A:0 X:FF Y:31 P:24 SP:FF
16094 C7BB            DEY 88        implied   A:0 X:FF Y:31 P:24 SP:FF
16097 C7BC            BNE D0      immediate   A:0 X:FF Y:30 P:24 SP:FF
16100 C7B9            STA 91   (zeropage),y   A:0 X:FF Y:30 P:24 SP:FF
16107 C7BB            DEY 88        implied   A:0 X:FF Y:30 P:24 SP:FF
16110 C7BC            BNE D0      immediate   A:0 X:FF Y:2F P:24 SP:FF
16113 C7B9            STA 91   (zeropage),y   A:0 X:FF Y:2F P:24 SP:FF
16120 C7BB            DEY 88        implied   A:0 X:FF Y:2F P:24 SP:FF
16123 C7BC            BNE D0      immediate   A:0 X:FF Y:2E P:24 SP:FF
16126 C7B9            STA 91   (zeropage),y   A:0 X:FF Y:2E P:24 SP:FF
16133 C7BB            DEY 88        implied   A:0 X:FF Y:2E P:24 SP:FF
16136 C7BC            BNE D0      immediate   A:0 X:FF Y:2D P:24 SP:FF
16139 C7B9            STA 91   (zeropage),y   A:0 X:FF Y:2D P:24 SP:FF
16146 C7BB            DEY 88        implied   A:0 X:FF Y:2D P:24 SP:FF
16149 C7BC            BNE D0      immediate   A:0 X:FF Y:2C P:24 SP:FF
16152 C7B9            STA 91   (zeropage),y   A:0 X:FF Y:2C P:24 SP:FF
16159 C7BB            DEY 88        implied   A:0 X:FF Y:2C P:24 SP:FF
16162 C7BC            BNE D0      immediate   A:0 X:FF Y:2B P:24 SP:FF
16165 C7B9            STA 91   (zeropage),y   A:0 X:FF Y:2B P:24 SP:FF
16172 C7BB            DEY 88        implied   A:0 X:FF Y:2B P:24 SP:FF
16175 C7BC            BNE D0      immediate   A:0 X:FF Y:2A P:24 SP:FF
16178 C7B9            STA 91   (zeropage),y   A:0 X:FF Y:2A P:24 SP:FF
16185 C7BB            DEY 88        implied   A:0 X:FF Y:2A P:24 SP:FF
16188 C7BC            BNE D0      immediate   A:0 X:FF Y:29 P:24 SP:FF
16191 C7B9            STA 91   (zeropage),y   A:0 X:FF Y:29 P:24 SP:FF
16198 C7BB            DEY 88        implied   A:0 X:FF Y:29 P:24 SP:FF
16201 C7BC            BNE D0      immediate   A:0 X:FF Y:28 P:24 SP:FF
16204 C7B9            STA 91   (zeropage),y   A:0 X:FF Y:28 P:24 SP:FF
16211 C7BB            DEY 88        implied   A:0 X:FF Y:28 P:24 SP:FF
16214 C7BC            BNE D0      immediate   A:0 X:FF Y:27 P:24 SP:FF
16217 C7B9            STA 91   (zeropage),y   A:0 X:FF Y:27 P:24 SP:FF
16224 C7BB            DEY 88        implied   A:0 X:FF Y:27 P:24 SP:FF
16227 C7BC            BNE D0      immediate   A:0 X:FF Y:26 P:24 SP:FF
16230 C7B9            STA 91   (zeropage),y   A:0 X:FF Y:26 P:24 SP:FF
16237 C7BB            DEY 88        implied   A:0 X:FF Y:26 P:24 SP:FF
16240 C7BC            BNE D0      immediate   A:0 X:FF Y:25 P:24 SP:FF
16243 C7B9            STA 91   (zeropage),y   A:0 X:FF Y:25 P:24 SP:FF
16250 C7BB            DEY 88        implied   A:0 X:FF Y:25 P:24 SP:FF
16253 C7BC            BNE D0      immediate   A:0 X:FF Y:24 P:24 SP:FF
16256 C7B9            STA 91   (zeropage),y   A:0 X:FF Y:24 P:24 SP:FF
16263 C7BB            DEY 88        implied   A:0 X:FF Y:24 P:24 SP:FF
16266 C7BC            BNE D0      immediate   A:0 X:FF Y:23 P:24 SP:FF
16269 C7B9            STA 91   (zeropage),y   A:0 X:FF Y:23 P:24 SP:FF
16276 C7BB            DEY 88        implied   A:0 X:FF Y:23 P:24 SP:FF
16279 C7BC            BNE D0      immediate   A:0 X:FF Y:22 P:24 SP:FF
16282 C7B9            STA 91   (zeropage),y   A:0 X:FF Y:22 P:24 SP:FF
16289 C7BB            DEY 88        implied   A:0 X:FF Y:22 P:24 SP:FF
16292 C7BC            BNE D0      immediate   A:0 X:FF Y:21 P:24 SP:FF
16295 C7B9            STA 91   (zeropage),y   A:0 X:FF Y:21 P:24 SP:FF
16302 C7BB            DEY 88        implied   A:0 X:FF Y:21 P:24 SP:FF
16305 C7BC            BNE D0      immediate   A:0 X:FF Y:20 P:24 SP:FF
16308 C7B9            STA 91   (zeropage),y   A:0 X:FF Y:20 P:24 SP:FF
16315 C7BB            DEY 88        implied   A:0 X:FF Y:20 P:24 SP:FF
16318 C7BC            BNE D0      immediate   A:0 X:FF Y:1F P:24 SP:FF
16321 C7B9            STA 91   (zeropage),y   A:0 X:FF Y:1F P:24 SP:FF
16328 C7BB            DEY 88        implied   A:0 X:FF Y:1F P:24 SP:FF
16331 C7BC            BNE D0      immediate   A:0 X:FF Y:1E P:24 SP:FF
16334 C7B9            STA 91   (zeropage),y   A:0 X:FF Y:1E P:24 SP:FF
16341 C7BB            DEY 88        implied   A:0 X:FF Y:1E P:24 SP:FF
16344 C7BC            BNE D0      immediate   A:0 X:FF Y:1D P:24 SP:FF
16347 C7B9            STA 91   (zeropage),y   A:0 X:FF Y:1D P:24 SP:FF
16354 C7BB            DEY 88        implied   A:0 X:FF Y:1D P:24 SP:FF
16357 C7BC            BNE D0      immediate   A:0 X:FF Y:1C P:24 SP:FF
16360 C7B9            STA 91   (zeropage),y   A:0 X:FF Y:1C P:24 SP:FF
16367 C7BB            DEY 88        implied   A:0 X:FF Y:1C P:24 SP:FF
16370 C7BC            BNE D0      immediate   A:0 X:FF Y:1B P:24 SP:FF
16373 C7B9            STA 91   (zeropage),y   A:0 X:FF Y:1B P:24 SP:FF
16380 C7BB            DEY 88        implied   A:0 X:FF Y:1B P:24 SP:FF
16383 C7BC            BNE D0      immediate   A:0 X:FF Y:1A P:24 SP:FF
16386 C7B9            STA 91   (zeropage),y   A:0 X:FF Y:1A P:24 SP:FF
16393 C7BB            DEY 88        implied   A:0 X:FF Y:1A P:24 SP:FF
16396 C7BC            BNE D0      immediate   A:0 X:FF Y:19 P:24 SP:FF
16399 C7B9            STA 91   (zeropage),y   A:0 X:FF Y:19 P:24 SP:FF
16406 C7BB            DEY 88        implied   A:0 X:FF Y:19 P:24 SP:FF
16409 C7BC            BNE D0      immediate   A:0 X:FF Y:18 P:24 SP:FF
16412 C7B9            STA 91   (zeropage),y   A:0 X:FF Y:18 P:24 SP:FF
16419 C7BB            DEY 88        implied   A:0 X:FF Y:18 P:24 SP:FF
16422 C7BC            BNE D0      immediate   A:0 X:FF Y:17 P:24 SP:FF
16425 C7B9            STA 91   (zeropage),y   A:0 X:FF Y:17 P:24 SP:FF
16432 C7BB            DEY 88        implied   A:0 X:FF Y:17 P:24 SP:FF
16435 C7BC            BNE D0      immediate   A:0 X:FF Y:16 P:24 SP:FF
16438 C7B9            STA 91   (zeropage),y   A:0 X:FF Y:16 P:24 SP:FF
16445 C7BB            DEY 88        implied   A:0 X:FF Y:16 P:24 SP:FF
16448 C7BC            BNE D0      immediate   A:0 X:FF Y:15 P:24 SP:FF
16451 C7B9            STA 91   (zeropage),y   A:0 X:FF Y:15 P:24 SP:FF
16458 C7BB            DEY 88        implied   A:0 X:FF Y:15 P:24 SP:FF
16461 C7BC            BNE D0      immediate   A:0 X:FF Y:14 P:24 SP:FF
16464 C7B9            STA 91   (zeropage),y   A:0 X:FF Y:14 P:24 SP:FF
16471 C7BB            DEY 88        implied   A:0 X:FF Y:14 P:24 SP:FF
16474 C7BC            BNE D0      immediate   A:0 X:FF Y:13 P:24 SP:FF
16477 C7B9            STA 91   (zeropage),y   A:0 X:FF Y:13 P:24 SP:FF
16484 C7BB            DEY 88        implied   A:0 X:FF Y:13 P:24 SP:FF
16487 C7BC            BNE D0      immediate   A:0 X:FF Y:12 P:24 SP:FF
16490 C7B9            STA 91   (zeropage),y   A:0 X:FF Y:12 P:24 SP:FF
16497 C7BB            DEY 88        implied   A:0 X:FF Y:12 P:24 SP:FF
16500 C7BC            BNE D0      immediate   A:0 X:FF Y:11 P:24 SP:FF
16503 C7B9            STA 91   (zeropage),y   A:0 X:FF Y:11 P:24 SP:FF
16510 C7BB            DEY 88        implied   A:0 X:FF Y:11 P:24 SP:FF
16513 C7BC            BNE D0      immediate   A:0 X:FF Y:10 P:24 SP:FF
16516 C7B9            STA 91   (zeropage),y   A:0 X:FF Y:10 P:24 SP:FF
16523 C7BB            DEY 88        implied   A:0 X:FF Y:10 P:24 SP:FF
16526 C7BC            BNE D0      immediate   A:0 X:FF Y:F P:24 SP:FF
16529 C7B9            STA 91   (zeropage),y   A:0 X:FF Y:F P:24 SP:FF
16536 C7BB            DEY 88        implied   A:0 X:FF Y:F P:24 SP:FF
16539 C7BC            BNE D0      immediate   A:0 X:FF Y:E P:24 SP:FF
16542 C7B9            STA 91   (zeropage),y   A:0 X:FF Y:E P:24 SP:FF
16549 C7BB            DEY 88        implied   A:0 X:FF Y:E P:24 SP:FF
16552 C7BC            BNE D0      immediate   A:0 X:FF Y:D P:24 SP:FF
16555 C7B9            STA 91   (zeropage),y   A:0 X:FF Y:D P:24 SP:FF
16562 C7BB            DEY 88        implied   A:0 X:FF Y:D P:24 SP:FF
16565 C7BC            BNE D0      immediate   A:0 X:FF Y:C P:24 SP:FF
16568 C7B9            STA 91   (zeropage),y   A:0 X:FF Y:C P:24 SP:FF
16575 C7BB            DEY 88        implied   A:0 X:FF Y:C P:24 SP:FF
16578 C7BC            BNE D0      immediate   A:0 X:FF Y:B P:24 SP:FF
16581 C7B9            STA 91   (zeropage),y   A:0 X:FF Y:B P:24 SP:FF
16588 C7BB            DEY 88        implied   A:0 X:FF Y:B P:24 SP:FF
16591 C7BC            BNE D0      immediate   A:0 X:FF Y:A P:24 SP:FF
16594 C7B9            STA 91   (zeropage),y   A:0 X:FF Y:A P:24 SP:FF
16601 C7BB            DEY 88        implied   A:0 X:FF Y:A P:24 SP:FF
16604 C7BC            BNE D0      immediate   A:0 X:FF Y:9 P:24 SP:FF
16607 C7B9            STA 91   (zeropage),y   A:0 X:FF Y:9 P:24 SP:FF
16614 C7BB            DEY 88        implied   A:0 X:FF Y:9 P:24 SP:FF
16617 C7BC            BNE D0      immediate   A:0 X:FF Y:8 P:24 SP:FF
16620 C7B9            STA 91   (zeropage),y   A:0 X:FF Y:8 P:24 SP:FF
16627 C7BB            DEY 88        implied   A:0 X:FF Y:8 P:24 SP:FF
16630 C7BC            BNE D0      immediate   A:0 X:FF Y:7 P:24 SP:FF
16633 C7B9            STA 91   (zeropage),y   A:0 X:FF Y:7 P:24 SP:FF
16640 C7BB            DEY 88        implied   A:0 X:FF Y:7 P:24 SP:FF
16643 C7BC            BNE D0      immediate   A:0 X:FF Y:6 P:24 SP:FF
16646 C7B9            STA 91   (zeropage),y   A:0 X:FF Y:6 P:24 SP:FF
16653 C7BB            DEY 88        implied   A:0 X:FF Y:6 P:24 SP:FF
16656 C7BC            BNE D0      immediate   A:0 X:FF Y:5 P:24 SP:FF
16659 C7B9            STA 91   (zeropage),y   A:0 X:FF Y:5 P:24 SP:FF
16666 C7BB            DEY 88        implied   A:0 X:FF Y:5 P:24 SP:FF
16669 C7BC            BNE D0      immediate   A:0 X:FF Y:4 P:24 SP:FF
16672 C7B9            STA 91   (zeropage),y   A:0 X:FF Y:4 P:24 SP:FF
16679 C7BB            DEY 88        implied   A:0 X:FF Y:4 P:24 SP:FF
16682 C7BC            BNE D0      immediate   A:0 X:FF Y:3 P:24 SP:FF
16685 C7B9            STA 91   (zeropage),y   A:0 X:FF Y:3 P:24 SP:FF
16692 C7BB            DEY 88        implied   A:0 X:FF Y:3 P:24 SP:FF
16695 C7BC            BNE D0      immediate   A:0 X:FF Y:2 P:24 SP:FF
16698 C7B9            STA 91   (zeropage),y   A:0 X:FF Y:2 P:24 SP:FF
16705 C7BB            DEY 88        implied   A:0 X:FF Y:2 P:24 SP:FF
16708 C7BC            BNE D0      immediate   A:0 X:FF Y:1 P:24 SP:FF
16711 C7B9            STA 91   (zeropage),y   A:0 X:FF Y:1 P:24 SP:FF
16718 C7BB            DEY 88        implied   A:0 X:FF Y:1 P:24 SP:FF
16721 C7BC            BNE D0      immediate   A:0 X:FF Y:0 P:26 SP:FF
16724 C7BE            DEC C6       zeropage   A:0 X:FF Y:0 P:26 SP:FF
16730 C7C0            BPL 10      immediate   A:0 X:FF Y:0 P:24 SP:FF
16733 C7B9            STA 91   (zeropage),y   A:0 X:FF Y:0 P:24 SP:FF
16740 C7BB            DEY 88        implied   A:0 X:FF Y:0 P:24 SP:FF
16743 C7BC            BNE D0      immediate   A:0 X:FF Y:FF P:A4 SP:FF
16746 C7B9            STA 91   (zeropage),y   A:0 X:FF Y:FF P:A4 SP:FF
16753 C7BB            DEY 88        implied   A:0 X:FF Y:FF P:A4 SP:FF
16756 C7BC            BNE D0      immediate   A:0 X:FF Y:FE P:A4 SP:FF
16759 C7B9            STA 91   (zeropage),y   A:0 X:FF Y:FE P:A4 SP:FF
16766 C7BB            DEY 88        implied   A:0 X:FF Y:FE P:A4 SP:FF
16769 C7BC            BNE D0      immediate   A:0 X:FF Y:FD P:A4 SP:FF
16772 C7B9            STA 91   (zeropage),y   A:0 X:FF Y:FD P:A4 SP:FF
16779 C7BB            DEY 88        implied   A:0 X:FF Y:FD P:A4 SP:FF
16782 C7BC            BNE D0      immediate   A:0 X:FF Y:FC P:A4 SP:FF
16785 C7B9            STA 91   (zeropage),y   A:0 X:FF Y:FC P:A4 SP:FF
16792 C7BB            DEY 88        implied   A:0 X:FF Y:FC P:A4 SP:FF
16795 C7BC            BNE D0      immediate   A:0 X:FF Y:FB P:A4 SP:FF
16798 C7B9            STA 91   (zeropage),y   A:0 X:FF Y:FB P:A4 SP:FF
16805 C7BB            DEY 88        implied   A:0 X:FF Y:FB P:A4 SP:FF
16808 C7BC            BNE D0      immediate   A:0 X:FF Y:FA P:A4 SP:FF
16811 C7B9            STA 91   (zeropage),y   A:0 X:FF Y:FA P:A4 SP:FF
16818 C7BB            DEY 88        implied   A:0 X:FF Y:FA P:A4 SP:FF
16821 C7BC            BNE D0      immediate   A:0 X:FF Y:F9 P:A4 SP:FF
16824 C7B9            STA 91   (zeropage),y   A:0 X:FF Y:F9 P:A4 SP:FF
16831 C7BB            DEY 88        implied   A:0 X:FF Y:F9 P:A4 SP:FF
16834 C7BC            BNE D0      immediate   A:0 X:FF Y:F8 P:A4 SP:FF
16837 C7B9            STA 91   (zeropage),y   A:0 X:FF Y:F8 P:A4 SP:FF
16844 C7BB            DEY 88        implied   A:0 X:FF Y:F8 P:A4 SP:FF
16847 C7BC            BNE D0      immediate   A:0 X:FF Y:F7 P:A4 SP:FF
16850 C7B9            STA 91   (zeropage),y   A:0 X:FF Y:F7 P:A4 SP:FF
16857 C7BB            DEY 88        implied   A:0 X:FF Y:F7 P:A4 SP:FF
16860 C7BC            BNE D0      immediate   A:0 X:FF Y:F6 P:A4 SP:FF
16863 C7B9            STA 91   (zeropage),y   A:0 X:FF Y:F6 P:A4 SP:FF
16870 C7BB            DEY 88        implied   A:0 X:FF Y:F6 P:A4 SP:FF
16873 C7BC            BNE D0      immediate   A:0 X:FF Y:F5 P:A4 SP:FF
16876 C7B9            STA 91   (zeropage),y   A:0 X:FF Y:F5 P:A4 SP:FF
16883 C7BB            DEY 88        implied   A:0 X:FF Y:F5 P:A4 SP:FF
16886 C7BC            BNE D0      immediate   A:0 X:FF Y:F4 P:A4 SP:FF
16889 C7B9            STA 91   (zeropage),y   A:0 X:FF Y:F4 P:A4 SP:FF
16896 C7BB            DEY 88        implied   A:0 X:FF Y:F4 P:A4 SP:FF
16899 C7BC            BNE D0      immediate   A:0 X:FF Y:F3 P:A4 SP:FF
16902 C7B9            STA 91   (zeropage),y   A:0 X:FF Y:F3 P:A4 SP:FF
16909 C7BB            DEY 88        implied   A:0 X:FF Y:F3 P:A4 SP:FF
16912 C7BC            BNE D0      immediate   A:0 X:FF Y:F2 P:A4 SP:FF
16915 C7B9            STA 91   (zeropage),y   A:0 X:FF Y:F2 P:A4 SP:FF
16922 C7BB            DEY 88        implied   A:0 X:FF Y:F2 P:A4 SP:FF
16925 C7BC            BNE D0      immediate   A:0 X:FF Y:F1 P:A4 SP:FF
16928 C7B9            STA 91   (zeropage),y   A:0 X:FF Y:F1 P:A4 SP:FF
16935 C7BB            DEY 88        implied   A:0 X:FF Y:F1 P:A4 SP:FF
16938 C7BC            BNE D0      immediate   A:0 X:FF Y:F0 P:A4 SP:FF
16941 C7B9            STA 91   (zeropage),y   A:0 X:FF Y:F0 P:A4 SP:FF
16948 C7BB            DEY 88        implied   A:0 X:FF Y:F0 P:A4 SP:FF
16951 C7BC            BNE D0      immediate   A:0 X:FF Y:EF P:A4 SP:FF
16954 C7B9            STA 91   (zeropage),y   A:0 X:FF Y:EF P:A4 SP:FF
16961 C7BB            DEY 88        implied   A:0 X:FF Y:EF P:A4 SP:FF
16964 C7BC            BNE D0      immediate   A:0 X:FF Y:EE P:A4 SP:FF
16967 C7B9            STA 91   (zeropage),y   A:0 X:FF Y:EE P:A4 SP:FF
16974 C7BB            DEY 88        implied   A:0 X:FF Y:EE P:A4 SP:FF
16977 C7BC            BNE D0      immediate   A:0 X:FF Y:ED P:A4 SP:FF
16980 C7B9            STA 91   (zeropage),y   A:0 X:FF Y:ED P:A4 SP:FF
16987 C7BB            DEY 88        implied   A:0 X:FF Y:ED P:A4 SP:FF
16990 C7BC            BNE D0      immediate   A:0 X:FF Y:EC P:A4 SP:FF
16993 C7B9            STA 91   (zeropage),y   A:0 X:FF Y:EC P:A4 SP:FF
17000 C7BB            DEY 88        implied   A:0 X:FF Y:EC P:A4 SP:FF
17003 C7BC            BNE D0      immediate   A:0 X:FF Y:EB P:A4 SP:FF
17006 C7B9            STA 91   (zeropage),y   A:0 X:FF Y:EB P:A4 SP:FF
17013 C7BB            DEY 88        implied   A:0 X:FF Y:EB P:A4 SP:FF
17016 C7BC            BNE D0      immediate   A:0 X:FF Y:EA P:A4 SP:FF
17019 C7B9            STA 91   (zeropage),y   A:0 X:FF Y:EA P:A4 SP:FF
17026 C7BB            DEY 88        implied   A:0 X:FF Y:EA P:A4 SP:FF
17029 C7BC            BNE D0      immediate   A:0 X:FF Y:E9 P:A4 SP:FF
17032 C7B9            STA 91   (zeropage),y   A:0 X:FF Y:E9 P:A4 SP:FF
17039 C7BB            DEY 88        implied   A:0 X:FF Y:E9 P:A4 SP:FF
17042 C7BC            BNE D0      immediate   A:0 X:FF Y:E8 P:A4 SP:FF
17045 C7B9            STA 91   (zeropage),y   A:0 X:FF Y:E8 P:A4 SP:FF
17052 C7BB            DEY 88        implied   A:0 X:FF Y:E8 P:A4 SP:FF
17055 C7BC            BNE D0      immediate   A:0 X:FF Y:E7 P:A4 SP:FF
17058 C7B9            STA 91   (zeropage),y   A:0 X:FF Y:E7 P:A4 SP:FF
17065 C7BB            DEY 88        implied   A:0 X:FF Y:E7 P:A4 SP:FF
17068 C7BC            BNE D0      immediate   A:0 X:FF Y:E6 P:A4 SP:FF
17071 C7B9            STA 91   (zeropage),y   A:0 X:FF Y:E6 P:A4 SP:FF
17078 C7BB            DEY 88        implied   A:0 X:FF Y:E6 P:A4 SP:FF
17081 C7BC            BNE D0      immediate   A:0 X:FF Y:E5 P:A4 SP:FF
17084 C7B9            STA 91   (zeropage),y   A:0 X:FF Y:E5 P:A4 SP:FF
17091 C7BB            DEY 88        implied   A:0 X:FF Y:E5 P:A4 SP:FF
17094 C7BC            BNE D0      immediate   A:0 X:FF Y:E4 P:A4 SP:FF
17097 C7B9            STA 91   (zeropage),y   A:0 X:FF Y:E4 P:A4 SP:FF
17104 C7BB            DEY 88        implied   A:0 X:FF Y:E4 P:A4 SP:FF
17107 C7BC            BNE D0      immediate   A:0 X:FF Y:E3 P:A4 SP:FF
17110 C7B9            STA 91   (zeropage),y   A:0 X:FF Y:E3 P:A4 SP:FF
17117 C7BB            DEY 88        implied   A:0 X:FF Y:E3 P:A4 SP:FF
17120 C7BC            BNE D0      immediate   A:0 X:FF Y:E2 P:A4 SP:FF
17123 C7B9            STA 91   (zeropage),y   A:0 X:FF Y:E2 P:A4 SP:FF
17130 C7BB            DEY 88        implied   A:0 X:FF Y:E2 P:A4 SP:FF
17133 C7BC            BNE D0      immediate   A:0 X:FF Y:E1 P:A4 SP:FF
17136 C7B9            STA 91   (zeropage),y   A:0 X:FF Y:E1 P:A4 SP:FF
17143 C7BB            DEY 88        implied   A:0 X:FF Y:E1 P:A4 SP:FF
17146 C7BC            BNE D0      immediate   A:0 X:FF Y:E0 P:A4 SP:FF
17149 C7B9            STA 91   (zeropage),y   A:0 X:FF Y:E0 P:A4 SP:FF
17156 C7BB            DEY 88        implied   A:0 X:FF Y:E0 P:A4 SP:FF
17159 C7BC            BNE D0      immediate   A:0 X:FF Y:DF P:A4 SP:FF
17162 C7B9            STA 91   (zeropage),y   A:0 X:FF Y:DF P:A4 SP:FF
17169 C7BB            DEY 88        implied   A:0 X:FF Y:DF P:A4 SP:FF
17172 C7BC            BNE D0      immediate   A:0 X:FF Y:DE P:A4 SP:FF
17175 C7B9            STA 91   (zeropage),y   A:0 X:FF Y:DE P:A4 SP:FF
17182 C7BB            DEY 88        implied   A:0 X:FF Y:DE P:A4 SP:FF
17185 C7BC            BNE D0      immediate   A:0 X:FF Y:DD P:A4 SP:FF
17188 C7B9            STA 91   (zeropage),y   A:0 X:FF Y:DD P:A4 SP:FF
17195 C7BB            DEY 88        implied   A:0 X:FF Y:DD P:A4 SP:FF
17198 C7BC            BNE D0      immediate   A:0 X:FF Y:DC P:A4 SP:FF
17201 C7B9            STA 91   (zeropage),y   A:0 X:FF Y:DC P:A4 SP:FF
17208 C7BB            DEY 88        implied   A:0 X:FF Y:DC P:A4 SP:FF
17211 C7BC            BNE D0      immediate   A:0 X:FF Y:DB P:A4 SP:FF
17214 C7B9            STA 91   (zeropage),y   A:0 X:FF Y:DB P:A4 SP:FF
17221 C7BB            DEY 88        implied   A:0 X:FF Y:DB P:A4 SP:FF
17224 C7BC            BNE D0      immediate   A:0 X:FF Y:DA P:A4 SP:FF
17227 C7B9            STA 91   (zeropage),y   A:0 X:FF Y:DA P:A4 SP:FF
17234 C7BB            DEY 88        implied   A:0 X:FF Y:DA P:A4 SP:FF
17237 C7BC            BNE D0      immediate   A:0 X:FF Y:D9 P:A4 SP:FF
17240 C7B9            STA 91   (zeropage),y   A:0 X:FF Y:D9 P:A4 SP:FF
17247 C7BB            DEY 88        implied   A:0 X:FF Y:D9 P:A4 SP:FF
17250 C7BC            BNE D0      immediate   A:0 X:FF Y:D8 P:A4 SP:FF
17253 C7B9            STA 91   (zeropage),y   A:0 X:FF Y:D8 P:A4 SP:FF
17260 C7BB            DEY 88        implied   A:0 X:FF Y:D8 P:A4 SP:FF
17263 C7BC            BNE D0      immediate   A:0 X:FF Y:D7 P:A4 SP:FF
17266 C7B9            STA 91   (zeropage),y   A:0 X:FF Y:D7 P:A4 SP:FF
17273 C7BB            DEY 88        implied   A:0 X:FF Y:D7 P:A4 SP:FF
17276 C7BC            BNE D0      immediate   A:0 X:FF Y:D6 P:A4 SP:FF
17279 C7B9            STA 91   (zeropage),y   A:0 X:FF Y:D6 P:A4 SP:FF
17286 C7BB            DEY 88        implied   A:0 X:FF Y:D6 P:A4 SP:FF
17289 C7BC            BNE D0      immediate   A:0 X:FF Y:D5 P:A4 SP:FF
17292 C7B9            STA 91   (zeropage),y   A:0 X:FF Y:D5 P:A4 SP:FF
17299 C7BB            DEY 88        implied   A:0 X:FF Y:D5 P:A4 SP:FF
17302 C7BC            BNE D0      immediate   A:0 X:FF Y:D4 P:A4 SP:FF
17305 C7B9            STA 91   (zeropage),y   A:0 X:FF Y:D4 P:A4 SP:FF
17312 C7BB            DEY 88        implied   A:0 X:FF Y:D4 P:A4 SP:FF
17315 C7BC            BNE D0      immediate   A:0 X:FF Y:D3 P:A4 SP:FF
17318 C7B9            STA 91   (zeropage),y   A:0 X:FF Y:D3 P:A4 SP:FF
17325 C7BB            DEY 88        implied   A:0 X:FF Y:D3 P:A4 SP:FF
17328 C7BC            BNE D0      immediate   A:0 X:FF Y:D2 P:A4 SP:FF
17331 C7B9            STA 91   (zeropage),y   A:0 X:FF Y:D2 P:A4 SP:FF
17338 C7BB            DEY 88        implied   A:0 X:FF Y:D2 P:A4 SP:FF
17341 C7BC            BNE D0      immediate   A:0 X:FF Y:D1 P:A4 SP:FF
17344 C7B9            STA 91   (zeropage),y   A:0 X:FF Y:D1 P:A4 SP:FF
17351 C7BB            DEY 88        implied   A:0 X:FF Y:D1 P:A4 SP:FF
17354 C7BC            BNE D0      immediate   A:0 X:FF Y:D0 P:A4 SP:FF
17357 C7B9            STA 91   (zeropage),y   A:0 X:FF Y:D0 P:A4 SP:FF
17364 C7BB            DEY 88        implied   A:0 X:FF Y:D0 P:A4 SP:FF
17367 C7BC            BNE D0      immediate   A:0 X:FF Y:CF P:A4 SP:FF
17370 C7B9            STA 91   (zeropage),y   A:0 X:FF Y:CF P:A4 SP:FF
17377 C7BB            DEY 88        implied   A:0 X:FF Y:CF P:A4 SP:FF
17380 C7BC            BNE D0      immediate   A:0 X:FF Y:CE P:A4 SP:FF
17383 C7B9            STA 91   (zeropage),y   A:0 X:FF Y:CE P:A4 SP:FF
17390 C7BB            DEY 88        implied   A:0 X:FF Y:CE P:A4 SP:FF
17393 C7BC            BNE D0      immediate   A:0 X:FF Y:CD P:A4 SP:FF
17396 C7B9            STA 91   (zeropage),y   A:0 X:FF Y:CD P:A4 SP:FF
17403 C7BB            DEY 88        implied   A:0 X:FF Y:CD P:A4 SP:FF
17406 C7BC            BNE D0      immediate   A:0 X:FF Y:CC P:A4 SP:FF
17409 C7B9            STA 91   (zeropage),y   A:0 X:FF Y:CC P:A4 SP:FF
17416 C7BB            DEY 88        implied   A:0 X:FF Y:CC P:A4 SP:FF
17419 C7BC            BNE D0      immediate   A:0 X:FF Y:CB P:A4 SP:FF
17422 C7B9            STA 91   (zeropage),y   A:0 X:FF Y:CB P:A4 SP:FF
17429 C7BB            DEY 88        implied   A:0 X:FF Y:CB P:A4 SP:FF
17432 C7BC            BNE D0      immediate   A:0 X:FF Y:CA P:A4 SP:FF
17435 C7B9            STA 91   (zeropage),y   A:0 X:FF Y:CA P:A4 SP:FF
17442 C7BB            DEY 88        implied   A:0 X:FF Y:CA P:A4 SP:FF
17445 C7BC            BNE D0      immediate   A:0 X:FF Y:C9 P:A4 SP:FF
17448 C7B9            STA 91   (zeropage),y   A:0 X:FF Y:C9 P:A4 SP:FF
17455 C7BB            DEY 88        implied   A:0 X:FF Y:C9 P:A4 SP:FF
17458 C7BC            BNE D0      immediate   A:0 X:FF Y:C8 P:A4 SP:FF
17461 C7B9            STA 91   (zeropage),y   A:0 X:FF Y:C8 P:A4 SP:FF
17468 C7BB            DEY 88        implied   A:0 X:FF Y:C8 P:A4 SP:FF
17471 C7BC            BNE D0      immediate   A:0 X:FF Y:C7 P:A4 SP:FF
17474 C7B9            STA 91   (zeropage),y   A:0 X:FF Y:C7 P:A4 SP:FF
17481 C7BB            DEY 88        implied   A:0 X:FF Y:C7 P:A4 SP:FF
17484 C7BC            BNE D0      immediate   A:0 X:FF Y:C6 P:A4 SP:FF
17487 C7B9            STA 91   (zeropage),y   A:0 X:FF Y:C6 P:A4 SP:FF
17494 C7BB            DEY 88        implied   A:0 X:FF Y:C6 P:A4 SP:FF
17497 C7BC            BNE D0      immediate   A:0 X:FF Y:C5 P:A4 SP:FF
17500 C7B9            STA 91   (zeropage),y   A:0 X:FF Y:C5 P:A4 SP:FF
17507 C7BB            DEY 88        implied   A:0 X:FF Y:C5 P:A4 SP:FF
17510 C7BC            BNE D0      immediate   A:0 X:FF Y:C4 P:A4 SP:FF
17513 C7B9            STA 91   (zeropage),y   A:0 X:FF Y:C4 P:A4 SP:FF
17520 C7BB            DEY 88        implied   A:0 X:FF Y:C4 P:A4 SP:FF
17523 C7BC            BNE D0      immediate   A:0 X:FF Y:C3 P:A4 SP:FF
17526 C7B9            STA 91   (zeropage),y   A:0 X:FF Y:C3 P:A4 SP:FF
17533 C7BB            DEY 88        implied   A:0 X:FF Y:C3 P:A4 SP:FF
17536 C7BC            BNE D0      immediate   A:0 X:FF Y:C2 P:A4 SP:FF
17539 C7B9            STA 91   (zeropage),y   A:0 X:FF Y:C2 P:A4 SP:FF
17546 C7BB            DEY 88        implied   A:0 X:FF Y:C2 P:A4 SP:FF
17549 C7BC            BNE D0      immediate   A:0 X:FF Y:C1 P:A4 SP:FF
17552 C7B9            STA 91   (zeropage),y   A:0 X:FF Y:C1 P:A4 SP:FF
17559 C7BB            DEY 88        implied   A:0 X:FF Y:C1 P:A4 SP:FF
17562 C7BC            BNE D0      immediate   A:0 X:FF Y:C0 P:A4 SP:FF
17565 C7B9            STA 91   (zeropage),y   A:0 X:FF Y:C0 P:A4 SP:FF
17572 C7BB            DEY 88        implied   A:0 X:FF Y:C0 P:A4 SP:FF
17575 C7BC            BNE D0      immediate   A:0 X:FF Y:BF P:A4 SP:FF
17578 C7B9            STA 91   (zeropage),y   A:0 X:FF Y:BF P:A4 SP:FF
17585 C7BB            DEY 88        implied   A:0 X:FF Y:BF P:A4 SP:FF
17588 C7BC            BNE D0      immediate   A:0 X:FF Y:BE P:A4 SP:FF
17591 C7B9            STA 91   (zeropage),y   A:0 X:FF Y:BE P:A4 SP:FF
17598 C7BB            DEY 88        implied   A:0 X:FF Y:BE P:A4 SP:FF
17601 C7BC            BNE D0      immediate   A:0 X:FF Y:BD P:A4 SP:FF
17604 C7B9            STA 91   (zeropage),y   A:0 X:FF Y:BD P:A4 SP:FF
17611 C7BB            DEY 88        implied   A:0 X:FF Y:BD P:A4 SP:FF
17614 C7BC            BNE D0      immediate   A:0 X:FF Y:BC P:A4 SP:FF
17617 C7B9            STA 91   (zeropage),y   A:0 X:FF Y:BC P:A4 SP:FF
17624 C7BB            DEY 88        implied   A:0 X:FF Y:BC P:A4 SP:FF
17627 C7BC            BNE D0      immediate   A:0 X:FF Y:BB P:A4 SP:FF
17630 C7B9            STA 91   (zeropage),y   A:0 X:FF Y:BB P:A4 SP:FF
17637 C7BB            DEY 88        implied   A:0 X:FF Y:BB P:A4 SP:FF
17640 C7BC            BNE D0      immediate   A:0 X:FF Y:BA P:A4 SP:FF
17643 C7B9            STA 91   (zeropage),y   A:0 X:FF Y:BA P:A4 SP:FF
17650 C7BB            DEY 88        implied   A:0 X:FF Y:BA P:A4 SP:FF
17653 C7BC            BNE D0      immediate   A:0 X:FF Y:B9 P:A4 SP:FF
17656 C7B9            STA 91   (zeropage),y   A:0 X:FF Y:B9 P:A4 SP:FF
17663 C7BB            DEY 88        implied   A:0 X:FF Y:B9 P:A4 SP:FF
17666 C7BC            BNE D0      immediate   A:0 X:FF Y:B8 P:A4 SP:FF
17669 C7B9            STA 91   (zeropage),y   A:0 X:FF Y:B8 P:A4 SP:FF
17676 C7BB            DEY 88        implied   A:0 X:FF Y:B8 P:A4 SP:FF
17679 C7BC            BNE D0      immediate   A:0 X:FF Y:B7 P:A4 SP:FF
17682 C7B9            STA 91   (zeropage),y   A:0 X:FF Y:B7 P:A4 SP:FF
17689 C7BB            DEY 88        implied   A:0 X:FF Y:B7 P:A4 SP:FF
17692 C7BC            BNE D0      immediate   A:0 X:FF Y:B6 P:A4 SP:FF
17695 C7B9            STA 91   (zeropage),y   A:0 X:FF Y:B6 P:A4 SP:FF
17702 C7BB            DEY 88        implied   A:0 X:FF Y:B6 P:A4 SP:FF
17705 C7BC            BNE D0      immediate   A:0 X:FF Y:B5 P:A4 SP:FF
17708 C7B9            STA 91   (zeropage),y   A:0 X:FF Y:B5 P:A4 SP:FF
17715 C7BB            DEY 88        implied   A:0 X:FF Y:B5 P:A4 SP:FF
17718 C7BC            BNE D0      immediate   A:0 X:FF Y:B4 P:A4 SP:FF
17721 C7B9            STA 91   (zeropage),y   A:0 X:FF Y:B4 P:A4 SP:FF
17728 C7BB            DEY 88        implied   A:0 X:FF Y:B4 P:A4 SP:FF
17731 C7BC            BNE D0      immediate   A:0 X:FF Y:B3 P:A4 SP:FF
17734 C7B9            STA 91   (zeropage),y   A:0 X:FF Y:B3 P:A4 SP:FF
17741 C7BB            DEY 88        implied   A:0 X:FF Y:B3 P:A4 SP:FF
17744 C7BC            BNE D0      immediate   A:0 X:FF Y:B2 P:A4 SP:FF
17747 C7B9            STA 91   (zeropage),y   A:0 X:FF Y:B2 P:A4 SP:FF
17754 C7BB            DEY 88        implied   A:0 X:FF Y:B2 P:A4 SP:FF
17757 C7BC            BNE D0      immediate   A:0 X:FF Y:B1 P:A4 SP:FF
17760 C7B9            STA 91   (zeropage),y   A:0 X:FF Y:B1 P:A4 SP:FF
17767 C7BB            DEY 88        implied   A:0 X:FF Y:B1 P:A4 SP:FF
17770 C7BC            BNE D0      immediate   A:0 X:FF Y:B0 P:A4 SP:FF
17773 C7B9            STA 91   (zeropage),y   A:0 X:FF Y:B0 P:A4 SP:FF
17780 C7BB            DEY 88        implied   A:0 X:FF Y:B0 P:A4 SP:FF
17783 C7BC            BNE D0      immediate   A:0 X:FF Y:AF P:A4 SP:FF
17786 C7B9            STA 91   (zeropage),y   A:0 X:FF Y:AF P:A4 SP:FF
17793 C7BB            DEY 88        implied   A:0 X:FF Y:AF P:A4 SP:FF
17796 C7BC            BNE D0      immediate   A:0 X:FF Y:AE P:A4 SP:FF
17799 C7B9            STA 91   (zeropage),y   A:0 X:FF Y:AE P:A4 SP:FF
17806 C7BB            DEY 88        implied   A:0 X:FF Y:AE P:A4 SP:FF
17809 C7BC            BNE D0      immediate   A:0 X:FF Y:AD P:A4 SP:FF
17812 C7B9            STA 91   (zeropage),y   A:0 X:FF Y:AD P:A4 SP:FF
17819 C7BB            DEY 88        implied   A:0 X:FF Y:AD P:A4 SP:FF
17822 C7BC            BNE D0      immediate   A:0 X:FF Y:AC P:A4 SP:FF
17825 C7B9            STA 91   (zeropage),y   A:0 X:FF Y:AC P:A4 SP:FF
17832 C7BB            DEY 88        implied   A:0 X:FF Y:AC P:A4 SP:FF
17835 C7BC            BNE D0      immediate   A:0 X:FF Y:AB P:A4 SP:FF
17838 C7B9            STA 91   (zeropage),y   A:0 X:FF Y:AB P:A4 SP:FF
17845 C7BB            DEY 88        implied   A:0 X:FF Y:AB P:A4 SP:FF
17848 C7BC            BNE D0      immediate   A:0 X:FF Y:AA P:A4 SP:FF
17851 C7B9            STA 91   (zeropage),y   A:0 X:FF Y:AA P:A4 SP:FF
17858 C7BB            DEY 88        implied   A:0 X:FF Y:AA P:A4 SP:FF
17861 C7BC            BNE D0      immediate   A:0 X:FF Y:A9 P:A4 SP:FF
17864 C7B9            STA 91   (zeropage),y   A:0 X:FF Y:A9 P:A4 SP:FF
17871 C7BB            DEY 88        implied   A:0 X:FF Y:A9 P:A4 SP:FF
17874 C7BC            BNE D0      immediate   A:0 X:FF Y:A8 P:A4 SP:FF
17877 C7B9            STA 91   (zeropage),y   A:0 X:FF Y:A8 P:A4 SP:FF
17884 C7BB            DEY 88        implied   A:0 X:FF Y:A8 P:A4 SP:FF
17887 C7BC            BNE D0      immediate   A:0 X:FF Y:A7 P:A4 SP:FF
17890 C7B9            STA 91   (zeropage),y   A:0 X:FF Y:A7 P:A4 SP:FF
17897 C7BB            DEY 88        implied   A:0 X:FF Y:A7 P:A4 SP:FF
17900 C7BC            BNE D0      immediate   A:0 X:FF Y:A6 P:A4 SP:FF
17903 C7B9            STA 91   (zeropage),y   A:0 X:FF Y:A6 P:A4 SP:FF
17910 C7BB            DEY 88        implied   A:0 X:FF Y:A6 P:A4 SP:FF
17913 C7BC            BNE D0      immediate   A:0 X:FF Y:A5 P:A4 SP:FF
17916 C7B9            STA 91   (zeropage),y   A:0 X:FF Y:A5 P:A4 SP:FF
17923 C7BB            DEY 88        implied   A:0 X:FF Y:A5 P:A4 SP:FF
17926 C7BC            BNE D0      immediate   A:0 X:FF Y:A4 P:A4 SP:FF
17929 C7B9            STA 91   (zeropage),y   A:0 X:FF Y:A4 P:A4 SP:FF
17936 C7BB            DEY 88        implied   A:0 X:FF Y:A4 P:A4 SP:FF
17939 C7BC            BNE D0      immediate   A:0 X:FF Y:A3 P:A4 SP:FF
17942 C7B9            STA 91   (zeropage),y   A:0 X:FF Y:A3 P:A4 SP:FF
17949 C7BB            DEY 88        implied   A:0 X:FF Y:A3 P:A4 SP:FF
17952 C7BC            BNE D0      immediate   A:0 X:FF Y:A2 P:A4 SP:FF
17955 C7B9            STA 91   (zeropage),y   A:0 X:FF Y:A2 P:A4 SP:FF
17962 C7BB            DEY 88        implied   A:0 X:FF Y:A2 P:A4 SP:FF
17965 C7BC            BNE D0      immediate   A:0 X:FF Y:A1 P:A4 SP:FF
17968 C7B9            STA 91   (zeropage),y   A:0 X:FF Y:A1 P:A4 SP:FF
17975 C7BB            DEY 88        implied   A:0 X:FF Y:A1 P:A4 SP:FF
17978 C7BC            BNE D0      immediate   A:0 X:FF Y:A0 P:A4 SP:FF
17981 C7B9            STA 91   (zeropage),y   A:0 X:FF Y:A0 P:A4 SP:FF
17988 C7BB            DEY 88        implied   A:0 X:FF Y:A0 P:A4 SP:FF
17991 C7BC            BNE D0      immediate   A:0 X:FF Y:9F P:A4 SP:FF
17994 C7B9            STA 91   (zeropage),y   A:0 X:FF Y:9F P:A4 SP:FF
18001 C7BB            DEY 88        implied   A:0 X:FF Y:9F P:A4 SP:FF
18004 C7BC            BNE D0      immediate   A:0 X:FF Y:9E P:A4 SP:FF
18007 C7B9            STA 91   (zeropage),y   A:0 X:FF Y:9E P:A4 SP:FF
18014 C7BB            DEY 88        implied   A:0 X:FF Y:9E P:A4 SP:FF
18017 C7BC            BNE D0      immediate   A:0 X:FF Y:9D P:A4 SP:FF
18020 C7B9            STA 91   (zeropage),y   A:0 X:FF Y:9D P:A4 SP:FF
18027 C7BB            DEY 88        implied   A:0 X:FF Y:9D P:A4 SP:FF
18030 C7BC            BNE D0      immediate   A:0 X:FF Y:9C P:A4 SP:FF
18033 C7B9            STA 91   (zeropage),y   A:0 X:FF Y:9C P:A4 SP:FF
18040 C7BB            DEY 88        implied   A:0 X:FF Y:9C P:A4 SP:FF
18043 C7BC            BNE D0      immediate   A:0 X:FF Y:9B P:A4 SP:FF
18046 C7B9            STA 91   (zeropage),y   A:0 X:FF Y:9B P:A4 SP:FF
18053 C7BB            DEY 88        implied   A:0 X:FF Y:9B P:A4 SP:FF
18056 C7BC            BNE D0      immediate   A:0 X:FF Y:9A P:A4 SP:FF
18059 C7B9            STA 91   (zeropage),y   A:0 X:FF Y:9A P:A4 SP:FF
18066 C7BB            DEY 88        implied   A:0 X:FF Y:9A P:A4 SP:FF
18069 C7BC            BNE D0      immediate   A:0 X:FF Y:99 P:A4 SP:FF
18072 C7B9            STA 91   (zeropage),y   A:0 X:FF Y:99 P:A4 SP:FF
18079 C7BB            DEY 88        implied   A:0 X:FF Y:99 P:A4 SP:FF
18082 C7BC            BNE D0      immediate   A:0 X:FF Y:98 P:A4 SP:FF
18085 C7B9            STA 91   (zeropage),y   A:0 X:FF Y:98 P:A4 SP:FF
18092 C7BB            DEY 88        implied   A:0 X:FF Y:98 P:A4 SP:FF
18095 C7BC            BNE D0      immediate   A:0 X:FF Y:97 P:A4 SP:FF
18098 C7B9            STA 91   (zeropage),y   A:0 X:FF Y:97 P:A4 SP:FF
18105 C7BB            DEY 88        implied   A:0 X:FF Y:97 P:A4 SP:FF
18108 C7BC            BNE D0      immediate   A:0 X:FF Y:96 P:A4 SP:FF
18111 C7B9            STA 91   (zeropage),y   A:0 X:FF Y:96 P:A4 SP:FF
18118 C7BB            DEY 88        implied   A:0 X:FF Y:96 P:A4 SP:FF
18121 C7BC            BNE D0      immediate   A:0 X:FF Y:95 P:A4 SP:FF
18124 C7B9            STA 91   (zeropage),y   A:0 X:FF Y:95 P:A4 SP:FF
18131 C7BB            DEY 88        implied   A:0 X:FF Y:95 P:A4 SP:FF
18134 C7BC            BNE D0      immediate   A:0 X:FF Y:94 P:A4 SP:FF
18137 C7B9            STA 91   (zeropage),y   A:0 X:FF Y:94 P:A4 SP:FF
18144 C7BB            DEY 88        implied   A:0 X:FF Y:94 P:A4 SP:FF
18147 C7BC            BNE D0      immediate   A:0 X:FF Y:93 P:A4 SP:FF
18150 C7B9            STA 91   (zeropage),y   A:0 X:FF Y:93 P:A4 SP:FF
18157 C7BB            DEY 88        implied   A:0 X:FF Y:93 P:A4 SP:FF
18160 C7BC            BNE D0      immediate   A:0 X:FF Y:92 P:A4 SP:FF
18163 C7B9            STA 91   (zeropage),y   A:0 X:FF Y:92 P:A4 SP:FF
18170 C7BB            DEY 88        implied   A:0 X:FF Y:92 P:A4 SP:FF
18173 C7BC            BNE D0      immediate   A:0 X:FF Y:91 P:A4 SP:FF
18176 C7B9            STA 91   (zeropage),y   A:0 X:FF Y:91 P:A4 SP:FF
18183 C7BB            DEY 88        implied   A:0 X:FF Y:91 P:A4 SP:FF
18186 C7BC            BNE D0      immediate   A:0 X:FF Y:90 P:A4 SP:FF
18189 C7B9            STA 91   (zeropage),y   A:0 X:FF Y:90 P:A4 SP:FF
18196 C7BB            DEY 88        implied   A:0 X:FF Y:90 P:A4 SP:FF
18199 C7BC            BNE D0      immediate   A:0 X:FF Y:8F P:A4 SP:FF
18202 C7B9            STA 91   (zeropage),y   A:0 X:FF Y:8F P:A4 SP:FF
18209 C7BB            DEY 88        implied   A:0 X:FF Y:8F P:A4 SP:FF
18212 C7BC            BNE D0      immediate   A:0 X:FF Y:8E P:A4 SP:FF
18215 C7B9            STA 91   (zeropage),y   A:0 X:FF Y:8E P:A4 SP:FF
18222 C7BB            DEY 88        implied   A:0 X:FF Y:8E P:A4 SP:FF
18225 C7BC            BNE D0      immediate   A:0 X:FF Y:8D P:A4 SP:FF
18228 C7B9            STA 91   (zeropage),y   A:0 X:FF Y:8D P:A4 SP:FF
18235 C7BB            DEY 88        implied   A:0 X:FF Y:8D P:A4 SP:FF
18238 C7BC            BNE D0      immediate   A:0 X:FF Y:8C P:A4 SP:FF
18241 C7B9            STA 91   (zeropage),y   A:0 X:FF Y:8C P:A4 SP:FF
18248 C7BB            DEY 88        implied   A:0 X:FF Y:8C P:A4 SP:FF
18251 C7BC            BNE D0      immediate   A:0 X:FF Y:8B P:A4 SP:FF
18254 C7B9            STA 91   (zeropage),y   A:0 X:FF Y:8B P:A4 SP:FF
18261 C7BB            DEY 88        implied   A:0 X:FF Y:8B P:A4 SP:FF
18264 C7BC            BNE D0      immediate   A:0 X:FF Y:8A P:A4 SP:FF
18267 C7B9            STA 91   (zeropage),y   A:0 X:FF Y:8A P:A4 SP:FF
18274 C7BB            DEY 88        implied   A:0 X:FF Y:8A P:A4 SP:FF
18277 C7BC            BNE D0      immediate   A:0 X:FF Y:89 P:A4 SP:FF
18280 C7B9            STA 91   (zeropage),y   A:0 X:FF Y:89 P:A4 SP:FF
18287 C7BB            DEY 88        implied   A:0 X:FF Y:89 P:A4 SP:FF
18290 C7BC            BNE D0      immediate   A:0 X:FF Y:88 P:A4 SP:FF
18293 C7B9            STA 91   (zeropage),y   A:0 X:FF Y:88 P:A4 SP:FF
18300 C7BB            DEY 88        implied   A:0 X:FF Y:88 P:A4 SP:FF
18303 C7BC            BNE D0      immediate   A:0 X:FF Y:87 P:A4 SP:FF
18306 C7B9            STA 91   (zeropage),y   A:0 X:FF Y:87 P:A4 SP:FF
18313 C7BB            DEY 88        implied   A:0 X:FF Y:87 P:A4 SP:FF
18316 C7BC            BNE D0      immediate   A:0 X:FF Y:86 P:A4 SP:FF
18319 C7B9            STA 91   (zeropage),y   A:0 X:FF Y:86 P:A4 SP:FF
18326 C7BB            DEY 88        implied   A:0 X:FF Y:86 P:A4 SP:FF
18329 C7BC            BNE D0      immediate   A:0 X:FF Y:85 P:A4 SP:FF
18332 C7B9            STA 91   (zeropage),y   A:0 X:FF Y:85 P:A4 SP:FF
18339 C7BB            DEY 88        implied   A:0 X:FF Y:85 P:A4 SP:FF
18342 C7BC            BNE D0      immediate   A:0 X:FF Y:84 P:A4 SP:FF
18345 C7B9            STA 91   (zeropage),y   A:0 X:FF Y:84 P:A4 SP:FF
18352 C7BB            DEY 88        implied   A:0 X:FF Y:84 P:A4 SP:FF
18355 C7BC            BNE D0      immediate   A:0 X:FF Y:83 P:A4 SP:FF
18358 C7B9            STA 91   (zeropage),y   A:0 X:FF Y:83 P:A4 SP:FF
18365 C7BB            DEY 88        implied   A:0 X:FF Y:83 P:A4 SP:FF
18368 C7BC            BNE D0      immediate   A:0 X:FF Y:82 P:A4 SP:FF
18371 C7B9            STA 91   (zeropage),y   A:0 X:FF Y:82 P:A4 SP:FF
18378 C7BB            DEY 88        implied   A:0 X:FF Y:82 P:A4 SP:FF
18381 C7BC            BNE D0      immediate   A:0 X:FF Y:81 P:A4 SP:FF
18384 C7B9            STA 91   (zeropage),y   A:0 X:FF Y:81 P:A4 SP:FF
18391 C7BB            DEY 88        implied   A:0 X:FF Y:81 P:A4 SP:FF
18394 C7BC            BNE D0      immediate   A:0 X:FF Y:80 P:A4 SP:FF
18397 C7B9            STA 91   (zeropage),y   A:0 X:FF Y:80 P:A4 SP:FF
18404 C7BB            DEY 88        implied   A:0 X:FF Y:80 P:A4 SP:FF
18407 C7BC            BNE D0      immediate   A:0 X:FF Y:7F P:24 SP:FF
18410 C7B9            STA 91   (zeropage),y   A:0 X:FF Y:7F P:24 SP:FF
18417 C7BB            DEY 88        implied   A:0 X:FF Y:7F P:24 SP:FF
18420 C7BC            BNE D0      immediate   A:0 X:FF Y:7E P:24 SP:FF
18423 C7B9            STA 91   (zeropage),y   A:0 X:FF Y:7E P:24 SP:FF
18430 C7BB            DEY 88        implied   A:0 X:FF Y:7E P:24 SP:FF
18433 C7BC            BNE D0      immediate   A:0 X:FF Y:7D P:24 SP:FF
18436 C7B9            STA 91   (zeropage),y   A:0 X:FF Y:7D P:24 SP:FF
18443 C7BB            DEY 88        implied   A:0 X:FF Y:7D P:24 SP:FF
18446 C7BC            BNE D0      immediate   A:0 X:FF Y:7C P:24 SP:FF
18449 C7B9            STA 91   (zeropage),y   A:0 X:FF Y:7C P:24 SP:FF
18456 C7BB            DEY 88        implied   A:0 X:FF Y:7C P:24 SP:FF
18459 C7BC            BNE D0      immediate   A:0 X:FF Y:7B P:24 SP:FF
18462 C7B9            STA 91   (zeropage),y   A:0 X:FF Y:7B P:24 SP:FF
18469 C7BB            DEY 88        implied   A:0 X:FF Y:7B P:24 SP:FF
18472 C7BC            BNE D0      immediate   A:0 X:FF Y:7A P:24 SP:FF
18475 C7B9            STA 91   (zeropage),y   A:0 X:FF Y:7A P:24 SP:FF
18482 C7BB            DEY 88        implied   A:0 X:FF Y:7A P:24 SP:FF
18485 C7BC            BNE D0      immediate   A:0 X:FF Y:79 P:24 SP:FF
18488 C7B9            STA 91   (zeropage),y   A:0 X:FF Y:79 P:24 SP:FF
18495 C7BB            DEY 88        implied   A:0 X:FF Y:79 P:24 SP:FF
18498 C7BC            BNE D0      immediate   A:0 X:FF Y:78 P:24 SP:FF
18501 C7B9            STA 91   (zeropage),y   A:0 X:FF Y:78 P:24 SP:FF
18508 C7BB            DEY 88        implied   A:0 X:FF Y:78 P:24 SP:FF
18511 C7BC            BNE D0      immediate   A:0 X:FF Y:77 P:24 SP:FF
18514 C7B9            STA 91   (zeropage),y   A:0 X:FF Y:77 P:24 SP:FF
18521 C7BB            DEY 88        implied   A:0 X:FF Y:77 P:24 SP:FF
18524 C7BC            BNE D0      immediate   A:0 X:FF Y:76 P:24 SP:FF
18527 C7B9            STA 91   (zeropage),y   A:0 X:FF Y:76 P:24 SP:FF
18534 C7BB            DEY 88        implied   A:0 X:FF Y:76 P:24 SP:FF
18537 C7BC            BNE D0      immediate   A:0 X:FF Y:75 P:24 SP:FF
18540 C7B9            STA 91   (zeropage),y   A:0 X:FF Y:75 P:24 SP:FF
18547 C7BB            DEY 88        implied   A:0 X:FF Y:75 P:24 SP:FF
18550 C7BC            BNE D0      immediate   A:0 X:FF Y:74 P:24 SP:FF
18553 C7B9            STA 91   (zeropage),y   A:0 X:FF Y:74 P:24 SP:FF
18560 C7BB            DEY 88        implied   A:0 X:FF Y:74 P:24 SP:FF
18563 C7BC            BNE D0      immediate   A:0 X:FF Y:73 P:24 SP:FF
18566 C7B9            STA 91   (zeropage),y   A:0 X:FF Y:73 P:24 SP:FF
18573 C7BB            DEY 88        implied   A:0 X:FF Y:73 P:24 SP:FF
18576 C7BC            BNE D0      immediate   A:0 X:FF Y:72 P:24 SP:FF
18579 C7B9            STA 91   (zeropage),y   A:0 X:FF Y:72 P:24 SP:FF
18586 C7BB            DEY 88        implied   A:0 X:FF Y:72 P:24 SP:FF
18589 C7BC            BNE D0      immediate   A:0 X:FF Y:71 P:24 SP:FF
18592 C7B9            STA 91   (zeropage),y   A:0 X:FF Y:71 P:24 SP:FF
18599 C7BB            DEY 88        implied   A:0 X:FF Y:71 P:24 SP:FF
18602 C7BC            BNE D0      immediate   A:0 X:FF Y:70 P:24 SP:FF
18605 C7B9            STA 91   (zeropage),y   A:0 X:FF Y:70 P:24 SP:FF
18612 C7BB            DEY 88        implied   A:0 X:FF Y:70 P:24 SP:FF
18615 C7BC            BNE D0      immediate   A:0 X:FF Y:6F P:24 SP:FF
18618 C7B9            STA 91   (zeropage),y   A:0 X:FF Y:6F P:24 SP:FF
18625 C7BB            DEY 88        implied   A:0 X:FF Y:6F P:24 SP:FF
18628 C7BC            BNE D0      immediate   A:0 X:FF Y:6E P:24 SP:FF
18631 C7B9            STA 91   (zeropage),y   A:0 X:FF Y:6E P:24 SP:FF
18638 C7BB            DEY 88        implied   A:0 X:FF Y:6E P:24 SP:FF
18641 C7BC            BNE D0      immediate   A:0 X:FF Y:6D P:24 SP:FF
18644 C7B9            STA 91   (zeropage),y   A:0 X:FF Y:6D P:24 SP:FF
18651 C7BB            DEY 88        implied   A:0 X:FF Y:6D P:24 SP:FF
18654 C7BC            BNE D0      immediate   A:0 X:FF Y:6C P:24 SP:FF
18657 C7B9            STA 91   (zeropage),y   A:0 X:FF Y:6C P:24 SP:FF
18664 C7BB            DEY 88        implied   A:0 X:FF Y:6C P:24 SP:FF
18667 C7BC            BNE D0      immediate   A:0 X:FF Y:6B P:24 SP:FF
18670 C7B9            STA 91   (zeropage),y   A:0 X:FF Y:6B P:24 SP:FF
18677 C7BB            DEY 88        implied   A:0 X:FF Y:6B P:24 SP:FF
18680 C7BC            BNE D0      immediate   A:0 X:FF Y:6A P:24 SP:FF
18683 C7B9            STA 91   (zeropage),y   A:0 X:FF Y:6A P:24 SP:FF
18690 C7BB            DEY 88        implied   A:0 X:FF Y:6A P:24 SP:FF
18693 C7BC            BNE D0      immediate   A:0 X:FF Y:69 P:24 SP:FF
18696 C7B9            STA 91   (zeropage),y   A:0 X:FF Y:69 P:24 SP:FF
18703 C7BB            DEY 88        implied   A:0 X:FF Y:69 P:24 SP:FF
18706 C7BC            BNE D0      immediate   A:0 X:FF Y:68 P:24 SP:FF
18709 C7B9            STA 91   (zeropage),y   A:0 X:FF Y:68 P:24 SP:FF
18716 C7BB            DEY 88        implied   A:0 X:FF Y:68 P:24 SP:FF
18719 C7BC            BNE D0      immediate   A:0 X:FF Y:67 P:24 SP:FF
18722 C7B9            STA 91   (zeropage),y   A:0 X:FF Y:67 P:24 SP:FF
18729 C7BB            DEY 88        implied   A:0 X:FF Y:67 P:24 SP:FF
18732 C7BC            BNE D0      immediate   A:0 X:FF Y:66 P:24 SP:FF
18735 C7B9            STA 91   (zeropage),y   A:0 X:FF Y:66 P:24 SP:FF
18742 C7BB            DEY 88        implied   A:0 X:FF Y:66 P:24 SP:FF
18745 C7BC            BNE D0      immediate   A:0 X:FF Y:65 P:24 SP:FF
18748 C7B9            STA 91   (zeropage),y   A:0 X:FF Y:65 P:24 SP:FF
18755 C7BB            DEY 88        implied   A:0 X:FF Y:65 P:24 SP:FF
18758 C7BC            BNE D0      immediate   A:0 X:FF Y:64 P:24 SP:FF
18761 C7B9            STA 91   (zeropage),y   A:0 X:FF Y:64 P:24 SP:FF
18768 C7BB            DEY 88        implied   A:0 X:FF Y:64 P:24 SP:FF
18771 C7BC            BNE D0      immediate   A:0 X:FF Y:63 P:24 SP:FF
18774 C7B9            STA 91   (zeropage),y   A:0 X:FF Y:63 P:24 SP:FF
18781 C7BB            DEY 88        implied   A:0 X:FF Y:63 P:24 SP:FF
18784 C7BC            BNE D0      immediate   A:0 X:FF Y:62 P:24 SP:FF
18787 C7B9            STA 91   (zeropage),y   A:0 X:FF Y:62 P:24 SP:FF
18794 C7BB            DEY 88        implied   A:0 X:FF Y:62 P:24 SP:FF
18797 C7BC            BNE D0      immediate   A:0 X:FF Y:61 P:24 SP:FF
18800 C7B9            STA 91   (zeropage),y   A:0 X:FF Y:61 P:24 SP:FF
18807 C7BB            DEY 88        implied   A:0 X:FF Y:61 P:24 SP:FF
18810 C7BC            BNE D0      immediate   A:0 X:FF Y:60 P:24 SP:FF
18813 C7B9            STA 91   (zeropage),y   A:0 X:FF Y:60 P:24 SP:FF
18820 C7BB            DEY 88        implied   A:0 X:FF Y:60 P:24 SP:FF
18823 C7BC            BNE D0      immediate   A:0 X:FF Y:5F P:24 SP:FF
18826 C7B9            STA 91   (zeropage),y   A:0 X:FF Y:5F P:24 SP:FF
18833 C7BB            DEY 88        implied   A:0 X:FF Y:5F P:24 SP:FF
18836 C7BC            BNE D0      immediate   A:0 X:FF Y:5E P:24 SP:FF
18839 C7B9            STA 91   (zeropage),y   A:0 X:FF Y:5E P:24 SP:FF
18846 C7BB            DEY 88        implied   A:0 X:FF Y:5E P:24 SP:FF
18849 C7BC            BNE D0      immediate   A:0 X:FF Y:5D P:24 SP:FF
18852 C7B9            STA 91   (zeropage),y   A:0 X:FF Y:5D P:24 SP:FF
18859 C7BB            DEY 88        implied   A:0 X:FF Y:5D P:24 SP:FF
18862 C7BC            BNE D0      immediate   A:0 X:FF Y:5C P:24 SP:FF
18865 C7B9            STA 91   (zeropage),y   A:0 X:FF Y:5C P:24 SP:FF
18872 C7BB            DEY 88        implied   A:0 X:FF Y:5C P:24 SP:FF
18875 C7BC            BNE D0      immediate   A:0 X:FF Y:5B P:24 SP:FF
18878 C7B9            STA 91   (zeropage),y   A:0 X:FF Y:5B P:24 SP:FF
18885 C7BB            DEY 88        implied   A:0 X:FF Y:5B P:24 SP:FF
18888 C7BC            BNE D0      immediate   A:0 X:FF Y:5A P:24 SP:FF
18891 C7B9            STA 91   (zeropage),y   A:0 X:FF Y:5A P:24 SP:FF
18898 C7BB            DEY 88        implied   A:0 X:FF Y:5A P:24 SP:FF
18901 C7BC            BNE D0      immediate   A:0 X:FF Y:59 P:24 SP:FF
18904 C7B9            STA 91   (zeropage),y   A:0 X:FF Y:59 P:24 SP:FF
18911 C7BB            DEY 88        implied   A:0 X:FF Y:59 P:24 SP:FF
18914 C7BC            BNE D0      immediate   A:0 X:FF Y:58 P:24 SP:FF
18917 C7B9            STA 91   (zeropage),y   A:0 X:FF Y:58 P:24 SP:FF
18924 C7BB            DEY 88        implied   A:0 X:FF Y:58 P:24 SP:FF
18927 C7BC            BNE D0      immediate   A:0 X:FF Y:57 P:24 SP:FF
18930 C7B9            STA 91   (zeropage),y   A:0 X:FF Y:57 P:24 SP:FF
18937 C7BB            DEY 88        implied   A:0 X:FF Y:57 P:24 SP:FF
18940 C7BC            BNE D0      immediate   A:0 X:FF Y:56 P:24 SP:FF
18943 C7B9            STA 91   (zeropage),y   A:0 X:FF Y:56 P:24 SP:FF
18950 C7BB            DEY 88        implied   A:0 X:FF Y:56 P:24 SP:FF
18953 C7BC            BNE D0      immediate   A:0 X:FF Y:55 P:24 SP:FF
18956 C7B9            STA 91   (zeropage),y   A:0 X:FF Y:55 P:24 SP:FF
18963 C7BB            DEY 88        implied   A:0 X:FF Y:55 P:24 SP:FF
18966 C7BC            BNE D0      immediate   A:0 X:FF Y:54 P:24 SP:FF
18969 C7B9            STA 91   (zeropage),y   A:0 X:FF Y:54 P:24 SP:FF
18976 C7BB            DEY 88        implied   A:0 X:FF Y:54 P:24 SP:FF
18979 C7BC            BNE D0      immediate   A:0 X:FF Y:53 P:24 SP:FF
18982 C7B9            STA 91   (zeropage),y   A:0 X:FF Y:53 P:24 SP:FF
18989 C7BB            DEY 88        implied   A:0 X:FF Y:53 P:24 SP:FF
18992 C7BC            BNE D0      immediate   A:0 X:FF Y:52 P:24 SP:FF
18995 C7B9            STA 91   (zeropage),y   A:0 X:FF Y:52 P:24 SP:FF
19002 C7BB            DEY 88        implied   A:0 X:FF Y:52 P:24 SP:FF
19005 C7BC            BNE D0      immediate   A:0 X:FF Y:51 P:24 SP:FF
19008 C7B9            STA 91   (zeropage),y   A:0 X:FF Y:51 P:24 SP:FF
19015 C7BB            DEY 88        implied   A:0 X:FF Y:51 P:24 SP:FF
19018 C7BC            BNE D0      immediate   A:0 X:FF Y:50 P:24 SP:FF
19021 C7B9            STA 91   (zeropage),y   A:0 X:FF Y:50 P:24 SP:FF
19028 C7BB            DEY 88        implied   A:0 X:FF Y:50 P:24 SP:FF
19031 C7BC            BNE D0      immediate   A:0 X:FF Y:4F P:24 SP:FF
19034 C7B9            STA 91   (zeropage),y   A:0 X:FF Y:4F P:24 SP:FF
19041 C7BB            DEY 88        implied   A:0 X:FF Y:4F P:24 SP:FF
19044 C7BC            BNE D0      immediate   A:0 X:FF Y:4E P:24 SP:FF
19047 C7B9            STA 91   (zeropage),y   A:0 X:FF Y:4E P:24 SP:FF
19054 C7BB            DEY 88        implied   A:0 X:FF Y:4E P:24 SP:FF
19057 C7BC            BNE D0      immediate   A:0 X:FF Y:4D P:24 SP:FF
19060 C7B9            STA 91   (zeropage),y   A:0 X:FF Y:4D P:24 SP:FF
19067 C7BB            DEY 88        implied   A:0 X:FF Y:4D P:24 SP:FF
19070 C7BC            BNE D0      immediate   A:0 X:FF Y:4C P:24 SP:FF
19073 C7B9            STA 91   (zeropage),y   A:0 X:FF Y:4C P:24 SP:FF
19080 C7BB            DEY 88        implied   A:0 X:FF Y:4C P:24 SP:FF
19083 C7BC            BNE D0      immediate   A:0 X:FF Y:4B P:24 SP:FF
19086 C7B9            STA 91   (zeropage),y   A:0 X:FF Y:4B P:24 SP:FF
19093 C7BB            DEY 88        implied   A:0 X:FF Y:4B P:24 SP:FF
19096 C7BC            BNE D0      immediate   A:0 X:FF Y:4A P:24 SP:FF
19099 C7B9            STA 91   (zeropage),y   A:0 X:FF Y:4A P:24 SP:FF
19106 C7BB            DEY 88        implied   A:0 X:FF Y:4A P:24 SP:FF
19109 C7BC            BNE D0      immediate   A:0 X:FF Y:49 P:24 SP:FF
19112 C7B9            STA 91   (zeropage),y   A:0 X:FF Y:49 P:24 SP:FF
19119 C7BB            DEY 88        implied   A:0 X:FF Y:49 P:24 SP:FF
19122 C7BC            BNE D0      immediate   A:0 X:FF Y:48 P:24 SP:FF
19125 C7B9            STA 91   (zeropage),y   A:0 X:FF Y:48 P:24 SP:FF
19132 C7BB            DEY 88        implied   A:0 X:FF Y:48 P:24 SP:FF
19135 C7BC            BNE D0      immediate   A:0 X:FF Y:47 P:24 SP:FF
19138 C7B9            STA 91   (zeropage),y   A:0 X:FF Y:47 P:24 SP:FF
19145 C7BB            DEY 88        implied   A:0 X:FF Y:47 P:24 SP:FF
19148 C7BC            BNE D0      immediate   A:0 X:FF Y:46 P:24 SP:FF
19151 C7B9            STA 91   (zeropage),y   A:0 X:FF Y:46 P:24 SP:FF
19158 C7BB            DEY 88        implied   A:0 X:FF Y:46 P:24 SP:FF
19161 C7BC            BNE D0      immediate   A:0 X:FF Y:45 P:24 SP:FF
19164 C7B9            STA 91   (zeropage),y   A:0 X:FF Y:45 P:24 SP:FF
19171 C7BB            DEY 88        implied   A:0 X:FF Y:45 P:24 SP:FF
19174 C7BC            BNE D0      immediate   A:0 X:FF Y:44 P:24 SP:FF
19177 C7B9            STA 91   (zeropage),y   A:0 X:FF Y:44 P:24 SP:FF
19184 C7BB            DEY 88        implied   A:0 X:FF Y:44 P:24 SP:FF
19187 C7BC            BNE D0      immediate   A:0 X:FF Y:43 P:24 SP:FF
19190 C7B9            STA 91   (zeropage),y   A:0 X:FF Y:43 P:24 SP:FF
19197 C7BB            DEY 88        implied   A:0 X:FF Y:43 P:24 SP:FF
19200 C7BC            BNE D0      immediate   A:0 X:FF Y:42 P:24 SP:FF
19203 C7B9            STA 91   (zeropage),y   A:0 X:FF Y:42 P:24 SP:FF
19210 C7BB            DEY 88        implied   A:0 X:FF Y:42 P:24 SP:FF
19213 C7BC            BNE D0      immediate   A:0 X:FF Y:41 P:24 SP:FF
19216 C7B9            STA 91   (zeropage),y   A:0 X:FF Y:41 P:24 SP:FF
19223 C7BB            DEY 88        implied   A:0 X:FF Y:41 P:24 SP:FF
19226 C7BC            BNE D0      immediate   A:0 X:FF Y:40 P:24 SP:FF
19229 C7B9            STA 91   (zeropage),y   A:0 X:FF Y:40 P:24 SP:FF
19236 C7BB            DEY 88        implied   A:0 X:FF Y:40 P:24 SP:FF
19239 C7BC            BNE D0      immediate   A:0 X:FF Y:3F P:24 SP:FF
19242 C7B9            STA 91   (zeropage),y   A:0 X:FF Y:3F P:24 SP:FF
19249 C7BB            DEY 88        implied   A:0 X:FF Y:3F P:24 SP:FF
19252 C7BC            BNE D0      immediate   A:0 X:FF Y:3E P:24 SP:FF
19255 C7B9            STA 91   (zeropage),y   A:0 X:FF Y:3E P:24 SP:FF
19262 C7BB            DEY 88        implied   A:0 X:FF Y:3E P:24 SP:FF
19265 C7BC            BNE D0      immediate   A:0 X:FF Y:3D P:24 SP:FF
19268 C7B9            STA 91   (zeropage),y   A:0 X:FF Y:3D P:24 SP:FF
19275 C7BB            DEY 88        implied   A:0 X:FF Y:3D P:24 SP:FF
19278 C7BC            BNE D0      immediate   A:0 X:FF Y:3C P:24 SP:FF
19281 C7B9            STA 91   (zeropage),y   A:0 X:FF Y:3C P:24 SP:FF
19288 C7BB            DEY 88        implied   A:0 X:FF Y:3C P:24 SP:FF
19291 C7BC            BNE D0      immediate   A:0 X:FF Y:3B P:24 SP:FF
19294 C7B9            STA 91   (zeropage),y   A:0 X:FF Y:3B P:24 SP:FF
19301 C7BB            DEY 88        implied   A:0 X:FF Y:3B P:24 SP:FF
19304 C7BC            BNE D0      immediate   A:0 X:FF Y:3A P:24 SP:FF
19307 C7B9            STA 91   (zeropage),y   A:0 X:FF Y:3A P:24 SP:FF
19314 C7BB            DEY 88        implied   A:0 X:FF Y:3A P:24 SP:FF
19317 C7BC            BNE D0      immediate   A:0 X:FF Y:39 P:24 SP:FF
19320 C7B9            STA 91   (zeropage),y   A:0 X:FF Y:39 P:24 SP:FF
19327 C7BB            DEY 88        implied   A:0 X:FF Y:39 P:24 SP:FF
19330 C7BC            BNE D0      immediate   A:0 X:FF Y:38 P:24 SP:FF
19333 C7B9            STA 91   (zeropage),y   A:0 X:FF Y:38 P:24 SP:FF
19340 C7BB            DEY 88        implied   A:0 X:FF Y:38 P:24 SP:FF
19343 C7BC            BNE D0      immediate   A:0 X:FF Y:37 P:24 SP:FF
19346 C7B9            STA 91   (zeropage),y   A:0 X:FF Y:37 P:24 SP:FF
19353 C7BB            DEY 88        implied   A:0 X:FF Y:37 P:24 SP:FF
19356 C7BC            BNE D0      immediate   A:0 X:FF Y:36 P:24 SP:FF
19359 C7B9            STA 91   (zeropage),y   A:0 X:FF Y:36 P:24 SP:FF
19366 C7BB            DEY 88        implied   A:0 X:FF Y:36 P:24 SP:FF
19369 C7BC            BNE D0      immediate   A:0 X:FF Y:35 P:24 SP:FF
19372 C7B9            STA 91   (zeropage),y   A:0 X:FF Y:35 P:24 SP:FF
19379 C7BB            DEY 88        implied   A:0 X:FF Y:35 P:24 SP:FF
19382 C7BC            BNE D0      immediate   A:0 X:FF Y:34 P:24 SP:FF
19385 C7B9            STA 91   (zeropage),y   A:0 X:FF Y:34 P:24 SP:FF
19392 C7BB            DEY 88        implied   A:0 X:FF Y:34 P:24 SP:FF
19395 C7BC            BNE D0      immediate   A:0 X:FF Y:33 P:24 SP:FF
19398 C7B9            STA 91   (zeropage),y   A:0 X:FF Y:33 P:24 SP:FF
19405 C7BB            DEY 88        implied   A:0 X:FF Y:33 P:24 SP:FF
19408 C7BC            BNE D0      immediate   A:0 X:FF Y:32 P:24 SP:FF
19411 C7B9            STA 91   (zeropage),y   A:0 X:FF Y:32 P:24 SP:FF
19418 C7BB            DEY 88        implied   A:0 X:FF Y:32 P:24 SP:FF
19421 C7BC            BNE D0      immediate   A:0 X:FF Y:31 P:24 SP:FF
19424 C7B9            STA 91   (zeropage),y   A:0 X:FF Y:31 P:24 SP:FF
19431 C7BB            DEY 88        implied   A:0 X:FF Y:31 P:24 SP:FF
19434 C7BC            BNE D0      immediate   A:0 X:FF Y:30 P:24 SP:FF
19437 C7B9            STA 91   (zeropage),y   A:0 X:FF Y:30 P:24 SP:FF
19444 C7BB            DEY 88        implied   A:0 X:FF Y:30 P:24 SP:FF
19447 C7BC            BNE D0      immediate   A:0 X:FF Y:2F P:24 SP:FF
19450 C7B9            STA 91   (zeropage),y   A:0 X:FF Y:2F P:24 SP:FF
19457 C7BB            DEY 88        implied   A:0 X:FF Y:2F P:24 SP:FF
19460 C7BC            BNE D0      immediate   A:0 X:FF Y:2E P:24 SP:FF
19463 C7B9            STA 91   (zeropage),y   A:0 X:FF Y:2E P:24 SP:FF
19470 C7BB            DEY 88        implied   A:0 X:FF Y:2E P:24 SP:FF
19473 C7BC            BNE D0      immediate   A:0 X:FF Y:2D P:24 SP:FF
19476 C7B9            STA 91   (zeropage),y   A:0 X:FF Y:2D P:24 SP:FF
19483 C7BB            DEY 88        implied   A:0 X:FF Y:2D P:24 SP:FF
19486 C7BC            BNE D0      immediate   A:0 X:FF Y:2C P:24 SP:FF
19489 C7B9            STA 91   (zeropage),y   A:0 X:FF Y:2C P:24 SP:FF
19496 C7BB            DEY 88        implied   A:0 X:FF Y:2C P:24 SP:FF
19499 C7BC            BNE D0      immediate   A:0 X:FF Y:2B P:24 SP:FF
19502 C7B9            STA 91   (zeropage),y   A:0 X:FF Y:2B P:24 SP:FF
19509 C7BB            DEY 88        implied   A:0 X:FF Y:2B P:24 SP:FF
19512 C7BC            BNE D0      immediate   A:0 X:FF Y:2A P:24 SP:FF
19515 C7B9            STA 91   (zeropage),y   A:0 X:FF Y:2A P:24 SP:FF
19522 C7BB            DEY 88        implied   A:0 X:FF Y:2A P:24 SP:FF
19525 C7BC            BNE D0      immediate   A:0 X:FF Y:29 P:24 SP:FF
19528 C7B9            STA 91   (zeropage),y   A:0 X:FF Y:29 P:24 SP:FF
19535 C7BB            DEY 88        implied   A:0 X:FF Y:29 P:24 SP:FF
19538 C7BC            BNE D0      immediate   A:0 X:FF Y:28 P:24 SP:FF
19541 C7B9            STA 91   (zeropage),y   A:0 X:FF Y:28 P:24 SP:FF
19548 C7BB            DEY 88        implied   A:0 X:FF Y:28 P:24 SP:FF
19551 C7BC            BNE D0      immediate   A:0 X:FF Y:27 P:24 SP:FF
19554 C7B9            STA 91   (zeropage),y   A:0 X:FF Y:27 P:24 SP:FF
19561 C7BB            DEY 88        implied   A:0 X:FF Y:27 P:24 SP:FF
19564 C7BC            BNE D0      immediate   A:0 X:FF Y:26 P:24 SP:FF
19567 C7B9            STA 91   (zeropage),y   A:0 X:FF Y:26 P:24 SP:FF
19574 C7BB            DEY 88        implied   A:0 X:FF Y:26 P:24 SP:FF
19577 C7BC            BNE D0      immediate   A:0 X:FF Y:25 P:24 SP:FF
19580 C7B9            STA 91   (zeropage),y   A:0 X:FF Y:25 P:24 SP:FF
19587 C7BB            DEY 88        implied   A:0 X:FF Y:25 P:24 SP:FF
19590 C7BC            BNE D0      immediate   A:0 X:FF Y:24 P:24 SP:FF
19593 C7B9            STA 91   (zeropage),y   A:0 X:FF Y:24 P:24 SP:FF
19600 C7BB            DEY 88        implied   A:0 X:FF Y:24 P:24 SP:FF
19603 C7BC            BNE D0      immediate   A:0 X:FF Y:23 P:24 SP:FF
19606 C7B9            STA 91   (zeropage),y   A:0 X:FF Y:23 P:24 SP:FF
19613 C7BB            DEY 88        implied   A:0 X:FF Y:23 P:24 SP:FF
19616 C7BC            BNE D0      immediate   A:0 X:FF Y:22 P:24 SP:FF
19619 C7B9            STA 91   (zeropage),y   A:0 X:FF Y:22 P:24 SP:FF
19626 C7BB            DEY 88        implied   A:0 X:FF Y:22 P:24 SP:FF
19629 C7BC            BNE D0      immediate   A:0 X:FF Y:21 P:24 SP:FF
19632 C7B9            STA 91   (zeropage),y   A:0 X:FF Y:21 P:24 SP:FF
19639 C7BB            DEY 88        implied   A:0 X:FF Y:21 P:24 SP:FF
19642 C7BC            BNE D0      immediate   A:0 X:FF Y:20 P:24 SP:FF
19645 C7B9            STA 91   (zeropage),y   A:0 X:FF Y:20 P:24 SP:FF
19652 C7BB            DEY 88        implied   A:0 X:FF Y:20 P:24 SP:FF
19655 C7BC            BNE D0      immediate   A:0 X:FF Y:1F P:24 SP:FF
19658 C7B9            STA 91   (zeropage),y   A:0 X:FF Y:1F P:24 SP:FF
19665 C7BB            DEY 88        implied   A:0 X:FF Y:1F P:24 SP:FF
19668 C7BC            BNE D0      immediate   A:0 X:FF Y:1E P:24 SP:FF
19671 C7B9            STA 91   (zeropage),y   A:0 X:FF Y:1E P:24 SP:FF
19678 C7BB            DEY 88        implied   A:0 X:FF Y:1E P:24 SP:FF
19681 C7BC            BNE D0      immediate   A:0 X:FF Y:1D P:24 SP:FF
19684 C7B9            STA 91   (zeropage),y   A:0 X:FF Y:1D P:24 SP:FF
19691 C7BB            DEY 88        implied   A:0 X:FF Y:1D P:24 SP:FF
19694 C7BC            BNE D0      immediate   A:0 X:FF Y:1C P:24 SP:FF
19697 C7B9            STA 91   (zeropage),y   A:0 X:FF Y:1C P:24 SP:FF
19704 C7BB            DEY 88        implied   A:0 X:FF Y:1C P:24 SP:FF
19707 C7BC            BNE D0      immediate   A:0 X:FF Y:1B P:24 SP:FF
19710 C7B9            STA 91   (zeropage),y   A:0 X:FF Y:1B P:24 SP:FF
19717 C7BB            DEY 88        implied   A:0 X:FF Y:1B P:24 SP:FF
19720 C7BC            BNE D0      immediate   A:0 X:FF Y:1A P:24 SP:FF
19723 C7B9            STA 91   (zeropage),y   A:0 X:FF Y:1A P:24 SP:FF
19730 C7BB            DEY 88        implied   A:0 X:FF Y:1A P:24 SP:FF
19733 C7BC            BNE D0      immediate   A:0 X:FF Y:19 P:24 SP:FF
19736 C7B9            STA 91   (zeropage),y   A:0 X:FF Y:19 P:24 SP:FF
19743 C7BB            DEY 88        implied   A:0 X:FF Y:19 P:24 SP:FF
19746 C7BC            BNE D0      immediate   A:0 X:FF Y:18 P:24 SP:FF
19749 C7B9            STA 91   (zeropage),y   A:0 X:FF Y:18 P:24 SP:FF
19756 C7BB            DEY 88        implied   A:0 X:FF Y:18 P:24 SP:FF
19759 C7BC            BNE D0      immediate   A:0 X:FF Y:17 P:24 SP:FF
19762 C7B9            STA 91   (zeropage),y   A:0 X:FF Y:17 P:24 SP:FF
19769 C7BB            DEY 88        implied   A:0 X:FF Y:17 P:24 SP:FF
19772 C7BC            BNE D0      immediate   A:0 X:FF Y:16 P:24 SP:FF
19775 C7B9            STA 91   (zeropage),y   A:0 X:FF Y:16 P:24 SP:FF
19782 C7BB            DEY 88        implied   A:0 X:FF Y:16 P:24 SP:FF
19785 C7BC            BNE D0      immediate   A:0 X:FF Y:15 P:24 SP:FF
19788 C7B9            STA 91   (zeropage),y   A:0 X:FF Y:15 P:24 SP:FF
19795 C7BB            DEY 88        implied   A:0 X:FF Y:15 P:24 SP:FF
19798 C7BC            BNE D0      immediate   A:0 X:FF Y:14 P:24 SP:FF
19801 C7B9            STA 91   (zeropage),y   A:0 X:FF Y:14 P:24 SP:FF
19808 C7BB            DEY 88        implied   A:0 X:FF Y:14 P:24 SP:FF
19811 C7BC            BNE D0      immediate   A:0 X:FF Y:13 P:24 SP:FF
19814 C7B9            STA 91   (zeropage),y   A:0 X:FF Y:13 P:24 SP:FF
19821 C7BB            DEY 88        implied   A:0 X:FF Y:13 P:24 SP:FF
19824 C7BC            BNE D0      immediate   A:0 X:FF Y:12 P:24 SP:FF
19827 C7B9            STA 91   (zeropage),y   A:0 X:FF Y:12 P:24 SP:FF
19834 C7BB            DEY 88        implied   A:0 X:FF Y:12 P:24 SP:FF
19837 C7BC            BNE D0      immediate   A:0 X:FF Y:11 P:24 SP:FF
19840 C7B9            STA 91   (zeropage),y   A:0 X:FF Y:11 P:24 SP:FF
19847 C7BB            DEY 88        implied   A:0 X:FF Y:11 P:24 SP:FF
19850 C7BC            BNE D0      immediate   A:0 X:FF Y:10 P:24 SP:FF
19853 C7B9            STA 91   (zeropage),y   A:0 X:FF Y:10 P:24 SP:FF
19860 C7BB            DEY 88        implied   A:0 X:FF Y:10 P:24 SP:FF
19863 C7BC            BNE D0      immediate   A:0 X:FF Y:F P:24 SP:FF
19866 C7B9            STA 91   (zeropage),y   A:0 X:FF Y:F P:24 SP:FF
19873 C7BB            DEY 88        implied   A:0 X:FF Y:F P:24 SP:FF
19876 C7BC            BNE D0      immediate   A:0 X:FF Y:E P:24 SP:FF
19879 C7B9            STA 91   (zeropage),y   A:0 X:FF Y:E P:24 SP:FF
19886 C7BB            DEY 88        implied   A:0 X:FF Y:E P:24 SP:FF
19889 C7BC            BNE D0      immediate   A:0 X:FF Y:D P:24 SP:FF
19892 C7B9            STA 91   (zeropage),y   A:0 X:FF Y:D P:24 SP:FF
19899 C7BB            DEY 88        implied   A:0 X:FF Y:D P:24 SP:FF
19902 C7BC            BNE D0      immediate   A:0 X:FF Y:C P:24 SP:FF
19905 C7B9            STA 91   (zeropage),y   A:0 X:FF Y:C P:24 SP:FF
19912 C7BB            DEY 88        implied   A:0 X:FF Y:C P:24 SP:FF
19915 C7BC            BNE D0      immediate   A:0 X:FF Y:B P:24 SP:FF
19918 C7B9            STA 91   (zeropage),y   A:0 X:FF Y:B P:24 SP:FF
19925 C7BB            DEY 88        implied   A:0 X:FF Y:B P:24 SP:FF
19928 C7BC            BNE D0      immediate   A:0 X:FF Y:A P:24 SP:FF
19931 C7B9            STA 91   (zeropage),y   A:0 X:FF Y:A P:24 SP:FF
19938 C7BB            DEY 88        implied   A:0 X:FF Y:A P:24 SP:FF
19941 C7BC            BNE D0      immediate   A:0 X:FF Y:9 P:24 SP:FF
19944 C7B9            STA 91   (zeropage),y   A:0 X:FF Y:9 P:24 SP:FF
19951 C7BB            DEY 88        implied   A:0 X:FF Y:9 P:24 SP:FF
19954 C7BC            BNE D0      immediate   A:0 X:FF Y:8 P:24 SP:FF
19957 C7B9            STA 91   (zeropage),y   A:0 X:FF Y:8 P:24 SP:FF
19964 C7BB            DEY 88        implied   A:0 X:FF Y:8 P:24 SP:FF
19967 C7BC            BNE D0      immediate   A:0 X:FF Y:7 P:24 SP:FF
19970 C7B9            STA 91   (zeropage),y   A:0 X:FF Y:7 P:24 SP:FF
19977 C7BB            DEY 88        implied   A:0 X:FF Y:7 P:24 SP:FF
19980 C7BC            BNE D0      immediate   A:0 X:FF Y:6 P:24 SP:FF
19983 C7B9            STA 91   (zeropage),y   A:0 X:FF Y:6 P:24 SP:FF
19990 C7BB            DEY 88        implied   A:0 X:FF Y:6 P:24 SP:FF
19993 C7BC            BNE D0      immediate   A:0 X:FF Y:5 P:24 SP:FF
19996 C7B9            STA 91   (zeropage),y   A:0 X:FF Y:5 P:24 SP:FF
